00000000005bd928 D LLAMA_BUILD_NUMBER
00000000005bd940 D LLAMA_BUILD_TARGET
00000000005bd930 D LLAMA_COMMIT
00000000005bd938 D LLAMA_COMPILER
00000000002d71c8 T _Z10glob_matchRKNSt6__ndk112basic_stringIcNS_11char_traitsIcEENS_9allocatorIcEEEES7_
00000000002d4968 T _Z10string_lcsNSt6__ndk117basic_string_viewIcNS_11char_traitsIcEEEES3_
00000000002d4110 T _Z11common_initv
00000000002d64ec T _Z11string_fromPK13llama_contextRK11llama_batch
00000000002d6060 T _Z11string_fromPK13llama_contextRKNSt6__ndk16vectorIiNS2_9allocatorIiEEEE
00000000002d5df0 T _Z11string_fromRKNSt6__ndk16vectorIiNS_9allocatorIiEEEE
00000000002d5d38 T _Z11string_fromb
00000000002d55f0 T _Z11string_joinRKNSt6__ndk16vectorINS_12basic_stringIcNS_11char_traitsIcEENS_9allocatorIcEEEENS4_IS6_EEEERKS6_
00000000003ed120 T _Z12llama_commitv
00000000002d54ec T _Z12regex_escapeRKNSt6__ndk112basic_stringIcNS_11char_traitsIcEENS_9allocatorIcEEEE
00000000002d57d8 T _Z12string_splitRKNSt6__ndk112basic_stringIcNS_11char_traitsIcEENS_9allocatorIcEEEES7_
00000000002d47ec T _Z12string_stripRKNSt6__ndk112basic_stringIcNS_11char_traitsIcEENS_9allocatorIcEEEE
00000000003215a8 T _Z13build_grammarRKNSt6__ndk18functionIFvRK22common_grammar_builderEEERK22common_grammar_options
00000000002d45e4 T _Z13string_formatPKcz
00000000002d5bfc T _Z13string_repeatRKNSt6__ndk112basic_stringIcNS_11char_traitsIcEENS_9allocatorIcEEEEm
000000000033896c T _Z14common_log_addP10common_log14ggml_log_levelPKcz
00000000003ed130 T _Z14llama_compilerv
00000000002d3f70 T _Z14parse_cpu_maskRKNSt6__ndk112basic_stringIcNS_11char_traitsIcEENS_9allocatorIcEEEERA512_b
0000000000338810 T _Z15common_log_freeP10common_log
00000000003383c4 T _Z15common_log_initv
0000000000338638 T _Z15common_log_mainv
00000000002dbe68 T _Z15common_tokenizePK11llama_vocabRKNSt6__ndk112basic_stringIcNS2_11char_traitsIcEENS2_9allocatorIcEEEEbb
00000000002dbe20 T _Z15common_tokenizePK13llama_contextRKNSt6__ndk112basic_stringIcNS2_11char_traitsIcEENS2_9allocatorIcEEEEbb
00000000002d784c T _Z15fs_is_directoryRKNSt6__ndk112basic_stringIcNS_11char_traitsIcEENS_9allocatorIcEEEE
00000000002d3c2c T _Z15parse_cpu_rangeRKNSt6__ndk112basic_stringIcNS_11char_traitsIcEENS_9allocatorIcEEEERA512_b
000000000024f298 T _Z15trim_whitespaceRKNSt6__ndk112basic_stringIcNS_11char_traitsIcEENS_9allocatorIcEEEE
000000000034a5a8 T _Z16build_peg_parserRKNSt6__ndk18functionIF17common_peg_parserR25common_peg_parser_builderEEE
00000000002dbd70 T _Z16common_batch_addR11llama_batchiiRKNSt6__ndk16vectorIiNS1_9allocatorIiEEEEb
00000000002fdfbc T _Z16common_fit_printPKcP18llama_model_paramsP20llama_context_params
0000000000339124 T _Z16common_log_flushP10common_log
00000000003386b8 T _Z16common_log_pauseP10common_log
00000000002d8ac4 T _Z16fs_open_ifstreamRKNSt6__ndk112basic_stringIcNS_11char_traitsIcEENS_9allocatorIcEEEEj
00000000003ed150 T _Z16llama_build_infov
00000000002b1d88 T _Z17common_chat_parseRKNSt6__ndk112basic_stringIcNS_11char_traitsIcEENS_9allocatorIcEEEEbRK25common_chat_parser_params
00000000002dc0d4 T _Z17common_detokenizePK11llama_vocabRKNSt6__ndk16vectorIiNS2_9allocatorIiEEEEb
00000000002dc094 T _Z17common_detokenizePK13llama_contextRKNSt6__ndk16vectorIiNS2_9allocatorIiEEEEb
00000000002f8098 T _Z17common_fit_paramsPKcP18llama_model_paramsP20llama_context_paramsPfP32llama_model_tensor_buft_overridePmj14ggml_log_level
0000000000338750 T _Z17common_log_resumeP10common_log
0000000000377fa4 T _Z17common_perf_printPK13llama_contextPK14common_sampler
00000000002d7fa0 T _Z17fs_get_cache_fileRKNSt6__ndk112basic_stringIcNS_11char_traitsIcEENS_9allocatorIcEEEE
00000000002dbd68 T _Z18common_batch_clearR11llama_batch
00000000002dc8ac T _Z18common_opt_lr_parsPv
00000000003782bc T _Z18common_sampler_getPK14common_sampler
00000000003ed110 T _Z18llama_build_numberv
00000000003ed140 T _Z18llama_build_targetv
0000000000250d88 T _Z18segmentize_markersRKNSt6__ndk112basic_stringIcNS_11char_traitsIcEENS_9allocatorIcEEEE
00000000002d5290 T _Z18string_replace_allRNSt6__ndk112basic_stringIcNS_11char_traitsIcEENS_9allocatorIcEEEERKS5_S8_
00000000002d8ad4 T _Z18tty_can_use_colorsv
00000000002518d0 T _Z19after_common_suffixRKNSt6__ndk112basic_stringIcNS_11char_traitsIcEENS_9allocatorIcEEEES7_S7_
0000000000319f98 T _Z19common_imatrix_loadRKNSt6__ndk112basic_stringIcNS_11char_traitsIcEENS_9allocatorIcEEEER14common_imatrix
0000000000338cec T _Z19common_log_set_fileP10common_logPKc
00000000001fd688 T _Z19common_params_parseiPPcR13common_params13llama_examplePFviS0_E
0000000000377be8 T _Z19common_sampler_freeP14common_sampler
0000000000375a84 T _Z19common_sampler_initPK11llama_modelR22common_params_sampling
00000000003790b0 T _Z19common_sampler_lastPK14common_sampler
0000000000320b28 T _Z19gbnf_format_literalRKNSt6__ndk112basic_stringIcNS_11char_traitsIcEENS_9allocatorIcEEEE
0000000000251510 T _Z19until_common_prefixRKNSt6__ndk112basic_stringIcNS_11char_traitsIcEENS_9allocatorIcEEEES7_S7_
000000000024f894 T _Z20calculate_diff_splitRKNSt6__ndk112basic_stringIcNS_11char_traitsIcEENS_9allocatorIcEEEES7_
00000000002e27d4 T _Z20common_debug_cb_evalP11ggml_tensorbPv
00000000001cd47c T _Z20common_params_to_mapiPPc13llama_exampleRNSt6__ndk13mapI10common_argNS2_12basic_stringIcNS2_11char_traitsIcEENS2_9allocatorIcEEEENS2_4lessIS4_EENS8_INS2_4pairIKS4_SA_EEEEEE
0000000000377dd8 T _Z20common_sampler_cloneP14common_sampler
0000000000379134 T _Z20common_sampler_printPK14common_sampler
0000000000377dbc T _Z20common_sampler_resetP14common_sampler
00000000002d7434 T _Z20fs_validate_filenameRKNSt6__ndk112basic_stringIcNS_11char_traitsIcEENS_9allocatorIcEEEEb
00000000002d3740 T _Z20set_process_priority19ggml_sched_priority
00000000002b1d9c T _Z21common_chat_peg_parseRK16common_peg_arenaRKNSt6__ndk112basic_stringIcNS2_11char_traitsIcEENS2_9allocatorIcEEEEbRK25common_chat_parser_params
00000000002dbc80 T _Z21common_context_seq_cpP13llama_contextiiii
00000000002dbb88 T _Z21common_context_seq_rmP13llama_contextiii
00000000002dc22c T _Z21common_embd_normalizePKfPfii
0000000000338e74 T _Z21common_log_set_colorsP10common_log10log_colors
00000000003390cc T _Z21common_log_set_prefixP10common_logb
0000000000377c64 T _Z21common_sampler_acceptP14common_samplerib
00000000003782c8 T _Z21common_sampler_sampleP14common_samplerP13llama_contextib
00000000002da064 T _Z21common_token_to_piecePK11llama_vocabib
00000000002d64ac T _Z21common_token_to_piecePK13llama_contextib
00000000002dbcc4 T _Z22common_context_seq_addP13llama_contextiiii
00000000002f18a8 T _Z22common_download_removeRKNSt6__ndk112basic_stringIcNS_11char_traitsIcEENS_9allocatorIcEEEE
000000000033dfcc T _Z22common_ngram_map_beginR16common_ngram_mapRKNSt6__ndk16vectorIiNS1_9allocatorIiEEEE
000000000033e430 T _Z22common_ngram_map_draftR16common_ngram_mapRKNSt6__ndk16vectorIiNS1_9allocatorIiEEEEiRS5_
00000000002d794c T _Z22fs_get_cache_directoryv
00000000003214d4 T _Z22json_schema_to_grammarRKN8nlohmann16json_abi_v3_12_010basic_jsonINS0_11ordered_mapENSt6__ndk16vectorENS3_12basic_stringIcNS3_11char_traitsIcEENS3_9allocatorIcEEEEblmdS8_NS0_14adl_serializerENS4_IhNS8_IhEEEEvEEb
00000000003ed3b0 T _Z22llama_print_build_infov
0000000000338370 T _Z22llama_sampler_init_llgPK11llama_vocabPKcS3_
00000000002d3868 T _Z22postprocess_cpu_paramsR17common_cpu_paramsPKS_
00000000002d6b8c T _Z22string_process_escapesRNSt6__ndk112basic_stringIcNS_11char_traitsIcEENS_9allocatorIcEEEE
000000000024f7c0 T _Z22trim_trailing_newlinesRKNSt6__ndk112basic_stringIcNS_11char_traitsIcEENS_9allocatorIcEEEE
000000000027fc10 T _Z23build_tagged_peg_parserRKNSt6__ndk18functionIF17common_peg_parserR25common_peg_parser_builderEEE
000000000029e734 T _Z23common_chat_format_name18common_chat_format
00000000002d373c T _Z23common_cpu_get_num_mathv
00000000002da288 T _Z23common_init_from_paramsR13common_paramsb
000000000033b258 T _Z23common_ngram_cache_loadRKNSt6__ndk112basic_stringIcNS_11char_traitsIcEENS_9allocatorIcEEEE
000000000033ae20 T _Z23common_ngram_cache_saveRNSt6__ndk113unordered_mapI12common_ngramNS0_IiiNS_4hashIiEENS_8equal_toIiEENS_9allocatorINS_4pairIKiiEEEEEE26common_ngram_hash_functionNS4_IS1_EENS6_INS7_IKS1_SB_EEEEEERKNS_12basic_stringIcNS_11char_traitsIcEENS6_IcEEEE
000000000033f59c T _Z23common_ngram_map_acceptR16common_ngram_mapt
00000000002dc7bc T _Z23common_opt_dataset_initP13llama_contextRKNSt6__ndk16vectorIiNS1_9allocatorIiEEEEl
0000000000378fa4 T _Z23common_sampler_get_seedPK14common_sampler
00000000003793f0 T _Z23common_sampler_prev_strP14common_samplerP13llama_contexti
00000000002db574 T _Z23common_set_adapter_loraP13llama_contextRNSt6__ndk16vectorI24common_adapter_lora_infoNS1_9allocatorIS3_EEEE
0000000000381420 T _Z23common_speculative_freeP18common_speculative
000000000037f36c T _Z23common_speculative_initR25common_params_speculativej
000000000038fa30 T _Z23common_utf8_is_completeRKNSt6__ndk112basic_stringIcNS_11char_traitsIcEENS_9allocatorIcEEEE
000000000024f480 T _Z23trim_leading_whitespaceRKNSt6__ndk112basic_stringIcNS_11char_traitsIcEENS_9allocatorIcEEEE
000000000033a434 T _Z24common_ngram_cache_draftRNSt6__ndk16vectorIiNS_9allocatorIiEEEES4_iiiRNS_13unordered_mapI12common_ngramNS5_IiiNS_4hashIiEENS_8equal_toIiEENS1_INS_4pairIKiiEEEEEE26common_ngram_hash_functionNS9_IS6_EENS1_INSB_IKS6_SF_EEEEEESM_SM_
000000000033b74c T _Z24common_ngram_cache_mergeRNSt6__ndk113unordered_mapI12common_ngramNS0_IiiNS_4hashIiEENS_8equal_toIiEENS_9allocatorINS_4pairIKiiEEEEEE26common_ngram_hash_functionNS4_IS1_EENS6_INS7_IKS1_SB_EEEEEESI_
00000000002dc9f4 T _Z24common_opt_get_optimizerPKc
00000000002d4144 T _Z24common_params_print_infoRK13common_paramsb
00000000002dcabc T _Z24common_replay_last_tokenP13llama_contextii
0000000000381548 T _Z24common_speculative_beginP18common_speculativeiRKNSt6__ndk16vectorIiNS1_9allocatorIiEEEE
000000000038176c T _Z24common_speculative_draftP18common_speculative
000000000037ec64 T _Z24common_speculative_n_maxPK25common_params_speculative
00000000002d6e6c T _Z24string_parse_kv_overridePKcRNSt6__ndk16vectorI23llama_model_kv_overrideNS1_9allocatorIS3_EEEE
000000000024f5b0 T _Z24trim_trailing_whitespaceRKNSt6__ndk112basic_stringIcNS_11char_traitsIcEENS_9allocatorIcEEEE
000000000029d848 T _Z25common_chat_format_singlePK21common_chat_templatesRKNSt6__ndk16vectorI15common_chat_msgNS2_9allocatorIS4_EEEERKS4_bb
00000000002db988 T _Z25common_context_can_seq_rmP13llama_context
00000000002ed718 T _Z25common_download_run_tasksRKNSt6__ndk16vectorI20common_download_taskNS_9allocatorIS1_EEEE
00000000002db850 T _Z25common_get_model_endpointv
00000000002f10ec T _Z25common_list_cached_modelsv
00000000003390f8 T _Z25common_log_set_timestampsP10common_logb
0000000000339eac T _Z25common_ngram_cache_updateRNSt6__ndk113unordered_mapI12common_ngramNS0_IiiNS_4hashIiEENS_8equal_toIiEENS_9allocatorINS_4pairIKiiEEEEEE26common_ngram_hash_functionNS4_IS1_EENS6_INS7_IKS1_SB_EEEEEEiiRNS_6vectorIiNS6_IiEEEEib
000000000033dac0 T _Z25common_ngram_simple_draftRK26common_ngram_simple_configRKNSt6__ndk16vectorIiNS2_9allocatorIiEEEEi
00000000001cffec T _Z25common_params_parser_initR13common_params13llama_examplePFviPPcE
00000000002e7f30 T _Z25common_remote_get_contentRKNSt6__ndk112basic_stringIcNS_11char_traitsIcEENS_9allocatorIcEEEERK20common_remote_params
0000000000381d00 T _Z25common_speculative_acceptP18common_speculativeit
0000000000251d10 T _Z25prune_whitespace_segmentsRKNSt6__ndk16vectorI7segmentNS_9allocatorIS1_EEEE
000000000029dcd0 T _Z26common_chat_format_examplePK21common_chat_templatesbRKNSt6__ndk13mapINS2_12basic_stringIcNS2_11char_traitsIcEENS2_9allocatorIcEEEES9_NS2_4lessIS9_EENS7_INS2_4pairIKS9_S9_EEEEEE
000000000029e084 T _Z26common_chat_get_asr_promptPK21common_chat_templates
0000000000291e98 T _Z26common_chat_role_to_string16common_chat_role
000000000029e010 T _Z26common_chat_templates_freeP21common_chat_templates
000000000029cb50 T _Z26common_chat_templates_initPK11llama_modelRKNSt6__ndk112basic_stringIcNS2_11char_traitsIcEENS2_9allocatorIcEEEESA_SA_
00000000002daa84 T _Z26common_control_vector_loadRKNSt6__ndk16vectorI31common_control_vector_load_infoNS_9allocatorIS1_EEEE
00000000002dc5f4 T _Z26common_embd_similarity_cosPKfS0_i
00000000001c8b60 T _Z26common_models_handler_initRK13common_params13llama_example
00000000002dcb7c T _Z26common_prompt_batch_decodeP13llama_contextRKNSt6__ndk16vectorIiNS1_9allocatorIiEEEEiRiiNS1_17basic_string_viewIcNS1_11char_traitsIcEEEEb
0000000000379644 T _Z26common_sampler_type_to_chr19common_sampler_type
0000000000379668 T _Z26common_sampler_type_to_str19common_sampler_type
0000000000381628 T _Z26common_speculative_processP18common_speculativeRK11llama_batch
000000000038fc30 T _Z26common_unicode_cpt_to_utf8j
0000000000296274 T _Z27common_chat_templates_applyPK21common_chat_templatesRK28common_chat_templates_inputs
000000000029c6a0 T _Z27common_chat_verify_templateRKNSt6__ndk112basic_stringIcNS_11char_traitsIcEENS_9allocatorIcEEEEb
00000000002eec58 T _Z27common_docker_resolve_modelRKNSt6__ndk112basic_stringIcNS_11char_traitsIcEENS_9allocatorIcEEEE
00000000002e9d28 T _Z27common_download_file_singleRKNSt6__ndk112basic_stringIcNS_11char_traitsIcEENS_9allocatorIcEEEES7_RK20common_download_optsb
00000000002ec800 T _Z27common_download_get_hf_planRK19common_params_modelRK20common_download_opts
0000000000339274 T _Z27common_log_default_callback14ggml_log_levelPKcPv
00000000001c969c T _Z27common_models_handler_applyR21common_models_handlerR13common_paramsP24common_download_callback
000000000038f8f4 T _Z27common_parse_utf8_codepointNSt6__ndk117basic_string_viewIcNS_11char_traitsIcEEEEm
000000000038fae4 T _Z27common_unicode_cpts_to_utf8RKNSt6__ndk16vectorIjNS_9allocatorIjEEEE
000000000038f8e0 T _Z27common_utf8_sequence_lengthh
0000000000291cd4 T _Z28common_chat_role_from_stringRKNSt6__ndk112basic_stringIcNS_11char_traitsIcEENS_9allocatorIcEEEE
000000000029e2f8 T _Z28common_chat_templates_sourcePK21common_chat_templatesRKNSt6__ndk112basic_stringIcNS2_11char_traitsIcEENS2_9allocatorIcEEEE
00000000002d9e0c T _Z28common_model_params_to_llamaR13common_params
0000000000374dec T _Z28common_reasoning_budget_initPK11llama_vocabRKNSt6__ndk16vectorIiNS2_9allocatorIiEEEES8_S8_i29common_reasoning_budget_state
000000000029e7a8 T _Z28common_reasoning_format_name23common_reasoning_format
0000000000381f04 T _Z28common_speculative_get_stateP18common_speculativeiRNSt6__ndk16vectorIhNS1_9allocatorIhEEEE
00000000003816bc T _Z28common_speculative_need_embdP18common_speculative
0000000000381f74 T _Z28common_speculative_set_stateP18common_speculativeiRKNSt6__ndk16vectorIhNS1_9allocatorIhEEEE
00000000002edea4 T _Z29common_download_get_all_partsRKNSt6__ndk112basic_stringIcNS_11char_traitsIcEENS_9allocatorIcEEEE
00000000002f77c4 T _Z29common_get_device_memory_dataPKcPK18llama_model_paramsPK20llama_context_paramsRNSt6__ndk16vectorIP19ggml_backend_deviceNS7_9allocatorISA_EEEERjSF_SF_14ggml_log_level
00000000002fbb98 T _Z29common_memory_breakdown_printPK13llama_context
00000000002d43e4 T _Z29common_params_get_system_infoRK13common_params
0000000000374fdc T _Z29common_reasoning_budget_forceP13llama_sampler
0000000000378fbc T _Z29common_sampler_get_candidatesP14common_samplerb
00000000002d4eb4 T _Z29string_get_sortable_timestampv
000000000029c4b0 T _Z30common_chat_continuation_parseRKN8nlohmann16json_abi_v3_12_010basic_jsonINS0_11ordered_mapENSt6__ndk16vectorENS3_12basic_stringIcNS3_11char_traitsIcEENS3_9allocatorIcEEEEblmdS8_NS0_14adl_serializerENS4_IhNS8_IhEEEEvEE
00000000002b2b18 T _Z30common_chat_templates_get_capsPK21common_chat_templates
00000000002d9f38 T _Z30common_context_params_to_llamaRK13common_params
00000000002e7674 T _Z30common_download_split_repo_tagRKNSt6__ndk112basic_stringIcNS_11char_traitsIcEENS_9allocatorIcEEEE
00000000003383a4 T _Z30common_log_get_verbosity_tholdv
00000000003383b4 T _Z30common_log_set_verbosity_tholdi
0000000000381fcc T _Z30common_speculative_print_statsPK18common_speculative
000000000037e4dc T _Z30common_speculative_type_to_str23common_speculative_type
000000000037aabc T _Z31common_sampler_types_from_charsRKNSt6__ndk112basic_stringIcNS_11char_traitsIcEENS_9allocatorIcEEEE
0000000000379860 T _Z31common_sampler_types_from_namesRKNSt6__ndk16vectorINS_12basic_stringIcNS_11char_traitsIcEENS_9allocatorIcEEEENS4_IS6_EEEE
00000000002923c0 T _Z32common_chat_msg_delimiters_parseRKN8nlohmann16json_abi_v3_12_010basic_jsonINS0_11ordered_mapENSt6__ndk16vectorENS3_12basic_stringIcNS3_11char_traitsIcEENS3_9allocatorIcEEEEblmdS8_NS0_14adl_serializerENS4_IhNS8_IhEEEEvEE
0000000000296e78 T _Z32common_chat_msgs_parse_oaicompatRKN8nlohmann16json_abi_v3_12_010basic_jsonINS0_11ordered_mapENSt6__ndk16vectorENS3_12basic_stringIcNS3_11char_traitsIcEENS3_9allocatorIcEEEEblmdS8_NS0_14adl_serializerENS4_IhNS8_IhEEEEvEE
0000000000205730 T _Z32common_params_add_preset_optionsRNSt6__ndk16vectorI10common_argNS_9allocatorIS1_EEEE
000000000037e6b0 T _Z32common_speculative_all_types_strv
000000000037df68 T _Z32common_speculative_type_name_strRKNSt6__ndk16vectorI23common_speculative_typeNS_9allocatorIS1_EEEE
00000000002d7674 T _Z32fs_create_directory_with_parentsRKNSt6__ndk112basic_stringIcNS_11char_traitsIcEENS_9allocatorIcEEEE
000000000037ed20 T _Z33common_base_params_to_speculativeRK13common_params
000000000029ead0 T _Z33common_chat_template_direct_applyRK20common_chat_templateRKN10autoparser17generation_paramsE
000000000029b4c8 T _Z33common_chat_tools_parse_oaicompatRKN8nlohmann16json_abi_v3_12_010basic_jsonINS0_11ordered_mapENSt6__ndk16vectorENS3_12basic_stringIcNS3_11char_traitsIcEENS3_9allocatorIcEEEEblmdS8_NS0_14adl_serializerENS4_IhNS8_IhEEEEvEE
00000000002d32d4 T _Z33common_cpu_get_num_physical_coresv
000000000033f858 T _Z33common_peg_parse_result_type_name28common_peg_parse_result_type
0000000000374fcc T _Z33common_reasoning_budget_get_statePK13llama_sampler
000000000029e81c T _Z33common_reasoning_format_from_nameRKNSt6__ndk112basic_stringIcNS_11char_traitsIcEENS_9allocatorIcEEEE
000000000037ec18 T _Z33common_speculative_type_from_nameRKNSt6__ndk112basic_stringIcNS_11char_traitsIcEENS_9allocatorIcEEEE
000000000029a7e0 T _Z34common_chat_msgs_to_json_oaicompatRKNSt6__ndk16vectorI15common_chat_msgNS_9allocatorIS1_EEEEb
000000000029e07c T _Z34common_chat_templates_was_explicitPK21common_chat_templates
0000000000378a54 T _Z34common_sampler_sample_and_accept_nP14common_samplerP13llama_contextRKNSt6__ndk16vectorIiNS3_9allocatorIiEEEES9_b
0000000000378dc0 T _Z34common_sampler_sample_and_accept_nP14common_samplerP13llama_contextRKNSt6__ndk16vectorIiNS3_9allocatorIiEEEEb
0000000000381714 T _Z34common_speculative_need_embd_nextnP18common_speculative
000000000029add8 T _Z35common_chat_tools_to_json_oaicompatRKNSt6__ndk16vectorI16common_chat_toolNS_9allocatorIS1_EEEE
00000000003814d8 T _Z35common_speculative_get_draft_paramsP18common_speculativei
000000000037f2fc T _Z35common_speculative_init_from_paramsR13common_paramsP11llama_modelP13llama_context
000000000037e8f4 T _Z35common_speculative_types_from_namesRKNSt6__ndk16vectorINS_12basic_stringIcNS_11char_traitsIcEENS_9allocatorIcEEEENS4_IS6_EEEE
00000000002a03ac T _Z36common_chat_try_specialized_templateRK20common_chat_templateRKNSt6__ndk112basic_stringIcNS2_11char_traitsIcEENS2_9allocatorIcEEEERN10autoparser17generation_paramsE
00000000001c967c T _Z36common_models_handler_is_preset_repoRK21common_models_handler
0000000000378fac T _Z37common_sampler_reasoning_budget_forceP14common_sampler
000000000029ff54 T _Z38common_chat_template_generation_promptRK20common_chat_templateRKN10autoparser17generation_paramsE
00000000002dbd08 T _Z38ggml_threadpool_params_from_cpu_paramsRK17common_cpu_params
0000000000295b80 T _Z39common_chat_tool_choice_parse_oaicompatRKNSt6__ndk112basic_stringIcNS_11char_traitsIcEENS_9allocatorIcEEEE
0000000000295dd4 T _Z45common_chat_templates_support_enable_thinkingPK21common_chat_templates
00000000002d8224 T _Z7fs_listRKNSt6__ndk112basic_stringIcNS_11char_traitsIcEENS_9allocatorIcEEEEb
00000000005be258 V _ZGVN11ProgressBar5linesE
00000000005be238 V _ZGVN11ProgressBar5mutexE
00000000005d5ae8 V _ZGVZN23common_schema_converter12_resolve_refERKNSt6__ndk112basic_stringIcNS0_11char_traitsIcEENS0_9allocatorIcEEEEE21nonalphanumeric_regex
00000000005d5e40 V _ZGVZNK5jinja6parser4peekEmE9end_token
0000000000253930 T _ZN10autoparser10autoparser16analyze_templateERK20common_chat_template
00000000002575c8 T _ZN10autoparser10autoparser24collect_preserved_tokensEv
0000000000255e5c T _ZN10autoparser10autoparser24detect_user_start_markerERK20common_chat_template
0000000000254e14 T _ZN10autoparser10autoparser29detect_assistant_start_markerERK20common_chat_template
0000000000242790 W _ZN10autoparser10autoparserC2Ev
000000000024346c W _ZN10autoparser10autoparserD2Ev
00000000002608ec T _ZN10autoparser13analyze_tools17analyze_argumentsEv
000000000025cff4 T _ZN10autoparser13analyze_tools18analyze_tool_callsERKNS_17analyze_reasoningEb
0000000000261310 T _ZN10autoparser13analyze_tools20extract_args_markersEv
000000000025d93c T _ZN10autoparser13analyze_tools22check_per_call_markersEv
00000000002629f4 T _ZN10autoparser13analyze_tools23extract_call_id_markersEv
0000000000264478 T _ZN10autoparser13analyze_tools24analyze_tool_call_formatERKNSt6__ndk112basic_stringIcNS1_11char_traitsIcEENS1_9allocatorIcEEEES9_S9_RKNS_17analyze_reasoningEb
000000000025e590 T _ZN10autoparser13analyze_tools24extract_function_markersEv
0000000000260910 T _ZN10autoparser13analyze_tools26extract_argument_separatorEv
0000000000269738 T _ZN10autoparser13analyze_tools29extract_argument_name_markersEv
000000000026af80 T _ZN10autoparser13analyze_tools30extract_argument_value_markersEv
00000000002675e8 T _ZN10autoparser13analyze_tools33analyze_tool_call_format_non_jsonERKNSt6__ndk112basic_stringIcNS1_11char_traitsIcEENS1_9allocatorIcEEEES9_
0000000000266afc T _ZN10autoparser13analyze_tools34analyze_json_native_parallel_callsEv
0000000000264df8 T _ZN10autoparser13analyze_tools36analyze_tool_call_format_json_nativeERKNSt6__ndk112basic_stringIcNS1_11char_traitsIcEENS1_9allocatorIcEEEES9_S9_
000000000025ce60 T _ZN10autoparser13analyze_toolsC1ERK20common_chat_templateRKN5jinja4capsERKNS_17analyze_reasoningE
000000000025ce60 T _ZN10autoparser13analyze_toolsC2ERK20common_chat_templateRKN5jinja4capsERKNS_17analyze_reasoningE
0000000000247718 W _ZN10autoparser13analyze_toolsD0Ev
0000000000247610 W _ZN10autoparser13analyze_toolsD2Ev
0000000000254c9c W _ZN10autoparser13analyze_toolsaSEOS0_
00000000002426e0 T _ZN10autoparser13peg_generator15generate_parserERK20common_chat_templateRKNS_17generation_paramsE
00000000002428e8 T _ZN10autoparser13peg_generator15generate_parserERK20common_chat_templateRKNS_17generation_paramsERKNS_10autoparserE
0000000000251e48 T _ZN10autoparser14apply_templateERK20common_chat_templateRK15template_params
000000000025b438 T _ZN10autoparser15analyze_contentC1ERK20common_chat_templateRKNS_17analyze_reasoningE
000000000025b438 T _ZN10autoparser15analyze_contentC2ERK20common_chat_templateRKNS_17analyze_reasoningE
0000000000247590 W _ZN10autoparser15analyze_contentD0Ev
000000000024752c W _ZN10autoparser15analyze_contentD2Ev
0000000000252308 T _ZN10autoparser16compare_variantsERK20common_chat_templateRK15template_paramsRKNSt6__ndk18functionIFvRS3_EEE
0000000000264388 W _ZN10autoparser16tool_id_analysisD2Ev
0000000000259d18 T _ZN10autoparser17analyze_reasoning23compare_reasoning_scopeEv
0000000000258fac T _ZN10autoparser17analyze_reasoning24compare_thinking_enabledEv
0000000000257bc0 T _ZN10autoparser17analyze_reasoning26compare_reasoning_presenceEv
0000000000257ac8 T _ZN10autoparser17analyze_reasoningC1ERK20common_chat_templateb
0000000000257ac8 T _ZN10autoparser17analyze_reasoningC2ERK20common_chat_templateb
00000000002474ac W _ZN10autoparser17analyze_reasoningD0Ev
0000000000247448 W _ZN10autoparser17analyze_reasoningD2Ev
00000000002b5f94 W _ZN10autoparser17generation_paramsC2ERKS0_
000000000025228c W _ZN10autoparser17generation_paramsD2Ev
00000000002425c4 T _ZN10autoparser20parser_build_contextC1ER23common_chat_peg_builderRKNS_17generation_paramsE
00000000002425c4 T _ZN10autoparser20parser_build_contextC2ER23common_chat_peg_builderRKNS_17generation_paramsE
0000000000247b88 W _ZN10autoparser20tool_format_analysisC2Ev
0000000000249a5c W _ZN10autoparser20tool_format_analysisD2Ev
000000000026caf0 W _ZN10autoparser20tool_format_analysisaSEOS0_
00000000002643dc W _ZN10autoparser22tool_function_analysisD2Ev
0000000000249960 W _ZN10autoparser23tool_arguments_analysisD2Ev
000000000026cd70 W _ZN10autoparser23tool_arguments_analysisaSEOS0_
00000000001c6824 T _ZN10common_arg10in_exampleE13llama_example
00000000001c686c T _ZN10common_arg10is_excludeE13llama_example
00000000001c6520 T _ZN10common_arg12set_examplesESt16initializer_listI13llama_exampleE
00000000001c6548 T _ZN10common_arg12set_excludesESt16initializer_listI13llama_exampleE
00000000001c6800 T _ZN10common_arg12set_samplingEv
00000000001c6818 T _ZN10common_arg15set_preset_onlyEv
00000000001c6574 T _ZN10common_arg7set_envEPKc
00000000001c680c T _ZN10common_arg8set_specEv
00000000001fca48 W _ZN10common_argC2ERKS_
00000000002049bc W _ZN10common_argC2ERKSt16initializer_listIPKcERKNSt6__ndk112basic_stringIcNS6_11char_traitsIcEENS6_9allocatorIcEEEEPFvR13common_paramsE
0000000000204b88 W _ZN10common_argC2ERKSt16initializer_listIPKcES2_RKNSt6__ndk112basic_stringIcNS6_11char_traitsIcEENS6_9allocatorIcEEEEPFvR13common_paramsSE_E
0000000000204f90 W _ZN10common_argC2ERKSt16initializer_listIPKcES2_RKNSt6__ndk112basic_stringIcNS6_11char_traitsIcEENS6_9allocatorIcEEEEPFvR13common_paramsiE
00000000002052f8 W _ZN10common_argC2ERKSt16initializer_listIPKcES2_S2_RKNSt6__ndk112basic_stringIcNS6_11char_traitsIcEENS6_9allocatorIcEEEEPFvR13common_paramsSE_SE_E
0000000000204d58 W _ZN10common_argC2ERKSt16initializer_listIPKcES5_RKNSt6__ndk112basic_stringIcNS6_11char_traitsIcEENS6_9allocatorIcEEEEPFvR13common_paramsbE
00000000001fcc5c W _ZN10common_argD2Ev
0000000000338ef8 W _ZN10common_log10set_colorsEb
0000000000338a00 W _ZN10common_log3addE14ggml_log_levelPKcSt9__va_list
0000000000338cf0 W _ZN10common_log8set_fileEPKc
000000000033840c W _ZN10common_logC2Em
0000000000338840 W _ZN10common_logD2Ev
000000000026951c W _ZN10diff_splitC2ERKS_
0000000000251474 W _ZN10diff_splitD2Ev
00000000002c4a54 W _ZN10workaround25gemma4_model_turn_builder11has_contentERKN8nlohmann16json_abi_v3_12_010basic_jsonINS2_11ordered_mapENSt6__ndk16vectorENS5_12basic_stringIcNS5_11char_traitsIcEENS5_9allocatorIcEEEEblmdSA_NS2_14adl_serializerENS6_IhNSA_IhEEEEvEE
00000000002c4150 W _ZN10workaround25gemma4_model_turn_builder14collect_resultERKN8nlohmann16json_abi_v3_12_010basic_jsonINS2_11ordered_mapENSt6__ndk16vectorENS5_12basic_stringIcNS5_11char_traitsIcEENS5_9allocatorIcEEEEblmdSA_NS2_14adl_serializerENS6_IhNSA_IhEEEEvEE
00000000002c48f4 W _ZN10workaround25gemma4_model_turn_builder14has_tool_callsERKN8nlohmann16json_abi_v3_12_010basic_jsonINS2_11ordered_mapENSt6__ndk16vectorENS5_12basic_stringIcNS5_11char_traitsIcEENS5_9allocatorIcEEEEblmdSA_NS2_14adl_serializerENS6_IhNSA_IhEEEEvEE
00000000002c3640 W _ZN10workaround25gemma4_model_turn_builder5buildEv
00000000002c3bcc W _ZN10workaround25gemma4_model_turn_builder7collectEv
00000000002c3a04 W _ZN10workaround25gemma4_model_turn_builderD2Ev
0000000000320938 W _ZN11BuiltinRuleD2Ev
00000000005be240 V _ZN11ProgressBar5linesE
00000000005be210 V _ZN11ProgressBar5mutexE
00000000002f3628 W _ZN11ProgressBar7on_doneERK24common_download_progressb
00000000005be260 V _ZN11ProgressBar8max_lineE
00000000002f2e2c W _ZN11ProgressBar8on_startERK24common_download_progress
00000000002f3110 W _ZN11ProgressBar9on_updateERK24common_download_progress
00000000002f2ddc W _ZN11ProgressBarD0Ev
00000000002ec768 W _ZN11ProgressBarD2Ev
0000000000374344 W _ZN11local_modelC2ERKS_
000000000037014c W _ZN11local_modelD2Ev
0000000000362e8c W _ZN12aho_corasickC2ERKNSt6__ndk16vectorINS0_12basic_stringIcNS0_11char_traitsIcEENS0_9allocatorIcEEEENS5_IS7_EEEE
0000000000363c38 W _ZN12aho_corasickD2Ev
00000000001ff264 W _ZN13common_paramsC2ERKS_
00000000001ce240 W _ZN13common_paramsC2Ev
00000000001fcdcc W _ZN13common_paramsD2Ev
0000000000200b24 W _ZN13common_paramsaSERKS_
000000000036b254 T _ZN13common_preset10set_optionERK21common_preset_contextRKNSt6__ndk112basic_stringIcNS3_11char_traitsIcEENS3_9allocatorIcEEEESB_
000000000036b5b0 T _ZN13common_preset12unset_optionERKNSt6__ndk112basic_stringIcNS0_11char_traitsIcEENS0_9allocatorIcEEEE
000000000036b7fc T _ZN13common_preset5mergeERKS_
000000000036edfc W _ZN13common_presetD2Ev
00000000003785e8 W _ZN14common_sampler10set_logitsEP13llama_contexti
0000000000295f6c W _ZN15common_chat_msgC2ERKS_
0000000000252920 W _ZN15common_chat_msgD2Ev
00000000002f2afc W _ZN15common_http_urlD2Ev
00000000002eec04 W _ZN15gguf_split_infoD2Ev
000000000034da54 W _ZN15parser_executor21handle_unicode_escapeER24common_peg_parse_contextmRm
000000000034d970 W _ZN15parser_executor22handle_escape_sequenceER24common_peg_parse_contextmRmc
000000000034d36c W _ZN15parser_executorclERK21common_peg_and_parser
000000000034d484 W _ZN15parser_executorclERK21common_peg_not_parser
000000000034edd8 W _ZN15parser_executorclERK21common_peg_tag_parser
000000000034e468 W _ZN15parser_executorclERK22common_peg_rule_parser
000000000034bf38 W _ZN15parser_executorclERK24common_peg_choice_parser
000000000034d7c0 W _ZN15parser_executorclERK24common_peg_string_parser
000000000034ae3c W _ZN15parser_executorclERK26common_peg_sequence_parser
000000000034c6d0 W _ZN15parser_executorclERK28common_peg_repetition_parser
00000000002528c8 W _ZN15template_paramsD2Ev
00000000002046f0 T _ZN16common_arg_utils8is_autoyERKNSt6__ndk112basic_stringIcNS0_11char_traitsIcEENS0_9allocatorIcEEEE
0000000000204558 T _ZN16common_arg_utils9is_falseyERKNSt6__ndk112basic_stringIcNS0_11char_traitsIcEENS0_9allocatorIcEEEE
00000000002043c0 T _ZN16common_arg_utils9is_truthyERKNSt6__ndk112basic_stringIcNS0_11char_traitsIcEENS0_9allocatorIcEEEE
000000000029c3e4 W _ZN16common_chat_toolD2Ev
00000000002d89bc W _ZN16common_file_infoD2Ev
000000000038da08 W _ZN16common_ngram_mapC2ERKS_
00000000003811dc W _ZN16common_ngram_mapD2Ev
000000000033f754 T _ZN16common_ngram_mod3addEPKi
000000000033f6b8 T _ZN16common_ngram_mod5resetEv
000000000033f61c T _ZN16common_ngram_modC1Etm
000000000033f61c T _ZN16common_ngram_modC2Etm
000000000033fcbc T _ZN16common_peg_arena10add_parserENSt6__ndk17variantIJ25common_peg_epsilon_parser23common_peg_start_parser21common_peg_end_parser25common_peg_literal_parser26common_peg_sequence_parser24common_peg_choice_parser28common_peg_repetition_parser21common_peg_and_parser21common_peg_not_parser21common_peg_any_parser23common_peg_space_parser23common_peg_chars_parser24common_peg_string_parser23common_peg_until_parser24common_peg_schema_parser22common_peg_rule_parser21common_peg_ref_parser24common_peg_atomic_parser21common_peg_tag_parser22common_peg_gbnf_parser20common_peg_ac_parserEEE
000000000034010c T _ZN16common_peg_arena11resolve_refEm
000000000034046c T _ZN16common_peg_arena12resolve_refsEv
000000000034a154 T _ZN16common_peg_arena4loadERKNSt6__ndk112basic_stringIcNS0_11char_traitsIcEENS0_9allocatorIcEEEE
000000000033fd88 T _ZN16common_peg_arena8add_ruleERKNSt6__ndk112basic_stringIcNS0_11char_traitsIcEENS0_9allocatorIcEEEEm
0000000000346fa4 T _ZN16common_peg_arena9from_jsonERKN8nlohmann16json_abi_v3_12_010basic_jsonINSt6__ndk13mapENS3_6vectorENS3_12basic_stringIcNS3_11char_traitsIcEENS3_9allocatorIcEEEEblmdS9_NS1_14adl_serializerENS5_IhNS9_IhEEEEvEE
00000000002437e0 W _ZN16common_peg_arenaD2Ev
00000000002d3254 T _ZN16common_time_measC1ERlb
00000000002d3254 T _ZN16common_time_measC2ERlb
00000000002d3294 T _ZN16common_time_measD1Ev
00000000002d3294 T _ZN16common_time_measD2Ev
00000000003407f4 T _ZN17common_peg_parseraSERKS_
0000000000340c40 T _ZN17common_peg_parseroRERKS_
0000000000340800 T _ZN17common_peg_parserpLERKS_
00000000002cc844 W _ZN18common_chat_paramsC2ERKS_
0000000000243904 W _ZN18common_chat_paramsD2Ev
00000000002da21c T _ZN18common_init_result14reset_samplersEv
00000000002ddfdc W _ZN18common_init_result4implD2Ev
00000000002da27c T _ZN18common_init_result4loraEv
00000000002da1d8 T _ZN18common_init_result5modelEv
00000000002da1e4 T _ZN18common_init_result7contextEv
00000000002da1f0 T _ZN18common_init_result7samplerEi
00000000002d8b70 T _ZN18common_init_resultC1ER13common_paramsb
00000000002d8b70 T _ZN18common_init_resultC2ER13common_paramsb
00000000002db810 T _ZN18common_init_resultD1Ev
00000000002db810 T _ZN18common_init_resultD2Ev
00000000003210a4 T _ZN18common_schema_info12resolve_refsERN8nlohmann16json_abi_v3_12_010basic_jsonINS1_11ordered_mapENSt6__ndk16vectorENS4_12basic_stringIcNS4_11char_traitsIcEENS4_9allocatorIcEEEEblmdS9_NS1_14adl_serializerENS5_IhNS9_IhEEEEvEE
0000000000321384 T _ZN18common_schema_info18resolves_to_stringERKN8nlohmann16json_abi_v3_12_010basic_jsonINS1_11ordered_mapENSt6__ndk16vectorENS4_12basic_stringIcNS4_11char_traitsIcEENS4_9allocatorIcEEEEblmdS9_NS1_14adl_serializerENS5_IhNS9_IhEEEEvEE
000000000032104c T _ZN18common_schema_infoC1EOS_
0000000000320f14 T _ZN18common_schema_infoC1Ev
000000000032104c T _ZN18common_schema_infoC2EOS_
0000000000320f14 T _ZN18common_schema_infoC2Ev
000000000032100c T _ZN18common_schema_infoD1Ev
000000000032100c T _ZN18common_schema_infoD2Ev
000000000032105c T _ZN18common_schema_infoaSEOS_
00000000002098d4 W _ZN19common_params_modelC2ERKS_
000000000020807c W _ZN19common_params_modelC2Ev
00000000002083b0 W _ZN19common_params_modelD2Ev
000000000024097c W _ZN19common_params_modelaSEOS_
000000000034e9ac W _ZN19common_peg_ast_nodeD2Ev
000000000025b384 W _ZN19tagged_parse_resultD2Ev
00000000002946a4 T _ZN20common_chat_msg_diff13compute_diffsERK15common_chat_msgS2_
00000000002cf604 W _ZN20common_chat_msg_diffD2Ev
00000000002d1184 W _ZN20common_chat_templateC2ERKNSt6__ndk112basic_stringIcNS0_11char_traitsIcEENS0_9allocatorIcEEEES8_S8_
00000000002d0c90 W _ZN20common_chat_templateD2Ev
00000000001c9448 W _ZN20common_download_optsC2ERKS_
00000000001c95b0 W _ZN20common_download_optsD2Ev
00000000002076b8 W _ZN20common_download_taskC2EN8hf_cache7hf_fileERK20common_download_optsNSt6__ndk18functionIFvvEEE
000000000023f894 W _ZN20common_download_taskC2ERKS_
00000000001ccd3c W _ZN20common_download_taskD2Ev
0000000000345bfc W _ZN20common_peg_ac_parserD2Ev
0000000000340168 T _ZN20common_peg_ast_arena4dumpEv
000000000034e728 W _ZN20common_peg_ast_arena8add_nodeERKNSt6__ndk112basic_stringIcNS0_11char_traitsIcEENS0_9allocatorIcEEEES8_mmNS0_17basic_string_viewIcS3_EENS0_6vectorImNS4_ImEEEEb
00000000002f1038 W _ZN20common_remote_paramsD2Ev
000000000027f4a4 T _ZN20tag_based_peg_mapper8from_astERK20common_peg_ast_arenaRK23common_peg_parse_result
000000000028c404 W _ZN21common_chat_tool_callC2ERKS_
00000000002819b0 W _ZN21common_chat_tool_callD2Ev
000000000020b500 W _ZN21common_models_handlerD2Ev
00000000001fcd58 W _ZN21common_params_contextD2Ev
00000000002084f4 W _ZN21common_params_vocoderD2Ev
000000000036bbe0 T _ZN21common_preset_contextC1E13llama_example
000000000036bbe0 T _ZN21common_preset_contextC2E13llama_example
000000000027ff48 T _ZN22common_chat_peg_mapper11args_targetEv
000000000027ff78 T _ZN22common_chat_peg_mapper25normalize_container_valueERKNSt6__ndk112basic_stringIcNS0_11char_traitsIcEENS0_9allocatorIcEEEE
0000000000280624 T _ZN22common_chat_peg_mapper3mapERK19common_peg_ast_node
0000000000280358 T _ZN22common_chat_peg_mapper8from_astERK20common_peg_ast_arenaRK23common_peg_parse_result
000000000028bbc4 W _ZN22common_chat_peg_mapperD0Ev
000000000028bbec W _ZN22common_chat_peg_mapperD2Ev
0000000000321ee8 W _ZN22common_grammar_builderD2Ev
00000000002092e4 W _ZN22common_params_samplingC2ERKS_
0000000000207b58 W _ZN22common_params_samplingC2Ev
00000000002085e8 W _ZN22common_params_samplingD2Ev
000000000020c854 W _ZN22common_params_samplingaSERKS_
0000000000246e0c W _ZN23common_chat_peg_builder10tool_closeERK17common_peg_parser
000000000024e228 W _ZN23common_chat_peg_builder13tool_arg_nameERK17common_peg_parser
000000000024e0c8 W _ZN23common_chat_peg_builder13tool_arg_openERK17common_peg_parser
000000000024e6bc W _ZN23common_chat_peg_builder14tool_arg_closeERK17common_peg_parser
000000000028a5e8 T _ZN23common_chat_peg_builder19standard_json_toolsERKNSt6__ndk112basic_stringIcNS0_11char_traitsIcEENS0_9allocatorIcEEEES8_RKN8nlohmann16json_abi_v3_12_010basic_jsonINSA_11ordered_mapENS0_6vectorES6_blmdS4_NSA_14adl_serializerENSD_IhNS4_IhEEEEvEEbbS8_S8_bbS8_S8_RKNSD_IS6_NS4_IS6_EEEEb
000000000024e81c W _ZN23common_chat_peg_builder19tool_arg_json_valueERK17common_peg_parser
0000000000283624 T _ZN23common_chat_peg_builder20python_or_json_valueEv
000000000027fce4 T _ZN23common_chat_peg_builder21tag_with_safe_contentERKNSt6__ndk112basic_stringIcNS0_11char_traitsIcEENS0_9allocatorIcEEEES8_RK17common_peg_parser
000000000024e56c W _ZN23common_chat_peg_builder21tool_arg_string_valueERK17common_peg_parser
0000000000283768 T _ZN23common_chat_peg_builder23python_style_tool_callsERKN8nlohmann16json_abi_v3_12_010basic_jsonINS1_11ordered_mapENSt6__ndk16vectorENS4_12basic_stringIcNS4_11char_traitsIcEENS4_9allocatorIcEEEEblmdS9_NS1_14adl_serializerENS5_IhNS9_IhEEEEvEEbb
00000000002883f0 T _ZN23common_chat_peg_builder26build_json_tools_flat_keysERKN8nlohmann16json_abi_v3_12_010basic_jsonINS1_11ordered_mapENSt6__ndk16vectorENS4_12basic_stringIcNS4_11char_traitsIcEENS4_9allocatorIcEEEEblmdS9_NS1_14adl_serializerENS5_IhNS9_IhEEEEvEERKSB_SJ_SJ_SJ_RKNS5_ISB_NS9_ISB_EEEEb
0000000000281c54 T _ZN23common_chat_peg_builder26standard_constructed_toolsERKNSt6__ndk13mapINS0_12basic_stringIcNS0_11char_traitsIcEENS0_9allocatorIcEEEES7_NS0_4lessIS7_EENS5_INS0_4pairIKS7_S7_EEEEEERKN8nlohmann16json_abi_v3_12_010basic_jsonINSI_11ordered_mapENS0_6vectorES7_blmdS5_NSI_14adl_serializerENSL_IhNS5_IhEEEEvEEbb
0000000000286564 T _ZN23common_chat_peg_builder28build_json_tools_nested_keysERKN8nlohmann16json_abi_v3_12_010basic_jsonINS1_11ordered_mapENSt6__ndk16vectorENS4_12basic_stringIcNS4_11char_traitsIcEENS4_9allocatorIcEEEEblmdS9_NS1_14adl_serializerENS5_IhNS9_IhEEEEvEERKSB_SJ_SJ_SJ_
0000000000284bcc T _ZN23common_chat_peg_builder32build_json_tools_function_is_keyERKN8nlohmann16json_abi_v3_12_010basic_jsonINS1_11ordered_mapENSt6__ndk16vectorENS4_12basic_stringIcNS4_11char_traitsIcEENS4_9allocatorIcEEEEblmdS9_NS1_14adl_serializerENS5_IhNS9_IhEEEEvEERKSB_SJ_SJ_SJ_
00000000002bb394 W _ZN23common_chat_peg_builder4toolERK17common_peg_parser
0000000000289fcc T _ZN23common_chat_peg_builder6prefixERKNSt6__ndk112basic_stringIcNS0_11char_traitsIcEENS0_9allocatorIcEEEES8_
00000000002443a0 W _ZN23common_chat_peg_builder7contentERK17common_peg_parser
000000000024c33c W _ZN23common_chat_peg_builder7tool_idERK17common_peg_parser
000000000028a230 T _ZN23common_chat_peg_builder8optspaceERKNSt6__ndk112basic_stringIcNS0_11char_traitsIcEENS0_9allocatorIcEEEE
000000000024df78 W _ZN23common_chat_peg_builder8tool_argERK17common_peg_parser
0000000000243d70 W _ZN23common_chat_peg_builder9reasoningERK17common_peg_parser
000000000024c49c W _ZN23common_chat_peg_builder9tool_argsERK17common_peg_parser
0000000000246a14 W _ZN23common_chat_peg_builder9tool_nameERK17common_peg_parser
00000000002468b4 W _ZN23common_chat_peg_builder9tool_openERK17common_peg_parser
00000000001c9328 W _ZN23common_download_hf_planC2ERKS_
00000000001c9298 W _ZN23common_download_hf_planD2Ev
00000000001c91c0 W _ZN23common_download_hf_planaSEOS_
00000000002b7ef8 W _ZN23common_peg_chars_parserC2ERKS_
0000000000343070 W _ZN23common_peg_chars_parserD2Ev
0000000000247a88 W _ZN23common_peg_until_parserD2Ev
0000000000330bf8 W _ZN23common_schema_converter12_not_stringsERKNSt6__ndk16vectorINS0_12basic_stringIcNS0_11char_traitsIcEENS0_9allocatorIcEEEENS5_IS7_EEEE
000000000032ae60 W _ZN23common_schema_converter12_resolve_refERKNSt6__ndk112basic_stringIcNS0_11char_traitsIcEENS0_9allocatorIcEEEE
0000000000321a14 W _ZN23common_schema_converter12check_errorsEv
000000000032128c W _ZN23common_schema_converter12resolve_refsERN8nlohmann16json_abi_v3_12_010basic_jsonINS1_11ordered_mapENSt6__ndk16vectorENS4_12basic_stringIcNS4_11char_traitsIcEENS4_9allocatorIcEEEEblmdS9_NS1_14adl_serializerENS5_IhNS9_IhEEEEvEERKSB_
000000000032f070 W _ZN23common_schema_converter14_add_primitiveERKNSt6__ndk112basic_stringIcNS0_11char_traitsIcEENS0_9allocatorIcEEEERK11BuiltinRule
000000000032e99c W _ZN23common_schema_converter14_visit_patternERKNSt6__ndk112basic_stringIcNS0_11char_traitsIcEENS0_9allocatorIcEEEES8_
0000000000321d00 W _ZN23common_schema_converter14format_grammarEv
000000000032bdfc W _ZN23common_schema_converter18_build_object_ruleERKNSt6__ndk16vectorINS0_4pairINS0_12basic_stringIcNS0_11char_traitsIcEENS0_9allocatorIcEEEEN8nlohmann16json_abi_v3_12_010basic_jsonINSA_11ordered_mapES1_S8_blmdS6_NSA_14adl_serializerENS1_IhNS6_IhEEEEvEEEENS6_ISH_EEEERKNS0_13unordered_setIS8_NS0_4hashIS8_EENS0_8equal_toIS8_EENS6_IS8_EEEERKS8_RKSG_
000000000032b2ac W _ZN23common_schema_converter20_generate_union_ruleERKNSt6__ndk112basic_stringIcNS0_11char_traitsIcEENS0_9allocatorIcEEEERKNS0_6vectorIN8nlohmann16json_abi_v3_12_010basic_jsonINSB_11ordered_mapES9_S6_blmdS4_NSB_14adl_serializerENS9_IhNS4_IhEEEEvEENS4_ISH_EEEE
0000000000327a60 W _ZN23common_schema_converter5visitERKN8nlohmann16json_abi_v3_12_010basic_jsonINS1_11ordered_mapENSt6__ndk16vectorENS4_12basic_stringIcNS4_11char_traitsIcEENS4_9allocatorIcEEEEblmdS9_NS1_14adl_serializerENS5_IhNS9_IhEEEEvEERKSB_
0000000000327190 W _ZN23common_schema_converter9_add_ruleERKNSt6__ndk112basic_stringIcNS0_11char_traitsIcEENS0_9allocatorIcEEEES8_
00000000003217b0 W _ZN23common_schema_converterC2ERKNSt6__ndk18functionIFN8nlohmann16json_abi_v3_12_010basic_jsonINS3_11ordered_mapENS0_6vectorENS0_12basic_stringIcNS0_11char_traitsIcEENS0_9allocatorIcEEEEblmdSA_NS3_14adl_serializerENS6_IhNSA_IhEEEEvEERKSC_EEEb
0000000000321f9c W _ZN23common_schema_converterD2Ev
0000000000383328 W _ZN23common_speculative_impl9set_stateEiRKNSt6__ndk16vectorIhNS0_9allocatorIhEEEE
000000000038333c W _ZN23common_speculative_implD0Ev
000000000038cf38 W _ZN23common_speculative_implD2Ev
00000000002527ec W _ZN23compare_variants_resultD2Ev
000000000026cef0 W _ZN23compare_variants_resultaSEOS_
000000000020aad8 W _ZN24common_adapter_lora_infoC2ERKS_
0000000000208bd4 W _ZN24common_adapter_lora_infoD2Ev
00000000002f17a0 W _ZN24common_cached_model_infoD2Ev
000000000027f7fc W _ZN24common_peg_parse_contextD2Ev
0000000000343358 W _ZN24common_peg_schema_parserD2Ev
00000000002dcfb4 T _ZN24common_prompt_checkpoint10update_dftEP13llama_contextij
00000000002dce38 T _ZN24common_prompt_checkpoint10update_posElii
00000000002dce44 T _ZN24common_prompt_checkpoint10update_tgtEP13llama_contextij
00000000002dce14 T _ZN24common_prompt_checkpoint5clearEv
00000000002dd210 T _ZN24common_prompt_checkpoint9clear_dftEv
00000000002dd204 T _ZN24common_prompt_checkpoint9clear_tgtEv
00000000002b8d84 W _ZN25common_chat_msg_delimiterC2ERKS_
0000000000292cbc W _ZN25common_chat_msg_delimiterD2Ev
000000000029e2a4 W _ZN25common_chat_prompt_presetD2Ev
00000000002e24b8 T _ZN25common_debug_cb_user_dataC1ER13common_paramsRKNSt6__ndk16vectorINS2_12basic_stringIcNS2_11char_traitsIcEENS2_9allocatorIcEEEENS7_IS9_EEEEb
00000000002e246c T _ZN25common_debug_cb_user_dataC1Ev
00000000002e24b8 T _ZN25common_debug_cb_user_dataC2ER13common_paramsRKNSt6__ndk16vectorINS2_12basic_stringIcNS2_11char_traitsIcEENS2_9allocatorIcEEEENS7_IS9_EEEEb
00000000002e246c T _ZN25common_debug_cb_user_dataC2Ev
00000000002e24a4 T _ZN25common_debug_cb_user_dataD1Ev
00000000002e24a4 T _ZN25common_debug_cb_user_dataD2Ev
0000000000209764 W _ZN25common_params_speculativeC2ERKS_
0000000000208530 W _ZN25common_params_speculativeD2Ev
000000000020c9d4 W _ZN25common_params_speculativeaSERKS_
0000000000344870 T _ZN25common_peg_parser_builder10json_arrayEv
000000000034565c T _ZN25common_peg_parser_builder11json_memberERKNSt6__ndk112basic_stringIcNS0_11char_traitsIcEENS0_9allocatorIcEEEERK17common_peg_parser
000000000034422c T _ZN25common_peg_parser_builder11json_numberEv
000000000034472c T _ZN25common_peg_parser_builder11json_objectEv
0000000000344370 T _ZN25common_peg_parser_builder11json_stringEv
0000000000344c34 T _ZN25common_peg_parser_builder11python_boolEv
0000000000344ebc T _ZN25common_peg_parser_builder11python_dictEv
0000000000344d78 T _ZN25common_peg_parser_builder11python_nullEv
0000000000345000 T _ZN25common_peg_parser_builder12python_arrayEv
0000000000345144 T _ZN25common_peg_parser_builder12python_valueEv
0000000000248104 W _ZN25common_peg_parser_builder12until_one_ofERKNSt6__ndk16vectorINS0_12basic_stringIcNS0_11char_traitsIcEENS0_9allocatorIcEEEENS5_IS7_EEEE
0000000000344c30 T _ZN25common_peg_parser_builder13python_numberEv
0000000000344af0 T _ZN25common_peg_parser_builder13python_stringEv
00000000003440ec T _ZN25common_peg_parser_builder13quoted_stringEv
0000000000343d40 T _ZN25common_peg_parser_builder14string_contentEc
0000000000343e64 T _ZN25common_peg_parser_builder20double_quoted_stringEv
0000000000343fa8 T _ZN25common_peg_parser_builder20single_quoted_stringEv
000000000024e388 W _ZN25common_peg_parser_builder2acERK17common_peg_parserRKNSt6__ndk112basic_stringIcNS3_11char_traitsIcEENS3_9allocatorIcEEEE
00000000003458c0 T _ZN25common_peg_parser_builder2acERK17common_peg_parserRKNSt6__ndk16vectorINS3_12basic_stringIcNS3_11char_traitsIcEENS3_9allocatorIcEEEENS8_ISA_EEEE
0000000000345a8c W _ZN25common_peg_parser_builder3addERKNSt6__ndk17variantIJ25common_peg_epsilon_parser23common_peg_start_parser21common_peg_end_parser25common_peg_literal_parser26common_peg_sequence_parser24common_peg_choice_parser28common_peg_repetition_parser21common_peg_and_parser21common_peg_not_parser21common_peg_any_parser23common_peg_space_parser23common_peg_chars_parser24common_peg_string_parser23common_peg_until_parser24common_peg_schema_parser22common_peg_rule_parser21common_peg_ref_parser24common_peg_atomic_parser21common_peg_tag_parser22common_peg_gbnf_parser20common_peg_ac_parserEEE
000000000026da1c W _ZN25common_peg_parser_builder3anyEv
00000000002444f0 W _ZN25common_peg_parser_builder3endEv
00000000002425f8 W _ZN25common_peg_parser_builder3epsEv
00000000002baa2c W _ZN25common_peg_parser_builder3refERKNSt6__ndk112basic_stringIcNS0_11char_traitsIcEENS0_9allocatorIcEEEE
0000000000247f44 W _ZN25common_peg_parser_builder3tagERKNSt6__ndk112basic_stringIcNS0_11char_traitsIcEENS0_9allocatorIcEEEERK17common_peg_parser
00000000002c819c W _ZN25common_peg_parser_builder4gbnfERK17common_peg_parserRKNSt6__ndk112basic_stringIcNS3_11char_traitsIcEENS3_9allocatorIcEEEE
00000000003449b0 T _ZN25common_peg_parser_builder4jsonEv
0000000000246f6c W _ZN25common_peg_parser_builder4peekERK17common_peg_parser
00000000003433cc T _ZN25common_peg_parser_builder4ruleERKNSt6__ndk112basic_stringIcNS0_11char_traitsIcEENS0_9allocatorIcEEEERK17common_peg_parserb
000000000034373c T _ZN25common_peg_parser_builder4ruleERKNSt6__ndk112basic_stringIcNS0_11char_traitsIcEENS0_9allocatorIcEEEERKNS0_8functionIF17common_peg_parservEEEb
0000000000343b9c T _ZN25common_peg_parser_builder5buildEv
0000000000342780 T _ZN25common_peg_parser_builder5charsERKNSt6__ndk112basic_stringIcNS0_11char_traitsIcEENS0_9allocatorIcEEEEii
00000000002463b0 W _ZN25common_peg_parser_builder5spaceEv
0000000000243ec0 W _ZN25common_peg_parser_builder5untilERKNSt6__ndk112basic_stringIcNS0_11char_traitsIcEENS0_9allocatorIcEEEE
0000000000246d18 W _ZN25common_peg_parser_builder6atomicERK17common_peg_parser
0000000000342304 T _ZN25common_peg_parser_builder6choiceERKNSt6__ndk16vectorI17common_peg_parserNS0_9allocatorIS2_EEEE
0000000000340d08 T _ZN25common_peg_parser_builder6choiceERKNSt6__ndk16vectorImNS0_9allocatorImEEEE
0000000000342550 T _ZN25common_peg_parser_builder6choiceESt16initializer_listI17common_peg_parserE
0000000000247060 W _ZN25common_peg_parser_builder6choiceEv
0000000000345288 T _ZN25common_peg_parser_builder6markerEv
000000000026d928 W _ZN25common_peg_parser_builder6negateERK17common_peg_parser
0000000000247e48 W _ZN25common_peg_parser_builder6repeatERK17common_peg_parserii
00000000003430c4 T _ZN25common_peg_parser_builder6schemaERK17common_peg_parserRKNSt6__ndk112basic_stringIcNS3_11char_traitsIcEENS3_9allocatorIcEEEERKN8nlohmann16json_abi_v3_12_010basic_jsonINSD_11ordered_mapENS3_6vectorES9_blmdS7_NSD_14adl_serializerENSG_IhNS7_IhEEEEvEEb
0000000000246b74 W _ZN25common_peg_parser_builder7literalERKNSt6__ndk112basic_stringIcNS0_11char_traitsIcEENS0_9allocatorIcEEEE
0000000000341e88 T _ZN25common_peg_parser_builder8sequenceERKNSt6__ndk16vectorI17common_peg_parserNS0_9allocatorIS2_EEEE
00000000003408c8 T _ZN25common_peg_parser_builder8sequenceERKNSt6__ndk16vectorImNS0_9allocatorImEEEE
00000000003420d4 T _ZN25common_peg_parser_builder8sequenceESt16initializer_listI17common_peg_parserE
0000000000343b90 T _ZN25common_peg_parser_builder8set_rootERK17common_peg_parser
00000000003444b4 T _ZN25common_peg_parser_builder9json_boolEv
00000000003445f0 T _ZN25common_peg_parser_builder9json_nullEv
0000000000341e64 T _ZN25common_peg_parser_builderC1Ev
0000000000341e64 T _ZN25common_peg_parser_builderC2Ev
00000000002ccba0 W _ZN26common_chat_msg_delimiters3addE16common_chat_roleRKNSt6__ndk112basic_stringIcNS1_11char_traitsIcEENS1_9allocatorIcEEEE
0000000000292db0 T _ZN26common_chat_msg_delimiters8tokenizeEPK11llama_vocab
0000000000292d10 W _ZN26common_chat_msg_delimitersD2Ev
00000000002fe268 W _ZN27common_params_fit_exceptionCI2St13runtime_errorEPKc
00000000002ff310 W _ZN27common_params_fit_exceptionD0Ev
00000000003756dc W _ZN27common_reasoning_budget_ctxC2ERKS_
0000000000299d5c W _ZN28common_chat_msg_content_partD2Ev
0000000000296d8c W _ZN28common_chat_templates_inputsD2Ev
000000000028ad5c T _ZN29common_chat_peg_gemma4_mapper5visitERK20common_peg_ast_arenam
000000000028ad10 T _ZN29common_chat_peg_gemma4_mapper8from_astERK20common_peg_ast_arenaRK23common_peg_parse_result
000000000028bc9c W _ZN29common_chat_peg_gemma4_mapperD0Ev
000000000037f2e4 T _ZN30common_speculative_init_result5modelEv
000000000037f2f0 T _ZN30common_speculative_init_result7contextEv
000000000037ee34 T _ZN30common_speculative_init_resultC1ER13common_paramsP11llama_modelP13llama_context
000000000037ee34 T _ZN30common_speculative_init_resultC2ER13common_paramsP11llama_modelP13llama_context
000000000037f284 T _ZN30common_speculative_init_resultD1Ev
000000000037f284 T _ZN30common_speculative_init_resultD2Ev
000000000020a014 W _ZN31common_params_speculative_draftC2ERKS_
0000000000208c50 W _ZN31common_params_speculative_draftD2Ev
000000000038a228 W _ZN33common_speculative_impl_draft_mtp5beginEiRKNSt6__ndk16vectorIiNS0_9allocatorIiEEEE
000000000038a804 W _ZN33common_speculative_impl_draft_mtp5draftERNSt6__ndk16vectorI31common_speculative_draft_paramsNS0_9allocatorIS2_EEEE
000000000038b3f4 W _ZN33common_speculative_impl_draft_mtp6acceptEitb
000000000038a2c8 W _ZN33common_speculative_impl_draft_mtp7processERK11llama_batch
0000000000389558 W _ZN33common_speculative_impl_draft_mtpC2ERK25common_params_speculativej
000000000038a200 W _ZN33common_speculative_impl_draft_mtpD0Ev
0000000000389e8c W _ZN33common_speculative_impl_draft_mtpD2Ev
000000000038e120 W _ZN33common_speculative_impl_ngram_mod5beginEiRKNSt6__ndk16vectorIiNS0_9allocatorIiEEEE
000000000038e2a0 W _ZN33common_speculative_impl_ngram_mod5draftERNSt6__ndk16vectorI31common_speculative_draft_paramsNS0_9allocatorIS2_EEEE
000000000038e318 W _ZN33common_speculative_impl_ngram_mod6acceptEitb
000000000038e298 W _ZN33common_speculative_impl_ngram_mod7processERK11llama_batch
000000000038e58c W _ZN33common_speculative_impl_ngram_mod9draft_oneEiR31common_speculative_draft_params
000000000038dd54 W _ZN33common_speculative_impl_ngram_modC2ERK25common_params_speculativej
000000000038e094 W _ZN33common_speculative_impl_ngram_modD0Ev
000000000038e008 W _ZN33common_speculative_impl_ngram_modD2Ev
0000000000383298 W _ZN35common_speculative_impl_ngram_cache5beginEiRKNSt6__ndk16vectorIiNS0_9allocatorIiEEEE
00000000003832a4 W _ZN35common_speculative_impl_ngram_cache5draftERNSt6__ndk16vectorI31common_speculative_draft_paramsNS0_9allocatorIS2_EEEE
000000000038331c W _ZN35common_speculative_impl_ngram_cache6acceptEitb
000000000038329c W _ZN35common_speculative_impl_ngram_cache7processERK11llama_batch
000000000038350c W _ZN35common_speculative_impl_ngram_cache8seq_infoC2EOS0_
0000000000383650 W _ZN35common_speculative_impl_ngram_cache8seq_infoD2Ev
0000000000384190 W _ZN35common_speculative_impl_ngram_cache9draft_oneEiR31common_speculative_draft_params
0000000000382c1c W _ZN35common_speculative_impl_ngram_cacheC2ERK25common_params_speculativejtRKNSt6__ndk112basic_stringIcNS3_11char_traitsIcEENS3_9allocatorIcEEEESB_bb
000000000038e874 W _ZN35common_speculative_impl_ngram_cacheC2ERKS_
0000000000383270 W _ZN35common_speculative_impl_ngram_cacheD0Ev
0000000000381230 W _ZN35common_speculative_impl_ngram_cacheD2Ev
000000000038d6dc W _ZN35common_speculative_impl_ngram_map_k5beginEiRKNSt6__ndk16vectorIiNS0_9allocatorIiEEEE
000000000038d730 W _ZN35common_speculative_impl_ngram_map_k5draftERNSt6__ndk16vectorI31common_speculative_draft_paramsNS0_9allocatorIS2_EEEE
000000000038d7c0 W _ZN35common_speculative_impl_ngram_map_k6acceptEitb
000000000038d728 W _ZN35common_speculative_impl_ngram_map_k7processERK11llama_batch
000000000038d0b8 W _ZN35common_speculative_impl_ngram_map_kC2ERK16common_ngram_mapj
000000000038d608 W _ZN35common_speculative_impl_ngram_map_kD0Ev
000000000038d530 W _ZN35common_speculative_impl_ngram_map_kD2Ev
000000000038c05c W _ZN36common_speculative_impl_draft_dflash5beginEiRKNSt6__ndk16vectorIiNS0_9allocatorIiEEEE
000000000038c6c4 W _ZN36common_speculative_impl_draft_dflash5draftERNSt6__ndk16vectorI31common_speculative_draft_paramsNS0_9allocatorIS2_EEEE
000000000038ce24 W _ZN36common_speculative_impl_draft_dflash6acceptEitb
000000000038c0f0 W _ZN36common_speculative_impl_draft_dflash7processERK11llama_batch
000000000038b950 W _ZN36common_speculative_impl_draft_dflashC2ERK25common_params_speculativej
000000000038c034 W _ZN36common_speculative_impl_draft_dflashD0Ev
000000000038bec4 W _ZN36common_speculative_impl_draft_dflashD2Ev
0000000000387e84 W _ZN36common_speculative_impl_draft_eagle35beginEiRKNSt6__ndk16vectorIiNS0_9allocatorIiEEEE
000000000038873c W _ZN36common_speculative_impl_draft_eagle35draftERNSt6__ndk16vectorI31common_speculative_draft_paramsNS0_9allocatorIS2_EEEE
00000000003890e0 W _ZN36common_speculative_impl_draft_eagle36acceptEitb
0000000000387f10 W _ZN36common_speculative_impl_draft_eagle37processERK11llama_batch
00000000003892d8 W _ZN36common_speculative_impl_draft_eagle39set_stateEiRKNSt6__ndk16vectorIhNS0_9allocatorIhEEEE
0000000000386a38 W _ZN36common_speculative_impl_draft_eagle3C2ERK25common_params_speculativej
0000000000387e5c W _ZN36common_speculative_impl_draft_eagle3D0Ev
0000000000387b2c W _ZN36common_speculative_impl_draft_eagle3D2Ev
0000000000386094 W _ZN36common_speculative_impl_draft_simple5beginEiRKNSt6__ndk16vectorIiNS0_9allocatorIiEEEE
0000000000386138 W _ZN36common_speculative_impl_draft_simple5draftERNSt6__ndk16vectorI31common_speculative_draft_paramsNS0_9allocatorIS2_EEEE
0000000000386a04 W _ZN36common_speculative_impl_draft_simple6acceptEitb
0000000000386098 W _ZN36common_speculative_impl_draft_simple7processERK11llama_batch
000000000038540c W _ZN36common_speculative_impl_draft_simpleC2ERK25common_params_speculativej
000000000038606c W _ZN36common_speculative_impl_draft_simpleD0Ev
0000000000385f38 W _ZN36common_speculative_impl_draft_simpleD2Ev
000000000038cfbc W _ZN36common_speculative_impl_ngram_simple5beginEiRKNSt6__ndk16vectorIiNS0_9allocatorIiEEEE
000000000038cfc8 W _ZN36common_speculative_impl_ngram_simple5draftERNSt6__ndk16vectorI31common_speculative_draft_paramsNS0_9allocatorIS2_EEEE
000000000038d0ac W _ZN36common_speculative_impl_ngram_simple6acceptEitb
000000000038cfc0 W _ZN36common_speculative_impl_ngram_simple7processERK11llama_batch
000000000038ce30 W _ZN36common_speculative_impl_ngram_simpleC2ERK25common_params_speculativej26common_ngram_simple_config
000000000038cf6c W _ZN36common_speculative_impl_ngram_simpleD0Ev
0000000000382bc8 W _ZN37common_params_speculative_ngram_cacheD2Ev
000000000034dfec W _ZN4trie6insertERKNSt6__ndk112basic_stringIcNS0_11char_traitsIcEENS0_9allocatorIcEEEE
000000000034df74 W _ZN4trieD2Ev
000000000039f960 T _ZN5jinja10identifier12execute_implERNS_7contextE
00000000003ae320 W _ZN5jinja10identifierD0Ev
00000000003ae2f0 W _ZN5jinja10identifierD2Ev
00000000003c2630 W _ZN5jinja11value_int_tD0Ev
000000000039ebbc T _ZN5jinja12enable_debugEb
00000000003a4d48 T _ZN5jinja12if_statement12execute_implERNS_7contextE
00000000003ac0c4 W _ZN5jinja12if_statement5visitERNS_7contextE
00000000003abfb0 W _ZN5jinja12if_statementD0Ev
00000000003abeb0 W _ZN5jinja12if_statementD2Ev
00000000002d2984 W _ZN5jinja12lexer_resultD2Ev
00000000003c2fbc W _ZN5jinja12value_bool_tD0Ev
00000000003c2f4c W _ZN5jinja12value_bool_tD2Ev
00000000003b239c W _ZN5jinja12value_func_tC2ERKNSt6__ndk112basic_stringIcNS1_11char_traitsIcEENS1_9allocatorIcEEEERKNS1_8functionIFNS1_10shared_ptrINS_7value_tEEERKNS_9func_argsEEEE
00000000003b0cf0 W _ZN5jinja12value_func_tC2ERKNSt6__ndk112basic_stringIcNS1_11char_traitsIcEENS1_9allocatorIcEEEERKNS1_8functionIFNS1_10shared_ptrINS_7value_tEEERKNS_9func_argsEEEERKSD_
00000000003b0f14 W _ZN5jinja12value_func_tD0Ev
00000000003b0e90 W _ZN5jinja12value_func_tD2Ev
00000000003c45c4 W _ZN5jinja12value_none_tD0Ev
000000000039e934 W _ZN5jinja13array_literal12execute_implERNS_7contextE
000000000039e878 W _ZN5jinja13array_literalD0Ev
000000000039e7e4 W _ZN5jinja13array_literalD2Ev
000000000039e4e4 W _ZN5jinja13float_literal12execute_implERNS_7contextE
000000000039e4b0 W _ZN5jinja13float_literalD0Ev
00000000003a526c T _ZN5jinja13for_statement12execute_implERNS_7contextE
00000000003ac660 W _ZN5jinja13for_statement5visitERNS_7contextE
00000000003ac620 W _ZN5jinja13for_statementD0Ev
00000000003ac508 W _ZN5jinja13for_statementD2Ev
00000000003a8208 T _ZN5jinja13set_statement12execute_implERNS_7contextE
00000000003acd90 W _ZN5jinja13set_statement5visitERNS_7contextE
00000000003accb8 W _ZN5jinja13set_statementD0Ev
00000000003acbf4 W _ZN5jinja13set_statementD2Ev
000000000039cf28 W _ZN5jinja13tuple_literal12execute_implERNS_7contextE
000000000039ce6c W _ZN5jinja13tuple_literalD0Ev
000000000039cdd8 W _ZN5jinja13tuple_literalD2Ev
000000000039d6e4 W _ZN5jinja13value_array_t2atEl
000000000039d6a8 W _ZN5jinja13value_array_t2atElRNSt6__ndk110shared_ptrINS_7value_tEEE
00000000003d4a8c W _ZN5jinja13value_array_t6pop_atEl
00000000003a2170 W _ZN5jinja13value_array_t9push_backERKNSt6__ndk110shared_ptrINS_7value_tEEE
00000000003c3204 W _ZN5jinja13value_array_tD0Ev
00000000003bfb00 T _ZN5jinja13value_compareERKNSt6__ndk110shared_ptrINS_7value_tEEES5_NS_16value_compare_opE
00000000003c28a0 W _ZN5jinja13value_float_tD0Ev
00000000003c2830 W _ZN5jinja13value_float_tD2Ev
00000000003b52a0 W _ZN5jinja13value_kwarg_tD0Ev
00000000003b521c W _ZN5jinja13value_kwarg_tD2Ev
00000000003c1374 T _ZN5jinja13value_to_jsonERKNSt6__ndk110shared_ptrINS_7value_tEEEiNS0_17basic_string_viewIcNS0_11char_traitsIcEEEES9_
000000000039d23c W _ZN5jinja13value_tuple_tD0Ev
00000000003a902c T _ZN5jinja14call_statement12execute_implERNS_7contextE
00000000003b0494 W _ZN5jinja14call_statement5visitERNS_7contextE
00000000003b0370 W _ZN5jinja14call_statementD0Ev
00000000003b0270 W _ZN5jinja14call_statementD2Ev
000000000039eb3c W _ZN5jinja14noop_statement12execute_implERNS_7contextE
000000000039eb18 W _ZN5jinja14noop_statementD0Ev
00000000003a0010 T _ZN5jinja14object_literal12execute_implERNS_7contextE
00000000003ae444 W _ZN5jinja14object_literalD0Ev
00000000003ae398 W _ZN5jinja14object_literalD2Ev
00000000003957c4 W _ZN5jinja14string_literal12execute_implERNS_7contextE
000000000039574c W _ZN5jinja14string_literalD0Ev
000000000039571c W _ZN5jinja14string_literalD2Ev
00000000003c3cc4 W _ZN5jinja14value_object_t2atERKNSt6__ndk110shared_ptrINS_7value_tEEE
00000000003c3c64 W _ZN5jinja14value_object_t2atERKNSt6__ndk110shared_ptrINS_7value_tEEERS4_
00000000003c40a4 W _ZN5jinja14value_object_t2atERKNSt6__ndk112basic_stringIcNS1_11char_traitsIcEENS1_9allocatorIcEEEE
00000000003c3f84 W _ZN5jinja14value_object_t2atERKNSt6__ndk112basic_stringIcNS1_11char_traitsIcEENS1_9allocatorIcEEEERNS1_10shared_ptrINS_7value_tEEE
00000000003c38a8 W _ZN5jinja14value_object_t6insertERKNSt6__ndk110shared_ptrINS_7value_tEEES6_
00000000002b4764 W _ZN5jinja14value_object_t6insertERKNSt6__ndk112basic_stringIcNS1_11char_traitsIcEENS1_9allocatorIcEEEERKNS1_10shared_ptrINS_7value_tEEE
00000000003c36fc W _ZN5jinja14value_object_t7has_keyERKNSt6__ndk110shared_ptrINS_7value_tEEE
00000000003d9648 W _ZN5jinja14value_object_tC2ERNSt6__ndk110shared_ptrINS_7value_tEEE
00000000003c3288 W _ZN5jinja14value_object_tD0Ev
00000000003c3254 W _ZN5jinja14value_object_tD2Ev
00000000002b522c W _ZN5jinja14value_string_tC2ERKNSt6__ndk112basic_stringIcNS1_11char_traitsIcEENS1_9allocatorIcEEEE
00000000003c2b94 W _ZN5jinja14value_string_tD0Ev
000000000039dfbc W _ZN5jinja15break_statement12execute_implERNS_7contextE
000000000039dff0 W _ZN5jinja15break_statement6signalD0Ev
000000000039df94 W _ZN5jinja15break_statementD0Ev
00000000003ab3e0 T _ZN5jinja15call_expression12execute_implERNS_7contextE
00000000003adf4c W _ZN5jinja15call_expression5visitERNS_7contextE
00000000003ade7c W _ZN5jinja15call_expressionD0Ev
00000000003addd0 W _ZN5jinja15call_expressionD2Ev
00000000003b6d44 T _ZN5jinja15global_builtinsEv
000000000039e72c W _ZN5jinja15integer_literal12execute_implERNS_7contextE
000000000039e6fc W _ZN5jinja15integer_literalD0Ev
0000000000391700 W _ZN5jinja15lexer_exceptionC2ERKNSt6__ndk112basic_stringIcNS1_11char_traitsIcEENS1_9allocatorIcEEEES9_m
000000000039264c W _ZN5jinja15lexer_exceptionD0Ev
00000000003a8c5c T _ZN5jinja15macro_statement12execute_implERNS_7contextE
00000000003ad478 W _ZN5jinja15macro_statement5visitERNS_7contextE
00000000003ad35c W _ZN5jinja15macro_statementD0Ev
00000000003ad25c W _ZN5jinja15macro_statementD2Ev
00000000003a41f8 T _ZN5jinja15test_expression12execute_implERNS_7contextE
00000000003af558 W _ZN5jinja15test_expression5visitERNS_7contextE
00000000003af4cc W _ZN5jinja15test_expressionD0Ev
00000000003af468 W _ZN5jinja15test_expressionD2Ev
000000000039bf80 W _ZN5jinja16blank_expression12execute_implERNS_7contextE
000000000039bf50 W _ZN5jinja16blank_expressionD0Ev
00000000003a368c T _ZN5jinja16filter_statement12execute_implERNS_7contextE
00000000003af0c4 W _ZN5jinja16filter_statement5visitERNS_7contextE
00000000003aeff4 W _ZN5jinja16filter_statementD0Ev
00000000003aef48 W _ZN5jinja16filter_statementD2Ev
00000000003c0998 T _ZN5jinja16global_from_jsonIN8nlohmann16json_abi_v3_12_010basic_jsonINS2_11ordered_mapENSt6__ndk16vectorENS5_12basic_stringIcNS5_11char_traitsIcEENS5_9allocatorIcEEEEblmdSA_NS2_14adl_serializerENS6_IhNSA_IhEEEEvEEEEvRNS_7contextERKT_b
0000000000394ec4 W _ZN5jinja16parser_exceptionC2ERKNSt6__ndk112basic_stringIcNS1_11char_traitsIcEENS1_9allocatorIcEEEES9_m
00000000003956f4 W _ZN5jinja16parser_exceptionD0Ev
00000000003b6930 W _ZN5jinja16raised_exceptionC2ERKNSt6__ndk112basic_stringIcNS1_11char_traitsIcEENS1_9allocatorIcEEEE
00000000003c4974 W _ZN5jinja16raised_exceptionD0Ev
00000000003b69a0 W _ZN5jinja16raised_exceptionD2Ev
000000000039bb94 W _ZN5jinja16slice_expression12execute_implERNS_7contextE
000000000039b628 W _ZN5jinja16slice_expression5visitERNS_7contextE
000000000039b584 W _ZN5jinja16slice_expressionD0Ev
000000000039b508 W _ZN5jinja16slice_expressionD2Ev
00000000003a48cc T _ZN5jinja16unary_expression12execute_implERNS_7contextE
00000000003afa7c W _ZN5jinja16unary_expression5visitERNS_7contextE
00000000003af9f0 W _ZN5jinja16unary_expressionD0Ev
00000000003af98c W _ZN5jinja16unary_expressionD2Ev
00000000003a0378 T _ZN5jinja17binary_expression12execute_implERNS_7contextE
00000000003ae62c W _ZN5jinja17binary_expression5visitERNS_7contextE
00000000003ae590 W _ZN5jinja17binary_expressionD0Ev
00000000003ae514 W _ZN5jinja17binary_expressionD2Ev
0000000000394c44 W _ZN5jinja17comment_statement12execute_implERNS_7contextE
0000000000394bcc W _ZN5jinja17comment_statementD0Ev
0000000000394b9c W _ZN5jinja17comment_statementD2Ev
00000000003a2538 T _ZN5jinja17filter_expression12execute_implERNS_7contextE
00000000003aeb0c W _ZN5jinja17filter_expression5visitERNS_7contextE
00000000003aea58 W _ZN5jinja17filter_expressionD0Ev
00000000003a4158 W _ZN5jinja17filter_expressionD2Ev
00000000003a99b0 T _ZN5jinja17member_expression12execute_implERNS_7contextE
00000000003ad998 W _ZN5jinja17member_expression5visitERNS_7contextE
00000000003ad914 W _ZN5jinja17member_expressionD0Ev
00000000003ad8b0 W _ZN5jinja17member_expressionD2Ev
0000000000392c30 T _ZN5jinja17parse_from_tokensERKNS_12lexer_resultE
000000000039cc7c W _ZN5jinja17select_expression12execute_implERNS_7contextE
000000000039c858 W _ZN5jinja17select_expression5visitERNS_7contextE
000000000039c7d4 W _ZN5jinja17select_expressionD0Ev
000000000039c770 W _ZN5jinja17select_expressionD2Ev
000000000039e158 W _ZN5jinja17spread_expression5visitERNS_7contextE
000000000039e0e8 W _ZN5jinja17spread_expressionD0Ev
000000000039e0b8 W _ZN5jinja17spread_expressionD2Ev
00000000003c4780 W _ZN5jinja17value_undefined_tD0Ev
00000000003c4734 W _ZN5jinja17value_undefined_tD2Ev
000000000039e050 W _ZN5jinja18continue_statement12execute_implERNS_7contextE
000000000039e084 W _ZN5jinja18continue_statement6signalD0Ev
000000000039e024 W _ZN5jinja18continue_statementD0Ev
000000000039f0e4 W _ZN5jinja18rethrown_exceptionC2ERKNSt6__ndk112basic_stringIcNS1_11char_traitsIcEENS1_9allocatorIcEEEE
00000000003b08e0 W _ZN5jinja18rethrown_exceptionD0Ev
000000000039f154 W _ZN5jinja18rethrown_exceptionD2Ev
000000000039c68c W _ZN5jinja18ternary_expression12execute_implERNS_7contextE
000000000039c120 W _ZN5jinja18ternary_expression5visitERNS_7contextE
000000000039c07c W _ZN5jinja18ternary_expressionD0Ev
000000000039c000 W _ZN5jinja18ternary_expressionD2Ev
00000000003c22f8 T _ZN5jinja20value_to_string_reprERKNSt6__ndk110shared_ptrINS_7value_tEEE
00000000003c6774 W _ZN5jinja25not_implemented_exceptionC2ERKNSt6__ndk112basic_stringIcNS1_11char_traitsIcEENS1_9allocatorIcEEEE
00000000003c6830 W _ZN5jinja25not_implemented_exceptionD0Ev
00000000003ab7e8 T _ZN5jinja27keyword_argument_expression12execute_implERNS_7contextE
00000000003afe50 W _ZN5jinja27keyword_argument_expression5visitERNS_7contextE
00000000003afd9c W _ZN5jinja27keyword_argument_expressionD0Ev
00000000003afd38 W _ZN5jinja27keyword_argument_expressionD2Ev
00000000003df60c T _ZN5jinja29caps_apply_preserve_reasoningERNS_7contextEb
0000000000392610 W _ZN5jinja5lexer10is_integerEc
0000000000392624 W _ZN5jinja5lexer7is_wordEc
000000000038fd84 T _ZN5jinja5lexer8tokenizeERKNSt6__ndk112basic_stringIcNS1_11char_traitsIcEENS1_9allocatorIcEEEE
00000000002d148c W _ZN5jinja5lexerC2Ev
00000000002d2a24 W _ZN5jinja5lexerD2Ev
0000000000394b7c W _ZN5jinja5tokenD2Ev
00000000003a200c W _ZN5jinja6mk_valINSt6__ndk110shared_ptrINS_11value_int_tEEEJlEEENS2_INS_15extract_pointeeIT_E4typeEEEDpOT0_
00000000003a1f60 W _ZN5jinja6mk_valINSt6__ndk110shared_ptrINS_13value_float_tEEEJRdEEENS2_INS_15extract_pointeeIT_E4typeEEEDpOT0_
00000000003a2114 W _ZN5jinja6mk_valINSt6__ndk110shared_ptrINS_13value_float_tEEEJdEEENS2_INS_15extract_pointeeIT_E4typeEEEDpOT0_
00000000003a2418 W _ZN5jinja6mk_valINSt6__ndk110shared_ptrINS_14value_string_tEEEJEEENS2_INS_15extract_pointeeIT_E4typeEEEDpOT0_
00000000003ab364 W _ZN5jinja6mk_valINSt6__ndk110shared_ptrINS_14value_string_tEEEJNS1_12basic_stringIcNS1_11char_traitsIcEENS1_9allocatorIcEEEEEEENS2_INS_15extract_pointeeIT_E4typeEEEDpOT0_
00000000003a1ae0 W _ZN5jinja6mk_valINSt6__ndk110shared_ptrINS_17value_undefined_tEEEJEEENS2_INS_15extract_pointeeIT_E4typeEEEDpOT0_
0000000000397904 W _ZN5jinja6parser10parse_argsEv
00000000003969e0 W _ZN5jinja6parser17expect_identifierERKNSt6__ndk112basic_stringIcNS1_11char_traitsIcEENS1_9allocatorIcEEEE
0000000000396128 W _ZN5jinja6parser18parse_if_statementEm
0000000000397030 W _ZN5jinja6parser19parse_for_statementEm
0000000000399208 W _ZN5jinja6parser19parse_if_expressionEv
0000000000395ba4 W _ZN5jinja6parser19parse_set_statementEm
0000000000398d24 W _ZN5jinja6parser21parse_call_expressionENSt6__ndk110unique_ptrINS_9statementENS1_14default_deleteIS3_EEEE
00000000003934cc W _ZN5jinja6parser21parse_jinja_statementEv
0000000000396c30 W _ZN5jinja6parser21parse_macro_statementEm
000000000039a660 W _ZN5jinja6parser21parse_test_expressionEv
00000000003949c4 W _ZN5jinja6parser22parse_jinja_expressionEv
000000000039a8fc W _ZN5jinja6parser23parse_filter_expressionEv
000000000039ac4c W _ZN5jinja6parser23parse_member_expressionENSt6__ndk110unique_ptrINS_9statementENS1_14default_deleteIS3_EEEE
0000000000397f58 W _ZN5jinja6parser24parse_primary_expressionEv
000000000039a1b8 W _ZN5jinja6parser25parse_additive_expressionEv
0000000000398eec W _ZN5jinja6parser25parse_expression_sequenceEb
0000000000399db4 W _ZN5jinja6parser27parse_comparison_expressionEv
0000000000399464 W _ZN5jinja6parser27parse_logical_or_expressionEv
000000000039ab00 W _ZN5jinja6parser28parse_call_member_expressionEv
000000000039990c W _ZN5jinja6parser28parse_logical_and_expressionEv
000000000039a40c W _ZN5jinja6parser31parse_multiplicative_expressionEv
0000000000399b80 W _ZN5jinja6parser33parse_logical_negation_expressionEv
000000000039b0a0 W _ZN5jinja6parser33parse_member_expression_argumentsEv
0000000000393374 W _ZN5jinja6parser4nextEv
0000000000392d00 W _ZN5jinja6parser5parseEv
0000000000395840 W _ZN5jinja6parser6expectENS_5token4typeERKNSt6__ndk112basic_stringIcNS3_11char_traitsIcEENS3_9allocatorIcEEEE
0000000000398c74 W _ZN5jinja6parser7mk_stmtINS_14call_statementEJNSt6__ndk110unique_ptrINS_15call_expressionENS3_14default_deleteIS5_EEEENS3_6vectorINS4_INS_9statementENS6_ISA_EEEENS3_9allocatorISC_EEEESF_EEENS4_IT_NS6_ISG_EEEEmDpOT0_
0000000000392f4c W _ZN5jinja6parser9parse_anyEv
00000000003ddfe0 T _ZN5jinja6string10capitalizeEv
00000000003dd324 T _ZN5jinja6string10mark_inputEv
00000000003ddb70 T _ZN5jinja6string19mark_input_based_onERKS0_
00000000003de2e0 T _ZN5jinja6string5stripEbbNSt6__ndk18optionalIKNS1_17basic_string_viewIcNS1_11char_traitsIcEEEEEE
00000000003ddbf8 T _ZN5jinja6string6appendERKS0_
00000000003dde60 T _ZN5jinja6string9lowercaseEv
00000000003de160 T _ZN5jinja6string9titlecaseEv
00000000003ddce0 T _ZN5jinja6string9uppercaseEv
00000000002b5368 W _ZN5jinja6stringC2ERKNSt6__ndk112basic_stringIcNS1_11char_traitsIcEENS1_9allocatorIcEEEEb
00000000002b452c W _ZN5jinja6stringD2Ev
00000000003a2494 W _ZN5jinja6stringaSEOS0_
000000000039fcf0 W _ZN5jinja7context7get_valERKNSt6__ndk112basic_stringIcNS1_11char_traitsIcEENS1_9allocatorIcEEEE
00000000002b36c0 W _ZN5jinja7contextC2ENSt6__ndk112basic_stringIcNS1_11char_traitsIcEENS1_9allocatorIcEEEE
00000000003a7f30 W _ZN5jinja7contextC2ERKS0_
00000000002b4654 W _ZN5jinja7contextD2Ev
00000000002d1090 W _ZN5jinja7program12execute_implERNS_7contextE
00000000002d0e28 W _ZN5jinja7programD0Ev
00000000002d0d94 W _ZN5jinja7programD2Ev
00000000003abb60 T _ZN5jinja7runtime18debug_dump_programERKNS_7programERKNSt6__ndk112basic_stringIcNS4_11char_traitsIcEENS4_9allocatorIcEEEE
00000000002b4344 W _ZN5jinja7runtime19gather_string_partsERKNSt6__ndk110shared_ptrINS_7value_tEEE
00000000002b4134 W _ZN5jinja7runtime7executeERKNS_7programE
00000000002b4df8 W _ZN5jinja7value_t2atERKNSt6__ndk110shared_ptrIS0_EE
00000000002b4de4 W _ZN5jinja7value_t2atERKNSt6__ndk110shared_ptrIS0_EERS3_
00000000002b4e20 W _ZN5jinja7value_t2atERKNSt6__ndk112basic_stringIcNS1_11char_traitsIcEENS1_9allocatorIcEEEE
00000000002b4e0c W _ZN5jinja7value_t2atERKNSt6__ndk112basic_stringIcNS1_11char_traitsIcEENS1_9allocatorIcEEEERNS1_10shared_ptrIS0_EE
00000000002b4e48 W _ZN5jinja7value_t2atEl
00000000002b4e34 W _ZN5jinja7value_t2atElRNSt6__ndk110shared_ptrIS0_EE
00000000002b4dd0 W _ZN5jinja7value_t6insertERKNSt6__ndk110shared_ptrIS0_EES5_
00000000002b4dbc W _ZN5jinja7value_t7has_keyERKNSt6__ndk110shared_ptrIS0_EE
00000000003c2570 T _ZN5jinja7value_t7stats_t9mark_usedERNSt6__ndk110shared_ptrIS0_EEb
00000000002b4c64 W _ZN5jinja7value_tD0Ev
00000000002b4a7c W _ZN5jinja7value_tD2Ev
00000000003e05e0 T _ZN5jinja8caps_getERNS_7programE
00000000003b6a44 T _ZN5jinja9func_args10push_frontERKNSt6__ndk110shared_ptrINS_7value_tEEE
00000000003b6a3c T _ZN5jinja9func_args9push_backERKNSt6__ndk110shared_ptrINS_7value_tEEE
00000000003b1734 W _ZN5jinja9func_argsC2ERKS0_
00000000003a35d4 W _ZN5jinja9func_argsD2Ev
0000000000394cc4 W _ZN5jinja9statement12execute_implERNS_7contextE
00000000002d0f60 W _ZN5jinja9statement5visitERNS_7contextE
000000000039ebcc T _ZN5jinja9statement7executeERNS_7contextE
000000000039eb14 W _ZN5jinja9statementD2Ev
00000000002dca40 T _ZN6lr_opt4initEv
00000000002dec04 T _ZN7console11set_displayE12display_type
00000000002e0348 T _ZN7console23set_completion_callbackENSt6__ndk18functionIFNS0_6vectorINS0_4pairINS0_12basic_stringIcNS0_11char_traitsIcEENS0_9allocatorIcEEEEmEENS7_ISA_EEEENS0_17basic_string_viewIcS6_EEmEEE
00000000002e0638 T _ZN7console3logEPKcz
00000000002dea74 T _ZN7console4initEbb
00000000002e06e0 T _ZN7console5errorEPKcz
00000000002e07f8 T _ZN7console5flushEv
00000000002deb48 T _ZN7console7cleanupEv
00000000005be0f0 B _ZN7console7historyE
00000000002e0590 T _ZN7console7spinner4stopEv
00000000002e040c T _ZN7console7spinner5startEv
00000000002dedc8 T _ZN7console8readlineERNSt6__ndk112basic_stringIcNS0_11char_traitsIcEENS0_9allocatorIcEEEEb
00000000002e19d4 W _ZN7console9history_t3addENSt6__ndk117basic_string_viewIcNS1_11char_traitsIcEEEE
00000000002ded24 W _ZN7console9history_tD2Ev
00000000004219a4 T _ZN7httplib10ClientImpl10disconnectEb
000000000043de38 T _ZN7httplib10ClientImpl10set_loggerENSt6__ndk18functionIFvRKNS_7RequestERKNS_8ResponseEEEE
0000000000424548 T _ZN7httplib10ClientImpl11open_streamERKNSt6__ndk112basic_stringIcNS1_11char_traitsIcEENS1_9allocatorIcEEEES9_RKNS1_8multimapIS7_S7_NS1_4lessIS7_EENS5_INS1_4pairIS8_S7_EEEEEERKNS1_18unordered_multimapIS7_S7_NS_6detail11case_ignore4hashENSL_8equal_toESF_EES9_S9_
0000000000425538 T _ZN7httplib10ClientImpl12StreamHandle23read_with_decompressionEPcm
000000000042582c T _ZN7httplib10ClientImpl12StreamHandle24parse_trailers_if_neededEv
00000000003edbbc T _ZN7httplib10ClientImpl12StreamHandle4readEPcm
0000000000425478 W _ZN7httplib10ClientImpl12StreamHandleD2Ev
00000000003ed670 W _ZN7httplib10ClientImpl12StreamHandleaSEOS1_
000000000042107c T _ZN7httplib10ClientImpl12close_socketERNS0_6SocketE
000000000043d814 T _ZN7httplib10ClientImpl12set_compressEb
000000000043d90c T _ZN7httplib10ClientImpl12set_no_proxyERKNSt6__ndk16vectorINS1_12basic_stringIcNS1_11char_traitsIcEENS1_9allocatorIcEEEENS6_IS8_EEEE
00000000004219a0 T _ZN7httplib10ClientImpl12shutdown_sslERNS0_6SocketEb
000000000042116c T _ZN7httplib10ClientImpl13copy_settingsERKS0_
000000000043d834 T _ZN7httplib10ClientImpl13set_interfaceERKNSt6__ndk112basic_stringIcNS1_11char_traitsIcEENS1_9allocatorIcEEEE
000000000042b1a0 T _ZN7httplib10ClientImpl13write_requestERNS_6StreamERNS_7RequestEbRNS_5ErrorEb
0000000000425928 T _ZN7httplib10ClientImpl14handle_requestERNS_6StreamERNS_7RequestERNS_8ResponseEbRNS_5ErrorE
000000000042e5a8 T _ZN7httplib10ClientImpl14process_socketERKNS0_6SocketENSt6__ndk16chrono10time_pointINS5_12steady_clockENS5_8durationIxNS4_5ratioILl1ELl1000000000EEEEEEENS4_8functionIFbRNS_6StreamEEEE
000000000043d5c4 T _ZN7httplib10ClientImpl14set_basic_authERKNSt6__ndk112basic_stringIcNS1_11char_traitsIcEENS1_9allocatorIcEEEES9_
000000000043d81c T _ZN7httplib10ClientImpl14set_decompressEb
000000000043d5fc T _ZN7httplib10ClientImpl14set_keep_aliveEb
0000000000426330 T _ZN7httplib10ClientImpl15process_requestERNS_6StreamERNS_7RequestERNS_8ResponseEbRNS_5ErrorE
000000000043ddc4 T _ZN7httplib10ClientImpl15set_digest_authERKNSt6__ndk112basic_stringIcNS1_11char_traitsIcEENS1_9allocatorIcEEEES9_
000000000043d768 T _ZN7httplib10ClientImpl15set_ipv6_v6onlyEb
000000000043d5bc T _ZN7httplib10ClientImpl15set_max_timeoutEl
000000000043d60c T _ZN7httplib10ClientImpl15set_path_encodeEb
000000000043d760 T _ZN7httplib10ClientImpl15set_tcp_nodelayEb
000000000043de24 T _ZN7httplib10ClientImpl16enable_system_caEb
000000000042a334 T _ZN7httplib10ClientImpl16set_ca_cert_pathERKNSt6__ndk112basic_stringIcNS1_11char_traitsIcEENS1_9allocatorIcEEEES9_
000000000043dedc T _ZN7httplib10ClientImpl16set_error_loggerENSt6__ndk18functionIFvRKNS_5ErrorEPKNS_7RequestEEEE
000000000043d5ac T _ZN7httplib10ClientImpl16set_read_timeoutEll
000000000043d690 T _ZN7httplib10ClientImpl17set_header_writerERKNSt6__ndk18functionIFlRNS_6StreamERNS1_18unordered_multimapINS1_12basic_stringIcNS1_11char_traitsIcEENS1_9allocatorIcEEEESB_NS_6detail11case_ignore4hashENSD_8equal_toENS9_INS1_4pairIKSB_SB_EEEEEEEEE
000000000043d5b4 T _ZN7httplib10ClientImpl17set_write_timeoutEll
000000000043d758 T _ZN7httplib10ClientImpl18set_address_familyEi
000000000043d770 T _ZN7httplib10ClientImpl18set_socket_optionsENSt6__ndk18functionIFviEEE
000000000042cfd8 T _ZN7httplib10ClientImpl18write_request_bodyERNS_6StreamERNS_7RequestERNS_5ErrorE
000000000043d688 T _ZN7httplib10ClientImpl19set_default_headersENSt6__ndk118unordered_multimapINS1_12basic_stringIcNS1_11char_traitsIcEENS1_9allocatorIcEEEES8_NS_6detail11case_ignore4hashENSA_8equal_toENS6_INS1_4pairIKS8_S8_EEEEEE
000000000043d604 T _ZN7httplib10ClientImpl19set_follow_locationEb
000000000043d8d4 T _ZN7httplib10ClientImpl20set_proxy_basic_authERKNSt6__ndk112basic_stringIcNS1_11char_traitsIcEENS1_9allocatorIcEEEES9_
000000000043d5f4 T _ZN7httplib10ClientImpl21set_bearer_token_authERKNSt6__ndk112basic_stringIcNS1_11char_traitsIcEENS1_9allocatorIcEEEE
000000000043d614 T _ZN7httplib10ClientImpl21set_hostname_addr_mapENSt6__ndk13mapINS1_12basic_stringIcNS1_11char_traitsIcEENS1_9allocatorIcEEEES8_NS1_4lessIS8_EENS6_INS1_4pairIKS8_S8_EEEEEE
000000000043ddf4 T _ZN7httplib10ClientImpl21set_proxy_digest_authERKNSt6__ndk112basic_stringIcNS1_11char_traitsIcEENS1_9allocatorIcEEEES9_
0000000000429e6c W _ZN7httplib10ClientImpl21setup_redirect_clientINS_9SSLClientEEEvRT_
000000000042a700 W _ZN7httplib10ClientImpl21setup_redirect_clientIS0_EEvRT_
000000000042937c T _ZN7httplib10ClientImpl22create_redirect_clientERKNSt6__ndk112basic_stringIcNS1_11char_traitsIcEENS1_9allocatorIcEEEES9_iRNS_7RequestERNS_8ResponseES9_S9_RNS_5ErrorE
000000000043d5a4 T _ZN7httplib10ClientImpl22set_connection_timeoutEll
000000000043d824 T _ZN7httplib10ClientImpl22set_payload_max_lengthEm
0000000000421998 T _ZN7httplib10ClientImpl22setup_proxy_connectionERNS0_6SocketENSt6__ndk16chrono10time_pointINS4_12steady_clockENS4_8durationIxNS3_5ratioILl1ELl1000000000EEEEEEERNS_8ResponseERbRNS_5ErrorE
000000000042372c T _ZN7httplib10ClientImpl23prepare_default_headersERNS_7RequestEbRKNSt6__ndk112basic_stringIcNS3_11char_traitsIcEENS3_9allocatorIcEEEE
000000000042198c T _ZN7httplib10ClientImpl24ensure_socket_connectionERNS0_6SocketERNS_5ErrorE
0000000000421954 T _ZN7httplib10ClientImpl25create_and_connect_socketERNS0_6SocketERNS_5ErrorE
000000000043d904 T _ZN7httplib10ClientImpl27set_proxy_bearer_token_authERKNSt6__ndk112basic_stringIcNS1_11char_traitsIcEENS1_9allocatorIcEEEE
000000000042a2d8 T _ZN7httplib10ClientImpl35enable_server_hostname_verificationEb
0000000000425254 T _ZN7httplib10ClientImpl35transfer_socket_ownership_to_handleERNS0_12StreamHandleE
000000000042a2d0 T _ZN7httplib10ClientImpl38enable_server_certificate_verificationEb
000000000042de08 T _ZN7httplib10ClientImpl39send_with_content_provider_and_receiverERKNSt6__ndk112basic_stringIcNS1_11char_traitsIcEENS1_9allocatorIcEEEES9_RKNS1_18unordered_multimapIS7_S7_NS_6detail11case_ignore4hashENSC_8equal_toENS5_INS1_4pairIS8_S7_EEEEEEPKcmNS1_8functionIFbmmRNS_8DataSinkEEEENSN_IFbmSP_EEES9_NSN_IFbSM_mEEENSN_IFbmmEEE
000000000042d2c0 T _ZN7httplib10ClientImpl39send_with_content_provider_and_receiverERNS_7RequestEPKcmNSt6__ndk18functionIFbmmRNS_8DataSinkEEEENS6_IFbmS8_EEERKNS5_12basic_stringIcNS5_11char_traitsIcEENS5_9allocatorIcEEEENS6_IFbS4_mEEERNS_5ErrorE
000000000042ef50 T _ZN7httplib10ClientImpl3GetERKNSt6__ndk112basic_stringIcNS1_11char_traitsIcEENS1_9allocatorIcEEEENS1_8functionIFbPKcmEEENSA_IFbmmEEE
000000000042f978 T _ZN7httplib10ClientImpl3GetERKNSt6__ndk112basic_stringIcNS1_11char_traitsIcEENS1_9allocatorIcEEEENS1_8functionIFbRKNS_8ResponseEEEENSA_IFbPKcmEEENSA_IFbmmEEE
000000000042e75c T _ZN7httplib10ClientImpl3GetERKNSt6__ndk112basic_stringIcNS1_11char_traitsIcEENS1_9allocatorIcEEEENS1_8functionIFbmmEEE
000000000042f720 T _ZN7httplib10ClientImpl3GetERKNSt6__ndk112basic_stringIcNS1_11char_traitsIcEENS1_9allocatorIcEEEERKNS1_18unordered_multimapIS7_S7_NS_6detail11case_ignore4hashENSC_8equal_toENS5_INS1_4pairIS8_S7_EEEEEENS1_8functionIFbPKcmEEENSL_IFbmmEEE
000000000042f22c T _ZN7httplib10ClientImpl3GetERKNSt6__ndk112basic_stringIcNS1_11char_traitsIcEENS1_9allocatorIcEEEERKNS1_18unordered_multimapIS7_S7_NS_6detail11case_ignore4hashENSC_8equal_toENS5_INS1_4pairIS8_S7_EEEEEENS1_8functionIFbRKNS_8ResponseEEEENSL_IFbPKcmEEENSL_IFbmmEEE
000000000042e924 T _ZN7httplib10ClientImpl3GetERKNSt6__ndk112basic_stringIcNS1_11char_traitsIcEENS1_9allocatorIcEEEERKNS1_18unordered_multimapIS7_S7_NS_6detail11case_ignore4hashENSC_8equal_toENS5_INS1_4pairIS8_S7_EEEEEENS1_8functionIFbmmEEE
000000000042eb94 T _ZN7httplib10ClientImpl3GetERKNSt6__ndk112basic_stringIcNS1_11char_traitsIcEENS1_9allocatorIcEEEERKNS1_8multimapIS7_S7_NS1_4lessIS7_EENS5_INS1_4pairIS8_S7_EEEEEENS1_8functionIFbmmEEE
000000000042fcb0 T _ZN7httplib10ClientImpl3GetERKNSt6__ndk112basic_stringIcNS1_11char_traitsIcEENS1_9allocatorIcEEEERKNS1_8multimapIS7_S7_NS1_4lessIS7_EENS5_INS1_4pairIS8_S7_EEEEEERKNS1_18unordered_multimapIS7_S7_NS_6detail11case_ignore4hashENSL_8equal_toESF_EENS1_8functionIFbPKcmEEENSR_IFbmmEEE
000000000042ff20 T _ZN7httplib10ClientImpl3GetERKNSt6__ndk112basic_stringIcNS1_11char_traitsIcEENS1_9allocatorIcEEEERKNS1_8multimapIS7_S7_NS1_4lessIS7_EENS5_INS1_4pairIS8_S7_EEEEEERKNS1_18unordered_multimapIS7_S7_NS_6detail11case_ignore4hashENSL_8equal_toESF_EENS1_8functionIFbRKNS_8ResponseEEEENSR_IFbPKcmEEENSR_IFbmmEEE
000000000042ed58 T _ZN7httplib10ClientImpl3GetERKNSt6__ndk112basic_stringIcNS1_11char_traitsIcEENS1_9allocatorIcEEEERKNS1_8multimapIS7_S7_NS1_4lessIS7_EENS5_INS1_4pairIS8_S7_EEEEEERKNS1_18unordered_multimapIS7_S7_NS_6detail11case_ignore4hashENSL_8equal_toESF_EENS1_8functionIFbmmEEE
0000000000434300 T _ZN7httplib10ClientImpl3PutERKNSt6__ndk112basic_stringIcNS1_11char_traitsIcEENS1_9allocatorIcEEEE
0000000000436638 T _ZN7httplib10ClientImpl3PutERKNSt6__ndk112basic_stringIcNS1_11char_traitsIcEENS1_9allocatorIcEEEENS1_8functionIFbmRNS_8DataSinkEEEES9_NSA_IFbPKcmEEENSA_IFbmmEEE
0000000000436000 T _ZN7httplib10ClientImpl3PutERKNSt6__ndk112basic_stringIcNS1_11char_traitsIcEENS1_9allocatorIcEEEENS1_8functionIFbmRNS_8DataSinkEEEES9_NSA_IFbmmEEE
0000000000434a24 T _ZN7httplib10ClientImpl3PutERKNSt6__ndk112basic_stringIcNS1_11char_traitsIcEENS1_9allocatorIcEEEEPKcmS9_NS1_8functionIFbmmEEE
00000000004345f8 T _ZN7httplib10ClientImpl3PutERKNSt6__ndk112basic_stringIcNS1_11char_traitsIcEENS1_9allocatorIcEEEERKNS1_18unordered_multimapIS7_S7_NS_6detail11case_ignore4hashENSC_8equal_toENS5_INS1_4pairIS8_S7_EEEEEE
0000000000436948 T _ZN7httplib10ClientImpl3PutERKNSt6__ndk112basic_stringIcNS1_11char_traitsIcEENS1_9allocatorIcEEEERKNS1_18unordered_multimapIS7_S7_NS_6detail11case_ignore4hashENSC_8equal_toENS5_INS1_4pairIS8_S7_EEEEEENS1_8functionIFbmRNS_8DataSinkEEEES9_NSL_IFbPKcmEEENSL_IFbmmEEE
0000000000436268 T _ZN7httplib10ClientImpl3PutERKNSt6__ndk112basic_stringIcNS1_11char_traitsIcEENS1_9allocatorIcEEEERKNS1_18unordered_multimapIS7_S7_NS_6detail11case_ignore4hashENSC_8equal_toENS5_INS1_4pairIS8_S7_EEEEEENS1_8functionIFbmRNS_8DataSinkEEEES9_NSL_IFbmmEEE
00000000004346a4 T _ZN7httplib10ClientImpl3PutERKNSt6__ndk112basic_stringIcNS1_11char_traitsIcEENS1_9allocatorIcEEEERKNS1_18unordered_multimapIS7_S7_NS_6detail11case_ignore4hashENSC_8equal_toENS5_INS1_4pairIS8_S7_EEEEEEPKcmS9_NS1_8functionIFbmmEEE
0000000000436f14 T _ZN7httplib10ClientImpl3PutERKNSt6__ndk112basic_stringIcNS1_11char_traitsIcEENS1_9allocatorIcEEEERKNS1_18unordered_multimapIS7_S7_NS_6detail11case_ignore4hashENSC_8equal_toENS5_INS1_4pairIS8_S7_EEEEEERKNS1_6vectorINS_14UploadFormDataENS5_ISM_EEEENS1_8functionIFbmmEEE
00000000004374e0 T _ZN7httplib10ClientImpl3PutERKNSt6__ndk112basic_stringIcNS1_11char_traitsIcEENS1_9allocatorIcEEEERKNS1_18unordered_multimapIS7_S7_NS_6detail11case_ignore4hashENSC_8equal_toENS5_INS1_4pairIS8_S7_EEEEEERKNS1_6vectorINS_14UploadFormDataENS5_ISM_EEEERKNSL_INS_16FormDataProviderENS5_ISR_EEEENS1_8functionIFbmmEEE
0000000000437204 T _ZN7httplib10ClientImpl3PutERKNSt6__ndk112basic_stringIcNS1_11char_traitsIcEENS1_9allocatorIcEEEERKNS1_18unordered_multimapIS7_S7_NS_6detail11case_ignore4hashENSC_8equal_toENS5_INS1_4pairIS8_S7_EEEEEERKNS1_6vectorINS_14UploadFormDataENS5_ISM_EEEES9_NS1_8functionIFbmmEEE
00000000004350b8 T _ZN7httplib10ClientImpl3PutERKNSt6__ndk112basic_stringIcNS1_11char_traitsIcEENS1_9allocatorIcEEEERKNS1_18unordered_multimapIS7_S7_NS_6detail11case_ignore4hashENSC_8equal_toENS5_INS1_4pairIS8_S7_EEEEEERKNS1_8multimapIS7_S7_NS1_4lessIS7_EESH_EE
00000000004379b0 T _ZN7httplib10ClientImpl3PutERKNSt6__ndk112basic_stringIcNS1_11char_traitsIcEENS1_9allocatorIcEEEERKNS1_18unordered_multimapIS7_S7_NS_6detail11case_ignore4hashENSC_8equal_toENS5_INS1_4pairIS8_S7_EEEEEES9_S9_NS1_8functionIFbPKcmEEENSL_IFbmmEEE
0000000000434c18 T _ZN7httplib10ClientImpl3PutERKNSt6__ndk112basic_stringIcNS1_11char_traitsIcEENS1_9allocatorIcEEEERKNS1_18unordered_multimapIS7_S7_NS_6detail11case_ignore4hashENSC_8equal_toENS5_INS1_4pairIS8_S7_EEEEEES9_S9_NS1_8functionIFbmmEEE
0000000000435be0 T _ZN7httplib10ClientImpl3PutERKNSt6__ndk112basic_stringIcNS1_11char_traitsIcEENS1_9allocatorIcEEEERKNS1_18unordered_multimapIS7_S7_NS_6detail11case_ignore4hashENSC_8equal_toENS5_INS1_4pairIS8_S7_EEEEEEmNS1_8functionIFbmmRNS_8DataSinkEEEES9_NSL_IFbPKcmEEENSL_IFbmmEEE
0000000000435514 T _ZN7httplib10ClientImpl3PutERKNSt6__ndk112basic_stringIcNS1_11char_traitsIcEENS1_9allocatorIcEEEERKNS1_18unordered_multimapIS7_S7_NS_6detail11case_ignore4hashENSC_8equal_toENS5_INS1_4pairIS8_S7_EEEEEEmNS1_8functionIFbmmRNS_8DataSinkEEEES9_NSL_IFbmmEEE
0000000000436d38 T _ZN7httplib10ClientImpl3PutERKNSt6__ndk112basic_stringIcNS1_11char_traitsIcEENS1_9allocatorIcEEEERKNS1_6vectorINS_14UploadFormDataENS5_ISB_EEEENS1_8functionIFbmmEEE
0000000000434fb8 T _ZN7httplib10ClientImpl3PutERKNSt6__ndk112basic_stringIcNS1_11char_traitsIcEENS1_9allocatorIcEEEERKNS1_8multimapIS7_S7_NS1_4lessIS7_EENS5_INS1_4pairIS8_S7_EEEEEE
0000000000434414 T _ZN7httplib10ClientImpl3PutERKNSt6__ndk112basic_stringIcNS1_11char_traitsIcEENS1_9allocatorIcEEEES9_S9_NS1_8functionIFbmmEEE
00000000004358c0 T _ZN7httplib10ClientImpl3PutERKNSt6__ndk112basic_stringIcNS1_11char_traitsIcEENS1_9allocatorIcEEEEmNS1_8functionIFbmmRNS_8DataSinkEEEES9_NSA_IFbPKcmEEENSA_IFbmmEEE
000000000043529c T _ZN7httplib10ClientImpl3PutERKNSt6__ndk112basic_stringIcNS1_11char_traitsIcEENS1_9allocatorIcEEEEmNS1_8functionIFbmmRNS_8DataSinkEEEES9_NSA_IFbmmEEE
00000000004303e4 T _ZN7httplib10ClientImpl4HeadERKNSt6__ndk112basic_stringIcNS1_11char_traitsIcEENS1_9allocatorIcEEEE
0000000000430464 T _ZN7httplib10ClientImpl4HeadERKNSt6__ndk112basic_stringIcNS1_11char_traitsIcEENS1_9allocatorIcEEEERKNS1_18unordered_multimapIS7_S7_NS_6detail11case_ignore4hashENSC_8equal_toENS5_INS1_4pairIS8_S7_EEEEEE
0000000000430664 T _ZN7httplib10ClientImpl4PostERKNSt6__ndk112basic_stringIcNS1_11char_traitsIcEENS1_9allocatorIcEEEE
0000000000432998 T _ZN7httplib10ClientImpl4PostERKNSt6__ndk112basic_stringIcNS1_11char_traitsIcEENS1_9allocatorIcEEEENS1_8functionIFbmRNS_8DataSinkEEEES9_NSA_IFbPKcmEEENSA_IFbmmEEE
0000000000432360 T _ZN7httplib10ClientImpl4PostERKNSt6__ndk112basic_stringIcNS1_11char_traitsIcEENS1_9allocatorIcEEEENS1_8functionIFbmRNS_8DataSinkEEEES9_NSA_IFbmmEEE
0000000000430d88 T _ZN7httplib10ClientImpl4PostERKNSt6__ndk112basic_stringIcNS1_11char_traitsIcEENS1_9allocatorIcEEEEPKcmS9_NS1_8functionIFbmmEEE
000000000043095c T _ZN7httplib10ClientImpl4PostERKNSt6__ndk112basic_stringIcNS1_11char_traitsIcEENS1_9allocatorIcEEEERKNS1_18unordered_multimapIS7_S7_NS_6detail11case_ignore4hashENSC_8equal_toENS5_INS1_4pairIS8_S7_EEEEEE
0000000000432ca8 T _ZN7httplib10ClientImpl4PostERKNSt6__ndk112basic_stringIcNS1_11char_traitsIcEENS1_9allocatorIcEEEERKNS1_18unordered_multimapIS7_S7_NS_6detail11case_ignore4hashENSC_8equal_toENS5_INS1_4pairIS8_S7_EEEEEENS1_8functionIFbmRNS_8DataSinkEEEES9_NSL_IFbPKcmEEENSL_IFbmmEEE
00000000004325c8 T _ZN7httplib10ClientImpl4PostERKNSt6__ndk112basic_stringIcNS1_11char_traitsIcEENS1_9allocatorIcEEEERKNS1_18unordered_multimapIS7_S7_NS_6detail11case_ignore4hashENSC_8equal_toENS5_INS1_4pairIS8_S7_EEEEEENS1_8functionIFbmRNS_8DataSinkEEEES9_NSL_IFbmmEEE
0000000000430a08 T _ZN7httplib10ClientImpl4PostERKNSt6__ndk112basic_stringIcNS1_11char_traitsIcEENS1_9allocatorIcEEEERKNS1_18unordered_multimapIS7_S7_NS_6detail11case_ignore4hashENSC_8equal_toENS5_INS1_4pairIS8_S7_EEEEEEPKcmS9_NS1_8functionIFbmmEEE
000000000043326c T _ZN7httplib10ClientImpl4PostERKNSt6__ndk112basic_stringIcNS1_11char_traitsIcEENS1_9allocatorIcEEEERKNS1_18unordered_multimapIS7_S7_NS_6detail11case_ignore4hashENSC_8equal_toENS5_INS1_4pairIS8_S7_EEEEEERKNS1_6vectorINS_14UploadFormDataENS5_ISM_EEEENS1_8functionIFbmmEEE
0000000000433838 T _ZN7httplib10ClientImpl4PostERKNSt6__ndk112basic_stringIcNS1_11char_traitsIcEENS1_9allocatorIcEEEERKNS1_18unordered_multimapIS7_S7_NS_6detail11case_ignore4hashENSC_8equal_toENS5_INS1_4pairIS8_S7_EEEEEERKNS1_6vectorINS_14UploadFormDataENS5_ISM_EEEERKNSL_INS_16FormDataProviderENS5_ISR_EEEENS1_8functionIFbmmEEE
000000000043355c T _ZN7httplib10ClientImpl4PostERKNSt6__ndk112basic_stringIcNS1_11char_traitsIcEENS1_9allocatorIcEEEERKNS1_18unordered_multimapIS7_S7_NS_6detail11case_ignore4hashENSC_8equal_toENS5_INS1_4pairIS8_S7_EEEEEERKNS1_6vectorINS_14UploadFormDataENS5_ISM_EEEES9_NS1_8functionIFbmmEEE
000000000043141c T _ZN7httplib10ClientImpl4PostERKNSt6__ndk112basic_stringIcNS1_11char_traitsIcEENS1_9allocatorIcEEEERKNS1_18unordered_multimapIS7_S7_NS_6detail11case_ignore4hashENSC_8equal_toENS5_INS1_4pairIS8_S7_EEEEEERKNS1_8multimapIS7_S7_NS1_4lessIS7_EESH_EE
0000000000433d08 T _ZN7httplib10ClientImpl4PostERKNSt6__ndk112basic_stringIcNS1_11char_traitsIcEENS1_9allocatorIcEEEERKNS1_18unordered_multimapIS7_S7_NS_6detail11case_ignore4hashENSC_8equal_toENS5_INS1_4pairIS8_S7_EEEEEES9_S9_NS1_8functionIFbPKcmEEENSL_IFbmmEEE
0000000000430f7c T _ZN7httplib10ClientImpl4PostERKNSt6__ndk112basic_stringIcNS1_11char_traitsIcEENS1_9allocatorIcEEEERKNS1_18unordered_multimapIS7_S7_NS_6detail11case_ignore4hashENSC_8equal_toENS5_INS1_4pairIS8_S7_EEEEEES9_S9_NS1_8functionIFbmmEEE
0000000000431f44 T _ZN7httplib10ClientImpl4PostERKNSt6__ndk112basic_stringIcNS1_11char_traitsIcEENS1_9allocatorIcEEEERKNS1_18unordered_multimapIS7_S7_NS_6detail11case_ignore4hashENSC_8equal_toENS5_INS1_4pairIS8_S7_EEEEEEmNS1_8functionIFbmmRNS_8DataSinkEEEES9_NSL_IFbPKcmEEENSL_IFbmmEEE
0000000000431878 T _ZN7httplib10ClientImpl4PostERKNSt6__ndk112basic_stringIcNS1_11char_traitsIcEENS1_9allocatorIcEEEERKNS1_18unordered_multimapIS7_S7_NS_6detail11case_ignore4hashENSC_8equal_toENS5_INS1_4pairIS8_S7_EEEEEEmNS1_8functionIFbmmRNS_8DataSinkEEEES9_NSL_IFbmmEEE
0000000000433090 T _ZN7httplib10ClientImpl4PostERKNSt6__ndk112basic_stringIcNS1_11char_traitsIcEENS1_9allocatorIcEEEERKNS1_6vectorINS_14UploadFormDataENS5_ISB_EEEENS1_8functionIFbmmEEE
000000000043131c T _ZN7httplib10ClientImpl4PostERKNSt6__ndk112basic_stringIcNS1_11char_traitsIcEENS1_9allocatorIcEEEERKNS1_8multimapIS7_S7_NS1_4lessIS7_EENS5_INS1_4pairIS8_S7_EEEEEE
0000000000430778 T _ZN7httplib10ClientImpl4PostERKNSt6__ndk112basic_stringIcNS1_11char_traitsIcEENS1_9allocatorIcEEEES9_S9_NS1_8functionIFbmmEEE
0000000000431c24 T _ZN7httplib10ClientImpl4PostERKNSt6__ndk112basic_stringIcNS1_11char_traitsIcEENS1_9allocatorIcEEEEmNS1_8functionIFbmmRNS_8DataSinkEEEES9_NSA_IFbPKcmEEENSA_IFbmmEEE
0000000000431600 T _ZN7httplib10ClientImpl4PostERKNSt6__ndk112basic_stringIcNS1_11char_traitsIcEENS1_9allocatorIcEEEEmNS1_8functionIFbmmRNS_8DataSinkEEEES9_NSA_IFbmmEEE
0000000000422b74 T _ZN7httplib10ClientImpl4sendERKNS_7RequestE
000000000042255c T _ZN7httplib10ClientImpl4sendERNS_7RequestERNS_8ResponseERNS_5ErrorE
000000000043d46c T _ZN7httplib10ClientImpl4stopEv
0000000000437fa8 T _ZN7httplib10ClientImpl5PatchERKNSt6__ndk112basic_stringIcNS1_11char_traitsIcEENS1_9allocatorIcEEEE
000000000043a3e4 T _ZN7httplib10ClientImpl5PatchERKNSt6__ndk112basic_stringIcNS1_11char_traitsIcEENS1_9allocatorIcEEEENS1_8functionIFbmRNS_8DataSinkEEEES9_NSA_IFbPKcmEEENSA_IFbmmEEE
0000000000439dac T _ZN7httplib10ClientImpl5PatchERKNSt6__ndk112basic_stringIcNS1_11char_traitsIcEENS1_9allocatorIcEEEENS1_8functionIFbmRNS_8DataSinkEEEES9_NSA_IFbmmEEE
00000000004387d0 T _ZN7httplib10ClientImpl5PatchERKNSt6__ndk112basic_stringIcNS1_11char_traitsIcEENS1_9allocatorIcEEEEPKcmS9_NS1_8functionIFbmmEEE
000000000043a6f4 T _ZN7httplib10ClientImpl5PatchERKNSt6__ndk112basic_stringIcNS1_11char_traitsIcEENS1_9allocatorIcEEEERKNS1_18unordered_multimapIS7_S7_NS_6detail11case_ignore4hashENSC_8equal_toENS5_INS1_4pairIS8_S7_EEEEEENS1_8functionIFbmRNS_8DataSinkEEEES9_NSL_IFbPKcmEEENSL_IFbmmEEE
000000000043a014 T _ZN7httplib10ClientImpl5PatchERKNSt6__ndk112basic_stringIcNS1_11char_traitsIcEENS1_9allocatorIcEEEERKNS1_18unordered_multimapIS7_S7_NS_6detail11case_ignore4hashENSC_8equal_toENS5_INS1_4pairIS8_S7_EEEEEENS1_8functionIFbmRNS_8DataSinkEEEES9_NSL_IFbmmEEE
00000000004382a0 T _ZN7httplib10ClientImpl5PatchERKNSt6__ndk112basic_stringIcNS1_11char_traitsIcEENS1_9allocatorIcEEEERKNS1_18unordered_multimapIS7_S7_NS_6detail11case_ignore4hashENSC_8equal_toENS5_INS1_4pairIS8_S7_EEEEEENS1_8functionIFbmmEEE
0000000000438450 T _ZN7httplib10ClientImpl5PatchERKNSt6__ndk112basic_stringIcNS1_11char_traitsIcEENS1_9allocatorIcEEEERKNS1_18unordered_multimapIS7_S7_NS_6detail11case_ignore4hashENSC_8equal_toENS5_INS1_4pairIS8_S7_EEEEEEPKcmS9_NS1_8functionIFbmmEEE
000000000043acc0 T _ZN7httplib10ClientImpl5PatchERKNSt6__ndk112basic_stringIcNS1_11char_traitsIcEENS1_9allocatorIcEEEERKNS1_18unordered_multimapIS7_S7_NS_6detail11case_ignore4hashENSC_8equal_toENS5_INS1_4pairIS8_S7_EEEEEERKNS1_6vectorINS_14UploadFormDataENS5_ISM_EEEENS1_8functionIFbmmEEE
000000000043b28c T _ZN7httplib10ClientImpl5PatchERKNSt6__ndk112basic_stringIcNS1_11char_traitsIcEENS1_9allocatorIcEEEERKNS1_18unordered_multimapIS7_S7_NS_6detail11case_ignore4hashENSC_8equal_toENS5_INS1_4pairIS8_S7_EEEEEERKNS1_6vectorINS_14UploadFormDataENS5_ISM_EEEERKNSL_INS_16FormDataProviderENS5_ISR_EEEENS1_8functionIFbmmEEE
000000000043afb0 T _ZN7httplib10ClientImpl5PatchERKNSt6__ndk112basic_stringIcNS1_11char_traitsIcEENS1_9allocatorIcEEEERKNS1_18unordered_multimapIS7_S7_NS_6detail11case_ignore4hashENSC_8equal_toENS5_INS1_4pairIS8_S7_EEEEEERKNS1_6vectorINS_14UploadFormDataENS5_ISM_EEEES9_NS1_8functionIFbmmEEE
0000000000438e64 T _ZN7httplib10ClientImpl5PatchERKNSt6__ndk112basic_stringIcNS1_11char_traitsIcEENS1_9allocatorIcEEEERKNS1_18unordered_multimapIS7_S7_NS_6detail11case_ignore4hashENSC_8equal_toENS5_INS1_4pairIS8_S7_EEEEEERKNS1_8multimapIS7_S7_NS1_4lessIS7_EESH_EE
000000000043b75c T _ZN7httplib10ClientImpl5PatchERKNSt6__ndk112basic_stringIcNS1_11char_traitsIcEENS1_9allocatorIcEEEERKNS1_18unordered_multimapIS7_S7_NS_6detail11case_ignore4hashENSC_8equal_toENS5_INS1_4pairIS8_S7_EEEEEES9_S9_NS1_8functionIFbPKcmEEENSL_IFbmmEEE
00000000004389c4 T _ZN7httplib10ClientImpl5PatchERKNSt6__ndk112basic_stringIcNS1_11char_traitsIcEENS1_9allocatorIcEEEERKNS1_18unordered_multimapIS7_S7_NS_6detail11case_ignore4hashENSC_8equal_toENS5_INS1_4pairIS8_S7_EEEEEES9_S9_NS1_8functionIFbmmEEE
000000000043998c T _ZN7httplib10ClientImpl5PatchERKNSt6__ndk112basic_stringIcNS1_11char_traitsIcEENS1_9allocatorIcEEEERKNS1_18unordered_multimapIS7_S7_NS_6detail11case_ignore4hashENSC_8equal_toENS5_INS1_4pairIS8_S7_EEEEEEmNS1_8functionIFbmmRNS_8DataSinkEEEES9_NSL_IFbPKcmEEENSL_IFbmmEEE
00000000004392c0 T _ZN7httplib10ClientImpl5PatchERKNSt6__ndk112basic_stringIcNS1_11char_traitsIcEENS1_9allocatorIcEEEERKNS1_18unordered_multimapIS7_S7_NS_6detail11case_ignore4hashENSC_8equal_toENS5_INS1_4pairIS8_S7_EEEEEEmNS1_8functionIFbmmRNS_8DataSinkEEEES9_NSL_IFbmmEEE
000000000043aae4 T _ZN7httplib10ClientImpl5PatchERKNSt6__ndk112basic_stringIcNS1_11char_traitsIcEENS1_9allocatorIcEEEERKNS1_6vectorINS_14UploadFormDataENS5_ISB_EEEENS1_8functionIFbmmEEE
0000000000438d64 T _ZN7httplib10ClientImpl5PatchERKNSt6__ndk112basic_stringIcNS1_11char_traitsIcEENS1_9allocatorIcEEEERKNS1_8multimapIS7_S7_NS1_4lessIS7_EENS5_INS1_4pairIS8_S7_EEEEEE
00000000004380bc T _ZN7httplib10ClientImpl5PatchERKNSt6__ndk112basic_stringIcNS1_11char_traitsIcEENS1_9allocatorIcEEEES9_S9_NS1_8functionIFbmmEEE
000000000043966c T _ZN7httplib10ClientImpl5PatchERKNSt6__ndk112basic_stringIcNS1_11char_traitsIcEENS1_9allocatorIcEEEEmNS1_8functionIFbmmRNS_8DataSinkEEEES9_NSA_IFbPKcmEEENSA_IFbmmEEE
0000000000439048 T _ZN7httplib10ClientImpl5PatchERKNSt6__ndk112basic_stringIcNS1_11char_traitsIcEENS1_9allocatorIcEEEEmNS1_8functionIFbmmRNS_8DataSinkEEEES9_NSA_IFbmmEEE
00000000004234c0 T _ZN7httplib10ClientImpl5send_EONS_7RequestE
000000000042260c T _ZN7httplib10ClientImpl5send_ERNS_7RequestERNS_8ResponseERNS_5ErrorE
000000000043bd54 T _ZN7httplib10ClientImpl6DeleteERKNSt6__ndk112basic_stringIcNS1_11char_traitsIcEENS1_9allocatorIcEEEENS1_8functionIFbmmEEE
000000000043c4b8 T _ZN7httplib10ClientImpl6DeleteERKNSt6__ndk112basic_stringIcNS1_11char_traitsIcEENS1_9allocatorIcEEEEPKcmS9_NS1_8functionIFbmmEEE
000000000043c204 T _ZN7httplib10ClientImpl6DeleteERKNSt6__ndk112basic_stringIcNS1_11char_traitsIcEENS1_9allocatorIcEEEERKNS1_18unordered_multimapIS7_S7_NS_6detail11case_ignore4hashENSC_8equal_toENS5_INS1_4pairIS8_S7_EEEEEENS1_8functionIFbmmEEE
000000000043c6ac T _ZN7httplib10ClientImpl6DeleteERKNSt6__ndk112basic_stringIcNS1_11char_traitsIcEENS1_9allocatorIcEEEERKNS1_18unordered_multimapIS7_S7_NS_6detail11case_ignore4hashENSC_8equal_toENS5_INS1_4pairIS8_S7_EEEEEEPKcmS9_NS1_8functionIFbmmEEE
000000000043ce84 T _ZN7httplib10ClientImpl6DeleteERKNSt6__ndk112basic_stringIcNS1_11char_traitsIcEENS1_9allocatorIcEEEERKNS1_18unordered_multimapIS7_S7_NS_6detail11case_ignore4hashENSC_8equal_toENS5_INS1_4pairIS8_S7_EEEEEERKNS1_8multimapIS7_S7_NS1_4lessIS7_EESH_EENS1_8functionIFbmmEEE
000000000043c09c T _ZN7httplib10ClientImpl6DeleteERKNSt6__ndk112basic_stringIcNS1_11char_traitsIcEENS1_9allocatorIcEEEERKNS1_18unordered_multimapIS7_S7_NS_6detail11case_ignore4hashENSC_8equal_toENS5_INS1_4pairIS8_S7_EEEEEES9_S9_NS1_8functionIFbmmEEE
000000000043cca8 T _ZN7httplib10ClientImpl6DeleteERKNSt6__ndk112basic_stringIcNS1_11char_traitsIcEENS1_9allocatorIcEEEERKNS1_8multimapIS7_S7_NS1_4lessIS7_EENS5_INS1_4pairIS8_S7_EEEEEENS1_8functionIFbmmEEE
000000000043caa4 T _ZN7httplib10ClientImpl6DeleteERKNSt6__ndk112basic_stringIcNS1_11char_traitsIcEENS1_9allocatorIcEEEES9_S9_NS1_8functionIFbmmEEE
000000000043d1ec T _ZN7httplib10ClientImpl7OptionsERKNSt6__ndk112basic_stringIcNS1_11char_traitsIcEENS1_9allocatorIcEEEE
000000000043d26c T _ZN7httplib10ClientImpl7OptionsERKNSt6__ndk112basic_stringIcNS1_11char_traitsIcEENS1_9allocatorIcEEEERKNS1_18unordered_multimapIS7_S7_NS_6detail11case_ignore4hashENSC_8equal_toENS5_INS1_4pairIS8_S7_EEEEEE
00000000004277a8 T _ZN7httplib10ClientImpl8redirectERNS_7RequestERNS_8ResponseERNS_5ErrorE
000000000043d83c T _ZN7httplib10ClientImpl9set_proxyERKNSt6__ndk112basic_stringIcNS1_11char_traitsIcEENS1_9allocatorIcEEEEi
00000000004206b0 T _ZN7httplib10ClientImplC1ERKNSt6__ndk112basic_stringIcNS1_11char_traitsIcEENS1_9allocatorIcEEEE
0000000000420a38 T _ZN7httplib10ClientImplC1ERKNSt6__ndk112basic_stringIcNS1_11char_traitsIcEENS1_9allocatorIcEEEEi
0000000000420710 T _ZN7httplib10ClientImplC1ERKNSt6__ndk112basic_stringIcNS1_11char_traitsIcEENS1_9allocatorIcEEEEiS9_S9_
00000000004206b0 T _ZN7httplib10ClientImplC2ERKNSt6__ndk112basic_stringIcNS1_11char_traitsIcEENS1_9allocatorIcEEEE
0000000000420a38 T _ZN7httplib10ClientImplC2ERKNSt6__ndk112basic_stringIcNS1_11char_traitsIcEENS1_9allocatorIcEEEEi
0000000000420710 T _ZN7httplib10ClientImplC2ERKNSt6__ndk112basic_stringIcNS1_11char_traitsIcEENS1_9allocatorIcEEEEiS9_S9_
000000000042113c T _ZN7httplib10ClientImplD0Ev
0000000000420a94 T _ZN7httplib10ClientImplD1Ev
0000000000420a94 T _ZN7httplib10ClientImplD2Ev
000000000040ce74 T _ZN7httplib10ThreadPool16move_to_finishedENSt6__ndk111__thread_idE
000000000040cb84 T _ZN7httplib10ThreadPool24cleanup_finished_threadsEv
000000000040cef8 T _ZN7httplib10ThreadPool6workerEb
000000000040c8e8 T _ZN7httplib10ThreadPool7enqueueENSt6__ndk18functionIFvvEEE
000000000040cc04 T _ZN7httplib10ThreadPool8shutdownEv
000000000040c12c T _ZN7httplib10ThreadPoolC1Emmml
000000000040c12c T _ZN7httplib10ThreadPoolC2Emmml
000000000044eed4 W _ZN7httplib10ThreadPoolD0Ev
000000000044ed5c W _ZN7httplib10ThreadPoolD2Ev
00000000004077a4 T _ZN7httplib10decode_uriERKNSt6__ndk112basic_stringIcNS0_11char_traitsIcEENS0_9allocatorIcEEEE
0000000000407360 T _ZN7httplib10encode_uriERKNSt6__ndk112basic_stringIcNS0_11char_traitsIcEENS0_9allocatorIcEEEE
000000000041d4a0 W _ZN7httplib13ContentReaderD2Ev
000000000041d77c T _ZN7httplib13get_client_ipERKNSt6__ndk112basic_stringIcNS0_11char_traitsIcEENS0_9allocatorIcEEEERKNS0_6vectorIS6_NS4_IS6_EEEE
00000000004056a0 T _ZN7httplib14set_socket_optEiiii
00000000003fa2b8 T _ZN7httplib14status_messageEi
000000000043df80 T _ZN7httplib16ClientConnectionD1Ev
000000000043df80 T _ZN7httplib16ClientConnectionD2Ev
000000000044f4e8 W _ZN7httplib17MultipartFormDataD2Ev
0000000000408a7c T _ZN7httplib17make_range_headerERKNSt6__ndk16vectorINS0_4pairIllEENS0_9allocatorIS3_EEEE
0000000000408174 T _ZN7httplib17sanitize_filenameERKNSt6__ndk112basic_stringIcNS0_11char_traitsIcEENS0_9allocatorIcEEEE
00000000004087c0 T _ZN7httplib19append_query_paramsERKNSt6__ndk112basic_stringIcNS0_11char_traitsIcEENS0_9allocatorIcEEEERKNS0_8multimapIS6_S6_NS0_4lessIS6_EENS4_INS0_4pairIS7_S6_EEEEEE
00000000004075fc T _ZN7httplib20decode_uri_componentERKNSt6__ndk112basic_stringIcNS0_11char_traitsIcEENS0_9allocatorIcEEEE
00000000004070c8 T _ZN7httplib20encode_uri_componentERKNSt6__ndk112basic_stringIcNS0_11char_traitsIcEENS0_9allocatorIcEEEE
0000000000407af4 T _ZN7httplib21decode_path_componentERKNSt6__ndk112basic_stringIcNS0_11char_traitsIcEENS0_9allocatorIcEEEE
000000000040794c T _ZN7httplib21encode_path_componentERKNSt6__ndk112basic_stringIcNS0_11char_traitsIcEENS0_9allocatorIcEEEE
00000000004056f8 T _ZN7httplib21get_bearer_token_authERKNS_7RequestE
0000000000407f90 T _ZN7httplib22decode_query_componentERKNSt6__ndk112basic_stringIcNS0_11char_traitsIcEENS0_9allocatorIcEEEEb
0000000000405644 T _ZN7httplib22default_socket_optionsEi
00000000003faa04 T _ZN7httplib22encode_query_componentERKNSt6__ndk112basic_stringIcNS0_11char_traitsIcEENS0_9allocatorIcEEEEb
000000000040a330 T _ZN7httplib23MultipartFormDataWriter8item_endEv
000000000040a2cc T _ZN7httplib23MultipartFormDataWriterC1ENSt6__ndk112basic_stringIcNS1_11char_traitsIcEENS1_9allocatorIcEEEE
000000000040a204 T _ZN7httplib23MultipartFormDataWriterC1Ev
000000000040a2cc T _ZN7httplib23MultipartFormDataWriterC2ENSt6__ndk112basic_stringIcNS1_11char_traitsIcEENS1_9allocatorIcEEEE
000000000040a204 T _ZN7httplib23MultipartFormDataWriterC2Ev
000000000040a17c T _ZN7httplib27is_valid_multipart_boundaryERKNSt6__ndk112basic_stringIcNS0_11char_traitsIcEENS0_9allocatorIcEEEE
000000000044e130 T _ZN7httplib2ws15WebSocketClient13create_streamERNSt6__ndk110unique_ptrINS_6StreamENS2_14default_deleteIS4_EEEE
000000000044eb08 T _ZN7httplib2ws15WebSocketClient13set_interfaceERKNSt6__ndk112basic_stringIcNS2_11char_traitsIcEENS2_9allocatorIcEEEE
000000000044ea54 T _ZN7httplib2ws15WebSocketClient15set_ipv6_v6onlyEb
000000000044ea44 T _ZN7httplib2ws15WebSocketClient15set_tcp_nodelayEb
000000000044ec38 T _ZN7httplib2ws15WebSocketClient16enable_system_caEb
000000000044eb84 T _ZN7httplib2ws15WebSocketClient16set_ca_cert_pathERKNSt6__ndk112basic_stringIcNS2_11char_traitsIcEENS2_9allocatorIcEEEE
000000000044ea24 T _ZN7httplib2ws15WebSocketClient16set_read_timeoutEll
000000000044eb8c T _ZN7httplib2ws15WebSocketClient17set_ca_cert_storeEPv
000000000044ea2c T _ZN7httplib2ws15WebSocketClient17set_write_timeoutEll
000000000044ebf8 T _ZN7httplib2ws15WebSocketClient18load_ca_cert_storeEPKcm
000000000044ea4c T _ZN7httplib2ws15WebSocketClient18set_address_familyEi
000000000044ea5c T _ZN7httplib2ws15WebSocketClient18set_socket_optionsENSt6__ndk18functionIFviEEE
000000000044df54 T _ZN7httplib2ws15WebSocketClient18shutdown_and_closeEv
000000000044eb10 T _ZN7httplib2ws15WebSocketClient21set_hostname_addr_mapENSt6__ndk13mapINS2_12basic_stringIcNS2_11char_traitsIcEENS2_9allocatorIcEEEES9_NS2_4lessIS9_EENS7_INS2_4pairIKS9_S9_EEEEEE
000000000044eb00 T _ZN7httplib2ws15WebSocketClient22set_connection_timeoutEll
000000000044ea34 T _ZN7httplib2ws15WebSocketClient27set_websocket_ping_intervalEl
000000000044ea3c T _ZN7httplib2ws15WebSocketClient30set_websocket_max_missed_pongsEi
000000000044ec30 T _ZN7httplib2ws15WebSocketClient38enable_server_certificate_verificationEb
000000000044e878 T _ZN7httplib2ws15WebSocketClient4readERNSt6__ndk112basic_stringIcNS2_11char_traitsIcEENS2_9allocatorIcEEEE
000000000044e948 T _ZN7httplib2ws15WebSocketClient4sendEPKcm
000000000044e888 T _ZN7httplib2ws15WebSocketClient4sendERKNSt6__ndk112basic_stringIcNS2_11char_traitsIcEENS2_9allocatorIcEEEE
000000000044e9f0 T _ZN7httplib2ws15WebSocketClient5closeENS0_11CloseStatusERKNSt6__ndk112basic_stringIcNS3_11char_traitsIcEENS3_9allocatorIcEEEE
000000000044e2f4 T _ZN7httplib2ws15WebSocketClient7connectEv
000000000044d6c0 T _ZN7httplib2ws15WebSocketClientC1ERKNSt6__ndk112basic_stringIcNS2_11char_traitsIcEENS2_9allocatorIcEEEERKNS2_18unordered_multimapIS8_S8_NS_6detail11case_ignore4hashENSD_8equal_toENS6_INS2_4pairIS9_S8_EEEEEE
000000000044d6c0 T _ZN7httplib2ws15WebSocketClientC2ERKNSt6__ndk112basic_stringIcNS2_11char_traitsIcEENS2_9allocatorIcEEEERKNS2_18unordered_multimapIS8_S8_NS_6detail11case_ignore4hashENSD_8equal_toENS6_INS2_4pairIS9_S8_EEEEEE
000000000044de04 T _ZN7httplib2ws15WebSocketClientD1Ev
000000000044de04 T _ZN7httplib2ws15WebSocketClientD2Ev
00000000003f0810 T _ZN7httplib2ws4impl13is_valid_utf8ERKNSt6__ndk112basic_stringIcNS2_11char_traitsIcEENS2_9allocatorIcEEEE
00000000003f2510 T _ZN7httplib2ws4impl20read_websocket_frameERNS_6StreamERNS0_6OpcodeERNSt6__ndk112basic_stringIcNS6_11char_traitsIcEENS6_9allocatorIcEEEERbbm
000000000044c934 T _ZN7httplib2ws9WebSocket10send_frameENS0_6OpcodeEPKcmb
000000000044d58c T _ZN7httplib2ws9WebSocket15start_heartbeatEv
000000000044c9d4 T _ZN7httplib2ws9WebSocket4readERNSt6__ndk112basic_stringIcNS2_11char_traitsIcEENS2_9allocatorIcEEEE
000000000044d460 T _ZN7httplib2ws9WebSocket4sendEPKcm
000000000044d3bc T _ZN7httplib2ws9WebSocket4sendERKNSt6__ndk112basic_stringIcNS2_11char_traitsIcEENS2_9allocatorIcEEEE
000000000044d108 T _ZN7httplib2ws9WebSocket5closeENS0_11CloseStatusERKNSt6__ndk112basic_stringIcNS3_11char_traitsIcEENS3_9allocatorIcEEEE
000000000044e798 W _ZN7httplib2ws9WebSocketC2EONSt6__ndk110unique_ptrINS_6StreamENS2_14default_deleteIS4_EEEERKNS_7RequestEbli
000000000041ff90 W _ZN7httplib2ws9WebSocketC2ERNS_6StreamERKNS_7RequestEbli
000000000044d4f0 T _ZN7httplib2ws9WebSocketD1Ev
000000000044d4f0 T _ZN7httplib2ws9WebSocketD2Ev
0000000000408e5c T _ZN7httplib32make_basic_authentication_headerERKNSt6__ndk112basic_stringIcNS0_11char_traitsIcEENS0_9allocatorIcEEEES8_b
00000000004091cc T _ZN7httplib39make_bearer_token_authentication_headerERKNSt6__ndk112basic_stringIcNS0_11char_traitsIcEENS0_9allocatorIcEEEEb
00000000003ede84 T _ZN7httplib3sse10SSEMessage5clearEv
00000000003eddd8 T _ZN7httplib3sse10SSEMessageC1Ev
00000000003eddd8 T _ZN7httplib3sse10SSEMessageC2Ev
00000000003efa0c W _ZN7httplib3sse10SSEMessageD2Ev
00000000003ee1b0 T _ZN7httplib3sse9SSEClient10on_messageENSt6__ndk18functionIFvRKNS0_10SSEMessageEEEE
00000000003ee4b0 T _ZN7httplib3sse9SSEClient11set_headersERKNSt6__ndk118unordered_multimapINS2_12basic_stringIcNS2_11char_traitsIcEENS2_9allocatorIcEEEES9_NS_6detail11case_ignore4hashENSB_8equal_toENS7_INS2_4pairIKS9_S9_EEEEEE
00000000003eee80 T _ZN7httplib3sse9SSEClient11start_asyncEv
00000000003ef9ac T _ZN7httplib3sse9SSEClient14dispatch_eventERKNS0_10SSEMessageE
00000000003eefa4 T _ZN7httplib3sse9SSEClient14parse_sse_lineERKNSt6__ndk112basic_stringIcNS2_11char_traitsIcEENS2_9allocatorIcEEEERNS0_10SSEMessageERi
00000000003ee540 T _ZN7httplib3sse9SSEClient14run_event_loopEv
00000000003ef914 T _ZN7httplib3sse9SSEClient18wait_for_reconnectEv
00000000003ee4a0 T _ZN7httplib3sse9SSEClient22set_reconnect_intervalEi
00000000003ee4a8 T _ZN7httplib3sse9SSEClient26set_max_reconnect_attemptsEi
00000000003ee168 T _ZN7httplib3sse9SSEClient4stopEv
00000000003ee530 T _ZN7httplib3sse9SSEClient5startEv
00000000003ee348 T _ZN7httplib3sse9SSEClient7on_openENSt6__ndk18functionIFvvEEE
00000000003ee3f4 T _ZN7httplib3sse9SSEClient8on_errorENSt6__ndk18functionIFvNS_5ErrorEEEE
00000000003ee25c T _ZN7httplib3sse9SSEClient8on_eventERKNSt6__ndk112basic_stringIcNS2_11char_traitsIcEENS2_9allocatorIcEEEENS2_8functionIFvRKNS0_10SSEMessageEEEE
00000000003edef0 T _ZN7httplib3sse9SSEClientC1ERNS_6ClientERKNSt6__ndk112basic_stringIcNS4_11char_traitsIcEENS4_9allocatorIcEEEE
00000000003edf80 T _ZN7httplib3sse9SSEClientC1ERNS_6ClientERKNSt6__ndk112basic_stringIcNS4_11char_traitsIcEENS4_9allocatorIcEEEERKNS4_18unordered_multimapISA_SA_NS_6detail11case_ignore4hashENSF_8equal_toENS8_INS4_4pairISB_SA_EEEEEE
00000000003edef0 T _ZN7httplib3sse9SSEClientC2ERNS_6ClientERKNSt6__ndk112basic_stringIcNS4_11char_traitsIcEENS4_9allocatorIcEEEE
00000000003edf80 T _ZN7httplib3sse9SSEClientC2ERNS_6ClientERKNSt6__ndk112basic_stringIcNS4_11char_traitsIcEENS4_9allocatorIcEEEERKNS4_18unordered_multimapISA_SA_NS_6detail11case_ignore4hashENSF_8equal_toENS8_INS4_4pairISB_SA_EEEEEE
00000000003ee044 T _ZN7httplib3sse9SSEClientD1Ev
00000000003ee044 T _ZN7httplib3sse9SSEClientD2Ev
000000000044c150 T _ZN7httplib3tls10peek_errorEv
0000000000404b00 T _ZN7httplib3tls11load_ca_dirEPvPKc
00000000004471d0 T _ZN7httplib3tls11load_ca_pemEPvPKcm
000000000044c168 T _ZN7httplib3tls12error_stringEm
0000000000446fc4 T _ZN7httplib3tls12free_contextEPv
000000000043e024 T _ZN7httplib3tls12free_sessionEPv
000000000044c408 T _ZN7httplib3tls12get_ca_certsEPvRNSt6__ndk16vectorIS1_NS2_9allocatorIS1_EEEE
000000000044c698 T _ZN7httplib3tls12get_ca_namesEPv
000000000044bffc T _ZN7httplib3tls12get_cert_derEPvRNSt6__ndk16vectorIhNS2_9allocatorIhEEEE
0000000000404ab4 T _ZN7httplib3tls12load_ca_fileEPvPKc
0000000000449afc T _ZN7httplib3tls12set_ca_storeEPvS1_
0000000000404e88 T _ZN7httplib3tls12set_hostnameEPvPKc
0000000000449b50 T _ZN7httplib3tls13free_ca_storeEPv
000000000044ae7c T _ZN7httplib3tls13get_cert_sansEPvRNSt6__ndk16vectorINS0_8SanEntryENS2_9allocatorIS4_EEEE
0000000000405464 T _ZN7httplib3tls13get_peer_certEPKv
0000000000404e0c T _ZN7httplib3tls14create_sessionEPvi
000000000040feb0 T _ZN7httplib3tls14is_peer_closedEPvi
000000000044c244 T _ZN7httplib3tls15create_ca_storeEPKcm
000000000044b534 T _ZN7httplib3tls15get_cert_serialEPv
00000000004496f8 T _ZN7httplib3tls15set_min_versionEPvNS0_7VersionE
0000000000405470 T _ZN7httplib3tls15verify_hostnameEPvPKc
000000000044c924 T _ZN7httplib3tls16get_verify_errorEPKv
000000000044b36c T _ZN7httplib3tls17get_cert_validityEPvRlS2_
0000000000405454 T _ZN7httplib3tls17get_verify_resultEPKv
0000000000404b38 T _ZN7httplib3tls17load_system_certsEPv
0000000000447098 T _ZN7httplib3tls17set_verify_clientEPvb
0000000000447980 T _ZN7httplib3tls18accept_nonblockingEPvillPNS0_8TlsErrorE
0000000000446fd0 T _ZN7httplib3tls18set_client_ca_fileEPvPKcS3_
0000000000447dd0 T _ZN7httplib3tls18update_server_certEPvPKcS3_S3_
00000000004050f8 T _ZN7httplib3tls19connect_nonblockingEPvillPNS0_8TlsErrorE
000000000044a954 T _ZN7httplib3tls19get_cert_subject_cnEPv
0000000000449964 T _ZN7httplib3tls19set_client_cert_pemEPvPKcS3_S3_
00000000004471cc T _ZN7httplib3tls19set_server_cert_pemEPvPKcS3_S3_
0000000000449c68 T _ZN7httplib3tls19set_verify_callbackEPvNSt6__ndk18functionIFbRKNS0_13VerifyContextEEEE
000000000044b8e4 T _ZN7httplib3tls19verify_error_stringEl
000000000044acbc T _ZN7httplib3tls20get_cert_issuer_nameEPv
0000000000449754 T _ZN7httplib3tls20set_client_cert_fileEPvPKcS3_S3_
0000000000446f30 T _ZN7httplib3tls20set_server_cert_fileEPvPKcS3_S3_
00000000004496b4 T _ZN7httplib3tls21create_client_contextEv
0000000000446eec T _ZN7httplib3tls21create_server_contextEv
0000000000449f44 T _ZN7httplib3tls22hostname_mismatch_codeEv
0000000000447ef8 T _ZN7httplib3tls23update_server_client_caEPvPKc
000000000044a408 T _ZN7httplib3tls26get_peer_cert_from_sessionEPKv
000000000044a5b8 T _ZN7httplib3tls4impl10parse_ipv4ERKNSt6__ndk112basic_stringIcNS2_11char_traitsIcEENS2_9allocatorIcEEEEPh
000000000044bb2c T _ZN7httplib3tls4impl13map_ssl_errorEiRi
000000000044a88c T _ZN7httplib3tls4impl14system_ca_dirsEv
000000000044a548 T _ZN7httplib3tls4impl15is_ipv4_addressERKNSt6__ndk112basic_stringIcNS2_11char_traitsIcEENS2_9allocatorIcEEEE
000000000044a880 T _ZN7httplib3tls4impl15system_ca_pathsEv
000000000044a7a0 T _ZN7httplib3tls4impl16parse_ip_addressERKNSt6__ndk112basic_stringIcNS2_11char_traitsIcEENS2_9allocatorIcEEEEPh
000000000044be2c T _ZN7httplib3tls4impl17get_store_objectsEP13x509_store_st
000000000044a448 T _ZN7httplib3tls4impl19get_verify_callbackEv
000000000044be30 T _ZN7httplib3tls4impl21release_store_objectsEP20stack_st_X509_OBJECT
000000000044bca4 T _ZN7httplib3tls4impl23openssl_verify_callbackEiP17x509_store_ctx_st
000000000044a4c8 T _ZN7httplib3tls4impl27get_mbedtls_verify_callbackEv
000000000044bba8 T _ZN7httplib3tls4impl30create_client_ca_list_from_pemEPKc
0000000000410298 T _ZN7httplib3tls4readEPvS1_mRNS0_8TlsErrorE
0000000000410528 T _ZN7httplib3tls5writeEPvPKvmRNS0_8TlsErrorE
000000000044bf18 T _ZN7httplib3tls6acceptEPv
000000000044be34 T _ZN7httplib3tls7connectEPv
000000000044bb1c T _ZN7httplib3tls7get_sniEPKv
000000000040fb80 T _ZN7httplib3tls7pendingEPKv
00000000004050c8 T _ZN7httplib3tls7set_sniEPvPKc
000000000044a8a8 T _ZN7httplib3tls8PeerCertC1EOS1_
000000000044a8a0 T _ZN7httplib3tls8PeerCertC1EPv
000000000044a898 T _ZN7httplib3tls8PeerCertC1Ev
000000000044a8a8 T _ZN7httplib3tls8PeerCertC2EOS1_
000000000044a8a0 T _ZN7httplib3tls8PeerCertC2EPv
000000000044a898 T _ZN7httplib3tls8PeerCertC2Ev
000000000044a90c T _ZN7httplib3tls8PeerCertD1Ev
000000000044a90c T _ZN7httplib3tls8PeerCertD2Ev
000000000044a8b8 T _ZN7httplib3tls8PeerCertaSEOS1_
000000000044b8e0 T _ZN7httplib3tls8TlsError22verify_error_to_stringEl
000000000043dfe8 T _ZN7httplib3tls8shutdownEPvb
000000000044a900 T _ZN7httplib3tls9free_certEPv
0000000000404ae8 T _ZN7httplib3tls9get_errorEv
0000000000446acc T _ZN7httplib6Client10set_loggerENSt6__ndk18functionIFvRKNS_7RequestERKNS_8ResponseEEEE
00000000004463e4 T _ZN7httplib6Client11open_streamERKNSt6__ndk112basic_stringIcNS1_11char_traitsIcEENS1_9allocatorIcEEEES9_RKNS1_8multimapIS7_S7_NS1_4lessIS7_EENS5_INS1_4pairIS8_S7_EEEEEERKNS1_18unordered_multimapIS7_S7_NS_6detail11case_ignore4hashENSL_8equal_toESF_EES9_S9_
0000000000446a48 T _ZN7httplib6Client12set_compressEb
0000000000446ac4 T _ZN7httplib6Client12set_no_proxyERKNSt6__ndk16vectorINS1_12basic_stringIcNS1_11char_traitsIcEENS1_9allocatorIcEEEENS6_IS8_EEEE
0000000000446a74 T _ZN7httplib6Client13set_interfaceERKNSt6__ndk112basic_stringIcNS1_11char_traitsIcEENS1_9allocatorIcEEEE
00000000004469e8 T _ZN7httplib6Client14set_basic_authERKNSt6__ndk112basic_stringIcNS1_11char_traitsIcEENS1_9allocatorIcEEEES9_
0000000000446a54 T _ZN7httplib6Client14set_decompressEb
0000000000446a24 T _ZN7httplib6Client14set_keep_aliveEb
0000000000449f4c T _ZN7httplib6Client15set_digest_authERKNSt6__ndk112basic_stringIcNS1_11char_traitsIcEENS1_9allocatorIcEEEES9_
0000000000446a3c T _ZN7httplib6Client15set_path_encodeEb
0000000000446890 T _ZN7httplib6Client15set_tcp_nodelayEb
0000000000449fc4 T _ZN7httplib6Client16enable_system_caEb
0000000000449fdc T _ZN7httplib6Client16set_ca_cert_pathERKNSt6__ndk112basic_stringIcNS1_11char_traitsIcEENS1_9allocatorIcEEEES9_
0000000000446bf4 T _ZN7httplib6Client16set_error_loggerENSt6__ndk18functionIFvRKNS_5ErrorEPKNS_7RequestEEEE
00000000004469d0 T _ZN7httplib6Client16set_read_timeoutEll
000000000044a00c T _ZN7httplib6Client17set_ca_cert_storeEPv
00000000004467c0 T _ZN7httplib6Client17set_header_writerERKNSt6__ndk18functionIFlRNS_6StreamERNS1_18unordered_multimapINS1_12basic_stringIcNS1_11char_traitsIcEENS1_9allocatorIcEEEESB_NS_6detail11case_ignore4hashENSD_8equal_toENS9_INS1_4pairIKSB_SB_EEEEEEEEE
00000000004469dc T _ZN7httplib6Client17set_write_timeoutEll
000000000044a08c T _ZN7httplib6Client18load_ca_cert_storeEPKcm
0000000000446884 T _ZN7httplib6Client18set_address_familyEi
000000000044689c T _ZN7httplib6Client18set_socket_optionsENSt6__ndk18functionIFviEEE
0000000000446690 T _ZN7httplib6Client19set_default_headersENSt6__ndk118unordered_multimapINS1_12basic_stringIcNS1_11char_traitsIcEENS1_9allocatorIcEEEES8_NS_6detail11case_ignore4hashENSA_8equal_toENS6_INS1_4pairIKS8_S8_EEEEEE
0000000000446a30 T _ZN7httplib6Client19set_follow_locationEb
0000000000446a88 T _ZN7httplib6Client20set_proxy_basic_authERKNSt6__ndk112basic_stringIcNS1_11char_traitsIcEENS1_9allocatorIcEEEES9_
000000000044a2b4 T _ZN7httplib6Client20set_session_verifierENSt6__ndk18functionIFNS_19SSLVerifierResponseEPvEEE
0000000000446a18 T _ZN7httplib6Client21set_bearer_token_authERKNSt6__ndk112basic_stringIcNS1_11char_traitsIcEENS1_9allocatorIcEEEE
00000000004465b4 T _ZN7httplib6Client21set_hostname_addr_mapENSt6__ndk13mapINS1_12basic_stringIcNS1_11char_traitsIcEENS1_9allocatorIcEEEES8_NS1_4lessIS8_EENS6_INS1_4pairIKS8_S8_EEEEEE
0000000000449f7c T _ZN7httplib6Client21set_proxy_digest_authERKNSt6__ndk112basic_stringIcNS1_11char_traitsIcEENS1_9allocatorIcEEEES9_
00000000004469c4 T _ZN7httplib6Client22set_connection_timeoutEll
0000000000446a60 T _ZN7httplib6Client22set_payload_max_lengthEm
0000000000446ab8 T _ZN7httplib6Client27set_proxy_bearer_token_authERKNSt6__ndk112basic_stringIcNS1_11char_traitsIcEENS1_9allocatorIcEEEE
000000000044a0f8 T _ZN7httplib6Client31set_server_certificate_verifierENSt6__ndk18functionIFbRKNS_3tls13VerifyContextEEEE
0000000000449fb8 T _ZN7httplib6Client35enable_server_hostname_verificationEb
0000000000449fac T _ZN7httplib6Client38enable_server_certificate_verificationEb
000000000043ec30 T _ZN7httplib6Client3GetERKNSt6__ndk112basic_stringIcNS1_11char_traitsIcEENS1_9allocatorIcEEEENS1_8functionIFbPKcmEEENSA_IFbmmEEE
000000000043eff8 T _ZN7httplib6Client3GetERKNSt6__ndk112basic_stringIcNS1_11char_traitsIcEENS1_9allocatorIcEEEENS1_8functionIFbRKNS_8ResponseEEEENSA_IFbPKcmEEENSA_IFbmmEEE
000000000043e9d8 T _ZN7httplib6Client3GetERKNSt6__ndk112basic_stringIcNS1_11char_traitsIcEENS1_9allocatorIcEEEENS1_8functionIFbmmEEE
000000000043ee0c T _ZN7httplib6Client3GetERKNSt6__ndk112basic_stringIcNS1_11char_traitsIcEENS1_9allocatorIcEEEERKNS1_18unordered_multimapIS7_S7_NS_6detail11case_ignore4hashENSC_8equal_toENS5_INS1_4pairIS8_S7_EEEEEENS1_8functionIFbPKcmEEENSL_IFbmmEEE
000000000043f284 T _ZN7httplib6Client3GetERKNSt6__ndk112basic_stringIcNS1_11char_traitsIcEENS1_9allocatorIcEEEERKNS1_18unordered_multimapIS7_S7_NS_6detail11case_ignore4hashENSC_8equal_toENS5_INS1_4pairIS8_S7_EEEEEENS1_8functionIFbRKNS_8ResponseEEEENSL_IFbPKcmEEENSL_IFbmmEEE
000000000043eafc T _ZN7httplib6Client3GetERKNSt6__ndk112basic_stringIcNS1_11char_traitsIcEENS1_9allocatorIcEEEERKNS1_18unordered_multimapIS7_S7_NS_6detail11case_ignore4hashENSC_8equal_toENS5_INS1_4pairIS8_S7_EEEEEENS1_8functionIFbmmEEE
000000000043f530 T _ZN7httplib6Client3GetERKNSt6__ndk112basic_stringIcNS1_11char_traitsIcEENS1_9allocatorIcEEEERKNS1_8multimapIS7_S7_NS1_4lessIS7_EENS5_INS1_4pairIS8_S7_EEEEEENS1_8functionIFbmmEEE
000000000043f7a0 T _ZN7httplib6Client3GetERKNSt6__ndk112basic_stringIcNS1_11char_traitsIcEENS1_9allocatorIcEEEERKNS1_8multimapIS7_S7_NS1_4lessIS7_EENS5_INS1_4pairIS8_S7_EEEEEERKNS1_18unordered_multimapIS7_S7_NS_6detail11case_ignore4hashENSL_8equal_toESF_EENS1_8functionIFbPKcmEEENSR_IFbmmEEE
000000000043f9a4 T _ZN7httplib6Client3GetERKNSt6__ndk112basic_stringIcNS1_11char_traitsIcEENS1_9allocatorIcEEEERKNS1_8multimapIS7_S7_NS1_4lessIS7_EENS5_INS1_4pairIS8_S7_EEEEEERKNS1_18unordered_multimapIS7_S7_NS_6detail11case_ignore4hashENSL_8equal_toESF_EENS1_8functionIFbRKNS_8ResponseEEEENSR_IFbPKcmEEENSR_IFbmmEEE
000000000043f664 T _ZN7httplib6Client3GetERKNSt6__ndk112basic_stringIcNS1_11char_traitsIcEENS1_9allocatorIcEEEERKNS1_8multimapIS7_S7_NS1_4lessIS7_EENS5_INS1_4pairIS8_S7_EEEEEERKNS1_18unordered_multimapIS7_S7_NS_6detail11case_ignore4hashENSL_8equal_toESF_EENS1_8functionIFbmmEEE
0000000000441b9c T _ZN7httplib6Client3PutERKNSt6__ndk112basic_stringIcNS1_11char_traitsIcEENS1_9allocatorIcEEEE
00000000004427c4 T _ZN7httplib6Client3PutERKNSt6__ndk112basic_stringIcNS1_11char_traitsIcEENS1_9allocatorIcEEEENS1_8functionIFbmRNS_8DataSinkEEEES9_NSA_IFbPKcmEEENSA_IFbmmEEE
00000000004425ec T _ZN7httplib6Client3PutERKNSt6__ndk112basic_stringIcNS1_11char_traitsIcEENS1_9allocatorIcEEEENS1_8functionIFbmRNS_8DataSinkEEEES9_NSA_IFbmmEEE
0000000000441c54 T _ZN7httplib6Client3PutERKNSt6__ndk112basic_stringIcNS1_11char_traitsIcEENS1_9allocatorIcEEEEPKcmS9_NS1_8functionIFbmmEEE
0000000000441ba4 T _ZN7httplib6Client3PutERKNSt6__ndk112basic_stringIcNS1_11char_traitsIcEENS1_9allocatorIcEEEERKNS1_18unordered_multimapIS7_S7_NS_6detail11case_ignore4hashENSC_8equal_toENS5_INS1_4pairIS8_S7_EEEEEE
00000000004430b4 T _ZN7httplib6Client3PutERKNSt6__ndk112basic_stringIcNS1_11char_traitsIcEENS1_9allocatorIcEEEERKNS1_18unordered_multimapIS7_S7_NS_6detail11case_ignore4hashENSC_8equal_toENS5_INS1_4pairIS8_S7_EEEEEENS1_8functionIFbmRNS_8DataSinkEEEES9_NSL_IFbPKcmEEENSL_IFbmmEEE
0000000000442ecc T _ZN7httplib6Client3PutERKNSt6__ndk112basic_stringIcNS1_11char_traitsIcEENS1_9allocatorIcEEEERKNS1_18unordered_multimapIS7_S7_NS_6detail11case_ignore4hashENSC_8equal_toENS5_INS1_4pairIS8_S7_EEEEEENS1_8functionIFbmRNS_8DataSinkEEEES9_NSL_IFbmmEEE
0000000000441da0 T _ZN7httplib6Client3PutERKNSt6__ndk112basic_stringIcNS1_11char_traitsIcEENS1_9allocatorIcEEEERKNS1_18unordered_multimapIS7_S7_NS_6detail11case_ignore4hashENSC_8equal_toENS5_INS1_4pairIS8_S7_EEEEEEPKcmS9_NS1_8functionIFbmmEEE
0000000000443480 T _ZN7httplib6Client3PutERKNSt6__ndk112basic_stringIcNS1_11char_traitsIcEENS1_9allocatorIcEEEERKNS1_18unordered_multimapIS7_S7_NS_6detail11case_ignore4hashENSC_8equal_toENS5_INS1_4pairIS8_S7_EEEEEERKNS1_6vectorINS_14UploadFormDataENS5_ISM_EEEENS1_8functionIFbmmEEE
0000000000443708 T _ZN7httplib6Client3PutERKNSt6__ndk112basic_stringIcNS1_11char_traitsIcEENS1_9allocatorIcEEEERKNS1_18unordered_multimapIS7_S7_NS_6detail11case_ignore4hashENSC_8equal_toENS5_INS1_4pairIS8_S7_EEEEEERKNS1_6vectorINS_14UploadFormDataENS5_ISM_EEEERKNSL_INS_16FormDataProviderENS5_ISR_EEEENS1_8functionIFbmmEEE
00000000004435bc T _ZN7httplib6Client3PutERKNSt6__ndk112basic_stringIcNS1_11char_traitsIcEENS1_9allocatorIcEEEERKNS1_18unordered_multimapIS7_S7_NS_6detail11case_ignore4hashENSC_8equal_toENS5_INS1_4pairIS8_S7_EEEEEERKNS1_6vectorINS_14UploadFormDataENS5_ISM_EEEES9_NS1_8functionIFbmmEEE
0000000000443344 T _ZN7httplib6Client3PutERKNSt6__ndk112basic_stringIcNS1_11char_traitsIcEENS1_9allocatorIcEEEERKNS1_18unordered_multimapIS7_S7_NS_6detail11case_ignore4hashENSC_8equal_toENS5_INS1_4pairIS8_S7_EEEEEERKNS1_8multimapIS7_S7_NS1_4lessIS7_EESH_EE
0000000000443854 T _ZN7httplib6Client3PutERKNSt6__ndk112basic_stringIcNS1_11char_traitsIcEENS1_9allocatorIcEEEERKNS1_18unordered_multimapIS7_S7_NS_6detail11case_ignore4hashENSC_8equal_toENS5_INS1_4pairIS8_S7_EEEEEES9_S9_NS1_8functionIFbPKcmEEENSL_IFbmmEEE
0000000000442030 T _ZN7httplib6Client3PutERKNSt6__ndk112basic_stringIcNS1_11char_traitsIcEENS1_9allocatorIcEEEERKNS1_18unordered_multimapIS7_S7_NS_6detail11case_ignore4hashENSC_8equal_toENS5_INS1_4pairIS8_S7_EEEEEES9_S9_NS1_8functionIFbmmEEE
0000000000442c34 T _ZN7httplib6Client3PutERKNSt6__ndk112basic_stringIcNS1_11char_traitsIcEENS1_9allocatorIcEEEERKNS1_18unordered_multimapIS7_S7_NS_6detail11case_ignore4hashENSC_8equal_toENS5_INS1_4pairIS8_S7_EEEEEEmNS1_8functionIFbmmRNS_8DataSinkEEEES9_NSL_IFbPKcmEEENSL_IFbmmEEE
0000000000442a44 T _ZN7httplib6Client3PutERKNSt6__ndk112basic_stringIcNS1_11char_traitsIcEENS1_9allocatorIcEEEERKNS1_18unordered_multimapIS7_S7_NS_6detail11case_ignore4hashENSC_8equal_toENS5_INS1_4pairIS8_S7_EEEEEEmNS1_8functionIFbmmRNS_8DataSinkEEEES9_NSL_IFbmmEEE
000000000044334c T _ZN7httplib6Client3PutERKNSt6__ndk112basic_stringIcNS1_11char_traitsIcEENS1_9allocatorIcEEEERKNS1_6vectorINS_14UploadFormDataENS5_ISB_EEEENS1_8functionIFbmmEEE
000000000044333c T _ZN7httplib6Client3PutERKNSt6__ndk112basic_stringIcNS1_11char_traitsIcEENS1_9allocatorIcEEEERKNS1_8multimapIS7_S7_NS1_4lessIS7_EENS5_INS1_4pairIS8_S7_EEEEEE
0000000000441ef4 T _ZN7httplib6Client3PutERKNSt6__ndk112basic_stringIcNS1_11char_traitsIcEENS1_9allocatorIcEEEES9_S9_NS1_8functionIFbmmEEE
0000000000442364 T _ZN7httplib6Client3PutERKNSt6__ndk112basic_stringIcNS1_11char_traitsIcEENS1_9allocatorIcEEEEmNS1_8functionIFbmmRNS_8DataSinkEEEES9_NSA_IFbPKcmEEENSA_IFbmmEEE
000000000044217c T _ZN7httplib6Client3PutERKNSt6__ndk112basic_stringIcNS1_11char_traitsIcEENS1_9allocatorIcEEEEmNS1_8functionIFbmmRNS_8DataSinkEEEES9_NSA_IFbmmEEE
000000000043fc68 T _ZN7httplib6Client4HeadERKNSt6__ndk112basic_stringIcNS1_11char_traitsIcEENS1_9allocatorIcEEEE
000000000043fcec T _ZN7httplib6Client4HeadERKNSt6__ndk112basic_stringIcNS1_11char_traitsIcEENS1_9allocatorIcEEEERKNS1_18unordered_multimapIS7_S7_NS_6detail11case_ignore4hashENSC_8equal_toENS5_INS1_4pairIS8_S7_EEEEEE
000000000043fcf4 T _ZN7httplib6Client4PostERKNSt6__ndk112basic_stringIcNS1_11char_traitsIcEENS1_9allocatorIcEEEE
000000000044091c T _ZN7httplib6Client4PostERKNSt6__ndk112basic_stringIcNS1_11char_traitsIcEENS1_9allocatorIcEEEENS1_8functionIFbmRNS_8DataSinkEEEES9_NSA_IFbPKcmEEENSA_IFbmmEEE
0000000000440744 T _ZN7httplib6Client4PostERKNSt6__ndk112basic_stringIcNS1_11char_traitsIcEENS1_9allocatorIcEEEENS1_8functionIFbmRNS_8DataSinkEEEES9_NSA_IFbmmEEE
000000000043fdac T _ZN7httplib6Client4PostERKNSt6__ndk112basic_stringIcNS1_11char_traitsIcEENS1_9allocatorIcEEEEPKcmS9_NS1_8functionIFbmmEEE
000000000043fcfc T _ZN7httplib6Client4PostERKNSt6__ndk112basic_stringIcNS1_11char_traitsIcEENS1_9allocatorIcEEEERKNS1_18unordered_multimapIS7_S7_NS_6detail11case_ignore4hashENSC_8equal_toENS5_INS1_4pairIS8_S7_EEEEEE
000000000044120c T _ZN7httplib6Client4PostERKNSt6__ndk112basic_stringIcNS1_11char_traitsIcEENS1_9allocatorIcEEEERKNS1_18unordered_multimapIS7_S7_NS_6detail11case_ignore4hashENSC_8equal_toENS5_INS1_4pairIS8_S7_EEEEEENS1_8functionIFbmRNS_8DataSinkEEEES9_NSL_IFbPKcmEEENSL_IFbmmEEE
0000000000441024 T _ZN7httplib6Client4PostERKNSt6__ndk112basic_stringIcNS1_11char_traitsIcEENS1_9allocatorIcEEEERKNS1_18unordered_multimapIS7_S7_NS_6detail11case_ignore4hashENSC_8equal_toENS5_INS1_4pairIS8_S7_EEEEEENS1_8functionIFbmRNS_8DataSinkEEEES9_NSL_IFbmmEEE
000000000043fef8 T _ZN7httplib6Client4PostERKNSt6__ndk112basic_stringIcNS1_11char_traitsIcEENS1_9allocatorIcEEEERKNS1_18unordered_multimapIS7_S7_NS_6detail11case_ignore4hashENSC_8equal_toENS5_INS1_4pairIS8_S7_EEEEEEPKcmS9_NS1_8functionIFbmmEEE
00000000004415d8 T _ZN7httplib6Client4PostERKNSt6__ndk112basic_stringIcNS1_11char_traitsIcEENS1_9allocatorIcEEEERKNS1_18unordered_multimapIS7_S7_NS_6detail11case_ignore4hashENSC_8equal_toENS5_INS1_4pairIS8_S7_EEEEEERKNS1_6vectorINS_14UploadFormDataENS5_ISM_EEEENS1_8functionIFbmmEEE
0000000000441860 T _ZN7httplib6Client4PostERKNSt6__ndk112basic_stringIcNS1_11char_traitsIcEENS1_9allocatorIcEEEERKNS1_18unordered_multimapIS7_S7_NS_6detail11case_ignore4hashENSC_8equal_toENS5_INS1_4pairIS8_S7_EEEEEERKNS1_6vectorINS_14UploadFormDataENS5_ISM_EEEERKNSL_INS_16FormDataProviderENS5_ISR_EEEENS1_8functionIFbmmEEE
0000000000441714 T _ZN7httplib6Client4PostERKNSt6__ndk112basic_stringIcNS1_11char_traitsIcEENS1_9allocatorIcEEEERKNS1_18unordered_multimapIS7_S7_NS_6detail11case_ignore4hashENSC_8equal_toENS5_INS1_4pairIS8_S7_EEEEEERKNS1_6vectorINS_14UploadFormDataENS5_ISM_EEEES9_NS1_8functionIFbmmEEE
000000000044149c T _ZN7httplib6Client4PostERKNSt6__ndk112basic_stringIcNS1_11char_traitsIcEENS1_9allocatorIcEEEERKNS1_18unordered_multimapIS7_S7_NS_6detail11case_ignore4hashENSC_8equal_toENS5_INS1_4pairIS8_S7_EEEEEERKNS1_8multimapIS7_S7_NS1_4lessIS7_EESH_EE
00000000004419ac T _ZN7httplib6Client4PostERKNSt6__ndk112basic_stringIcNS1_11char_traitsIcEENS1_9allocatorIcEEEERKNS1_18unordered_multimapIS7_S7_NS_6detail11case_ignore4hashENSC_8equal_toENS5_INS1_4pairIS8_S7_EEEEEES9_S9_NS1_8functionIFbPKcmEEENSL_IFbmmEEE
0000000000440188 T _ZN7httplib6Client4PostERKNSt6__ndk112basic_stringIcNS1_11char_traitsIcEENS1_9allocatorIcEEEERKNS1_18unordered_multimapIS7_S7_NS_6detail11case_ignore4hashENSC_8equal_toENS5_INS1_4pairIS8_S7_EEEEEES9_S9_NS1_8functionIFbmmEEE
0000000000440d8c T _ZN7httplib6Client4PostERKNSt6__ndk112basic_stringIcNS1_11char_traitsIcEENS1_9allocatorIcEEEERKNS1_18unordered_multimapIS7_S7_NS_6detail11case_ignore4hashENSC_8equal_toENS5_INS1_4pairIS8_S7_EEEEEEmNS1_8functionIFbmmRNS_8DataSinkEEEES9_NSL_IFbPKcmEEENSL_IFbmmEEE
0000000000440b9c T _ZN7httplib6Client4PostERKNSt6__ndk112basic_stringIcNS1_11char_traitsIcEENS1_9allocatorIcEEEERKNS1_18unordered_multimapIS7_S7_NS_6detail11case_ignore4hashENSC_8equal_toENS5_INS1_4pairIS8_S7_EEEEEEmNS1_8functionIFbmmRNS_8DataSinkEEEES9_NSL_IFbmmEEE
00000000004414a4 T _ZN7httplib6Client4PostERKNSt6__ndk112basic_stringIcNS1_11char_traitsIcEENS1_9allocatorIcEEEERKNS1_6vectorINS_14UploadFormDataENS5_ISB_EEEENS1_8functionIFbmmEEE
0000000000441494 T _ZN7httplib6Client4PostERKNSt6__ndk112basic_stringIcNS1_11char_traitsIcEENS1_9allocatorIcEEEERKNS1_8multimapIS7_S7_NS1_4lessIS7_EENS5_INS1_4pairIS8_S7_EEEEEE
000000000044004c T _ZN7httplib6Client4PostERKNSt6__ndk112basic_stringIcNS1_11char_traitsIcEENS1_9allocatorIcEEEES9_S9_NS1_8functionIFbmmEEE
00000000004404bc T _ZN7httplib6Client4PostERKNSt6__ndk112basic_stringIcNS1_11char_traitsIcEENS1_9allocatorIcEEEEmNS1_8functionIFbmmRNS_8DataSinkEEEES9_NSA_IFbPKcmEEENSA_IFbmmEEE
00000000004402d4 T _ZN7httplib6Client4PostERKNSt6__ndk112basic_stringIcNS1_11char_traitsIcEENS1_9allocatorIcEEEEmNS1_8functionIFbmmRNS_8DataSinkEEEES9_NSA_IFbmmEEE
000000000044649c T _ZN7httplib6Client4sendERKNS_7RequestE
00000000004463ec T _ZN7httplib6Client4sendERNS_7RequestERNS_8ResponseERNS_5ErrorE
00000000003eef9c T _ZN7httplib6Client4stopEv
0000000000443a54 T _ZN7httplib6Client5PatchERKNSt6__ndk112basic_stringIcNS1_11char_traitsIcEENS1_9allocatorIcEEEE
000000000044461c T _ZN7httplib6Client5PatchERKNSt6__ndk112basic_stringIcNS1_11char_traitsIcEENS1_9allocatorIcEEEENS1_8functionIFbmRNS_8DataSinkEEEES9_NSA_IFbPKcmEEENSA_IFbmmEEE
0000000000444444 T _ZN7httplib6Client5PatchERKNSt6__ndk112basic_stringIcNS1_11char_traitsIcEENS1_9allocatorIcEEEENS1_8functionIFbmRNS_8DataSinkEEEES9_NSA_IFbmmEEE
0000000000443aac T _ZN7httplib6Client5PatchERKNSt6__ndk112basic_stringIcNS1_11char_traitsIcEENS1_9allocatorIcEEEEPKcmS9_NS1_8functionIFbmmEEE
0000000000443a5c T _ZN7httplib6Client5PatchERKNSt6__ndk112basic_stringIcNS1_11char_traitsIcEENS1_9allocatorIcEEEERKNS1_18unordered_multimapIS7_S7_NS_6detail11case_ignore4hashENSC_8equal_toENS5_INS1_4pairIS8_S7_EEEEEE
0000000000444f0c T _ZN7httplib6Client5PatchERKNSt6__ndk112basic_stringIcNS1_11char_traitsIcEENS1_9allocatorIcEEEERKNS1_18unordered_multimapIS7_S7_NS_6detail11case_ignore4hashENSC_8equal_toENS5_INS1_4pairIS8_S7_EEEEEENS1_8functionIFbmRNS_8DataSinkEEEES9_NSL_IFbPKcmEEENSL_IFbmmEEE
0000000000444d24 T _ZN7httplib6Client5PatchERKNSt6__ndk112basic_stringIcNS1_11char_traitsIcEENS1_9allocatorIcEEEERKNS1_18unordered_multimapIS7_S7_NS_6detail11case_ignore4hashENSC_8equal_toENS5_INS1_4pairIS8_S7_EEEEEENS1_8functionIFbmRNS_8DataSinkEEEES9_NSL_IFbmmEEE
0000000000443bf8 T _ZN7httplib6Client5PatchERKNSt6__ndk112basic_stringIcNS1_11char_traitsIcEENS1_9allocatorIcEEEERKNS1_18unordered_multimapIS7_S7_NS_6detail11case_ignore4hashENSC_8equal_toENS5_INS1_4pairIS8_S7_EEEEEEPKcmS9_NS1_8functionIFbmmEEE
00000000004452d8 T _ZN7httplib6Client5PatchERKNSt6__ndk112basic_stringIcNS1_11char_traitsIcEENS1_9allocatorIcEEEERKNS1_18unordered_multimapIS7_S7_NS_6detail11case_ignore4hashENSC_8equal_toENS5_INS1_4pairIS8_S7_EEEEEERKNS1_6vectorINS_14UploadFormDataENS5_ISM_EEEENS1_8functionIFbmmEEE
0000000000445560 T _ZN7httplib6Client5PatchERKNSt6__ndk112basic_stringIcNS1_11char_traitsIcEENS1_9allocatorIcEEEERKNS1_18unordered_multimapIS7_S7_NS_6detail11case_ignore4hashENSC_8equal_toENS5_INS1_4pairIS8_S7_EEEEEERKNS1_6vectorINS_14UploadFormDataENS5_ISM_EEEERKNSL_INS_16FormDataProviderENS5_ISR_EEEENS1_8functionIFbmmEEE
0000000000445414 T _ZN7httplib6Client5PatchERKNSt6__ndk112basic_stringIcNS1_11char_traitsIcEENS1_9allocatorIcEEEERKNS1_18unordered_multimapIS7_S7_NS_6detail11case_ignore4hashENSC_8equal_toENS5_INS1_4pairIS8_S7_EEEEEERKNS1_6vectorINS_14UploadFormDataENS5_ISM_EEEES9_NS1_8functionIFbmmEEE
000000000044519c T _ZN7httplib6Client5PatchERKNSt6__ndk112basic_stringIcNS1_11char_traitsIcEENS1_9allocatorIcEEEERKNS1_18unordered_multimapIS7_S7_NS_6detail11case_ignore4hashENSC_8equal_toENS5_INS1_4pairIS8_S7_EEEEEERKNS1_8multimapIS7_S7_NS1_4lessIS7_EESH_EE
00000000004456ac T _ZN7httplib6Client5PatchERKNSt6__ndk112basic_stringIcNS1_11char_traitsIcEENS1_9allocatorIcEEEERKNS1_18unordered_multimapIS7_S7_NS_6detail11case_ignore4hashENSC_8equal_toENS5_INS1_4pairIS8_S7_EEEEEES9_S9_NS1_8functionIFbPKcmEEENSL_IFbmmEEE
0000000000443e88 T _ZN7httplib6Client5PatchERKNSt6__ndk112basic_stringIcNS1_11char_traitsIcEENS1_9allocatorIcEEEERKNS1_18unordered_multimapIS7_S7_NS_6detail11case_ignore4hashENSC_8equal_toENS5_INS1_4pairIS8_S7_EEEEEES9_S9_NS1_8functionIFbmmEEE
0000000000444a8c T _ZN7httplib6Client5PatchERKNSt6__ndk112basic_stringIcNS1_11char_traitsIcEENS1_9allocatorIcEEEERKNS1_18unordered_multimapIS7_S7_NS_6detail11case_ignore4hashENSC_8equal_toENS5_INS1_4pairIS8_S7_EEEEEEmNS1_8functionIFbmmRNS_8DataSinkEEEES9_NSL_IFbPKcmEEENSL_IFbmmEEE
000000000044489c T _ZN7httplib6Client5PatchERKNSt6__ndk112basic_stringIcNS1_11char_traitsIcEENS1_9allocatorIcEEEERKNS1_18unordered_multimapIS7_S7_NS_6detail11case_ignore4hashENSC_8equal_toENS5_INS1_4pairIS8_S7_EEEEEEmNS1_8functionIFbmmRNS_8DataSinkEEEES9_NSL_IFbmmEEE
00000000004451a4 T _ZN7httplib6Client5PatchERKNSt6__ndk112basic_stringIcNS1_11char_traitsIcEENS1_9allocatorIcEEEERKNS1_6vectorINS_14UploadFormDataENS5_ISB_EEEENS1_8functionIFbmmEEE
0000000000445194 T _ZN7httplib6Client5PatchERKNSt6__ndk112basic_stringIcNS1_11char_traitsIcEENS1_9allocatorIcEEEERKNS1_8multimapIS7_S7_NS1_4lessIS7_EENS5_INS1_4pairIS8_S7_EEEEEE
0000000000443d4c T _ZN7httplib6Client5PatchERKNSt6__ndk112basic_stringIcNS1_11char_traitsIcEENS1_9allocatorIcEEEES9_S9_NS1_8functionIFbmmEEE
00000000004441bc T _ZN7httplib6Client5PatchERKNSt6__ndk112basic_stringIcNS1_11char_traitsIcEENS1_9allocatorIcEEEEmNS1_8functionIFbmmRNS_8DataSinkEEEES9_NSA_IFbPKcmEEENSA_IFbmmEEE
0000000000443fd4 T _ZN7httplib6Client5PatchERKNSt6__ndk112basic_stringIcNS1_11char_traitsIcEENS1_9allocatorIcEEEEmNS1_8functionIFbmmRNS_8DataSinkEEEES9_NSA_IFbmmEEE
00000000004458ac T _ZN7httplib6Client6DeleteERKNSt6__ndk112basic_stringIcNS1_11char_traitsIcEENS1_9allocatorIcEEEENS1_8functionIFbmmEEE
0000000000445b04 T _ZN7httplib6Client6DeleteERKNSt6__ndk112basic_stringIcNS1_11char_traitsIcEENS1_9allocatorIcEEEEPKcmS9_NS1_8functionIFbmmEEE
00000000004459d0 T _ZN7httplib6Client6DeleteERKNSt6__ndk112basic_stringIcNS1_11char_traitsIcEENS1_9allocatorIcEEEERKNS1_18unordered_multimapIS7_S7_NS_6detail11case_ignore4hashENSC_8equal_toENS5_INS1_4pairIS8_S7_EEEEEENS1_8functionIFbmmEEE
0000000000445c50 T _ZN7httplib6Client6DeleteERKNSt6__ndk112basic_stringIcNS1_11char_traitsIcEENS1_9allocatorIcEEEERKNS1_18unordered_multimapIS7_S7_NS_6detail11case_ignore4hashENSC_8equal_toENS5_INS1_4pairIS8_S7_EEEEEEPKcmS9_NS1_8functionIFbmmEEE
000000000044621c T _ZN7httplib6Client6DeleteERKNSt6__ndk112basic_stringIcNS1_11char_traitsIcEENS1_9allocatorIcEEEERKNS1_18unordered_multimapIS7_S7_NS_6detail11case_ignore4hashENSC_8equal_toENS5_INS1_4pairIS8_S7_EEEEEERKNS1_8multimapIS7_S7_NS1_4lessIS7_EESH_EENS1_8functionIFbmmEEE
0000000000445ee0 T _ZN7httplib6Client6DeleteERKNSt6__ndk112basic_stringIcNS1_11char_traitsIcEENS1_9allocatorIcEEEERKNS1_18unordered_multimapIS7_S7_NS_6detail11case_ignore4hashENSC_8equal_toENS5_INS1_4pairIS8_S7_EEEEEES9_S9_NS1_8functionIFbmmEEE
00000000004460e8 T _ZN7httplib6Client6DeleteERKNSt6__ndk112basic_stringIcNS1_11char_traitsIcEENS1_9allocatorIcEEEERKNS1_8multimapIS7_S7_NS1_4lessIS7_EENS5_INS1_4pairIS8_S7_EEEEEENS1_8functionIFbmmEEE
0000000000445da4 T _ZN7httplib6Client6DeleteERKNSt6__ndk112basic_stringIcNS1_11char_traitsIcEENS1_9allocatorIcEEEES9_S9_NS1_8functionIFbmmEEE
0000000000446358 T _ZN7httplib6Client7OptionsERKNSt6__ndk112basic_stringIcNS1_11char_traitsIcEENS1_9allocatorIcEEEE
00000000004463dc T _ZN7httplib6Client7OptionsERKNSt6__ndk112basic_stringIcNS1_11char_traitsIcEENS1_9allocatorIcEEEERKNS1_18unordered_multimapIS7_S7_NS_6detail11case_ignore4hashENSC_8equal_toENS5_INS1_4pairIS8_S7_EEEEEE
0000000000446a80 T _ZN7httplib6Client9set_proxyERKNSt6__ndk112basic_stringIcNS1_11char_traitsIcEENS1_9allocatorIcEEEEi
000000000043e030 T _ZN7httplib6ClientC1ERKNSt6__ndk112basic_stringIcNS1_11char_traitsIcEENS1_9allocatorIcEEEE
000000000043e13c T _ZN7httplib6ClientC1ERKNSt6__ndk112basic_stringIcNS1_11char_traitsIcEENS1_9allocatorIcEEEES9_S9_
000000000043e7c4 T _ZN7httplib6ClientC1ERKNSt6__ndk112basic_stringIcNS1_11char_traitsIcEENS1_9allocatorIcEEEEi
000000000043e924 T _ZN7httplib6ClientC1ERKNSt6__ndk112basic_stringIcNS1_11char_traitsIcEENS1_9allocatorIcEEEEiS9_S9_
000000000043e030 T _ZN7httplib6ClientC2ERKNSt6__ndk112basic_stringIcNS1_11char_traitsIcEENS1_9allocatorIcEEEE
000000000043e13c T _ZN7httplib6ClientC2ERKNSt6__ndk112basic_stringIcNS1_11char_traitsIcEENS1_9allocatorIcEEEES9_S9_
000000000043e7c4 T _ZN7httplib6ClientC2ERKNSt6__ndk112basic_stringIcNS1_11char_traitsIcEENS1_9allocatorIcEEEEi
000000000043e924 T _ZN7httplib6ClientC2ERKNSt6__ndk112basic_stringIcNS1_11char_traitsIcEENS1_9allocatorIcEEEEiS9_S9_
000000000043e9a0 T _ZN7httplib6ClientD1Ev
000000000043e9a0 T _ZN7httplib6ClientD2Ev
00000000002e9cdc W _ZN7httplib6ResultD2Ev
0000000000413bdc T _ZN7httplib6Server10set_loggerENSt6__ndk18functionIFvRKNS_7RequestERKNS_8ResponseEEEE
0000000000411b78 W _ZN7httplib6Server11add_handlerINSt6__ndk18functionIFvRKNS_7RequestERNS_8ResponseEEEEEERS0_RNS2_6vectorINS2_4pairINS2_10unique_ptrINS_6detail11MatcherBaseENS2_14default_deleteISG_EEEET_EENS2_9allocatorISL_EEEERKNS2_12basic_stringIcNS2_11char_traitsIcEENSM_IcEEEESK_
0000000000411ef0 W _ZN7httplib6Server11add_handlerINSt6__ndk18functionIFvRKNS_7RequestERNS_8ResponseERKNS_13ContentReaderEEEEEERS0_RNS2_6vectorINS2_4pairINS2_10unique_ptrINS_6detail11MatcherBaseENS2_14default_deleteISJ_EEEET_EENS2_9allocatorISO_EEEERKNS2_12basic_stringIcNS2_11char_traitsIcEENSP_IcEEEESN_
0000000000414188 T _ZN7httplib6Server12bind_to_portERKNSt6__ndk112basic_stringIcNS1_11char_traitsIcEENS1_9allocatorIcEEEEii
0000000000414ac4 T _ZN7httplib6Server12decommissionEv
000000000041187c T _ZN7httplib6Server12make_matcherERKNSt6__ndk112basic_stringIcNS1_11char_traitsIcEENS1_9allocatorIcEEEE
0000000000418c0c T _ZN7httplib6Server12read_contentERNS_6StreamERNS_7RequestERNS_8ResponseE
0000000000412ca4 T _ZN7httplib6Server12set_base_dirERKNSt6__ndk112basic_stringIcNS1_11char_traitsIcEENS1_9allocatorIcEEEES9_
00000000004141d8 T _ZN7httplib6Server13bind_internalERKNSt6__ndk112basic_stringIcNS1_11char_traitsIcEENS1_9allocatorIcEEEEii
0000000000415434 T _ZN7httplib6Server14write_responseERNS_6StreamEbRNS_7RequestERNS_8ResponseE
0000000000413364 W _ZN7httplib6Server15MountPointEntryD2Ev
0000000000414460 T _ZN7httplib6Server15listen_internalEv
000000000041dbb0 T _ZN7httplib6Server15process_requestERNS_6StreamERKNSt6__ndk112basic_stringIcNS3_11char_traitsIcEENS3_9allocatorIcEEEEiSB_ibRbRKNS3_8functionIFvRNS_7RequestEEEEPb
0000000000413f48 T _ZN7httplib6Server15set_ipv6_v6onlyEb
0000000000412db0 T _ZN7httplib6Server15set_mount_pointERKNSt6__ndk112basic_stringIcNS1_11char_traitsIcEENS1_9allocatorIcEEEES9_NS1_18unordered_multimapIS7_S7_NS_6detail11case_ignore4hashENSC_8equal_toENS5_INS1_4pairIS8_S7_EEEEEE
0000000000413f40 T _ZN7httplib6Server15set_tcp_nodelayEb
0000000000414414 T _ZN7httplib6Server16bind_to_any_portERKNSt6__ndk112basic_stringIcNS1_11char_traitsIcEENS1_9allocatorIcEEEEi
000000000041d528 T _ZN7httplib6Server16dispatch_requestERNS_7RequestERNS_8ResponseERKNSt6__ndk16vectorINS5_4pairINS5_10unique_ptrINS_6detail11MatcherBaseENS5_14default_deleteISA_EEEENS5_8functionIFvRKS1_S4_EEEEENS5_9allocatorISJ_EEEERNS_6StreamE
0000000000413c88 T _ZN7httplib6Server16set_error_loggerENSt6__ndk18functionIFvRKNS_5ErrorEPKNS_7RequestEEEE
0000000000414158 T _ZN7httplib6Server16set_read_timeoutEll
000000000041445c T _ZN7httplib6Server17listen_after_bindEv
0000000000414024 T _ZN7httplib6Server17set_header_writerERKNSt6__ndk18functionIFlRNS_6StreamERNS1_18unordered_multimapINS1_12basic_stringIcNS1_11char_traitsIcEENS1_9allocatorIcEEEESB_NS_6detail11case_ignore4hashENSD_8equal_toENS9_INS1_4pairIKSB_SB_EEEEEEEEE
0000000000414168 T _ZN7httplib6Server17set_idle_intervalEll
0000000000413e8c T _ZN7httplib6Server17set_start_handlerENSt6__ndk18functionIFvvEEE
0000000000414160 T _ZN7httplib6Server17set_write_timeoutEll
00000000004133e8 T _ZN7httplib6Server18remove_mount_pointERKNSt6__ndk112basic_stringIcNS1_11char_traitsIcEENS1_9allocatorIcEEEE
0000000000413f38 T _ZN7httplib6Server18set_address_familyEi
0000000000413f50 T _ZN7httplib6Server18set_socket_optionsENSt6__ndk18functionIFviEEE
000000000041a59c T _ZN7httplib6Server19handle_file_requestERNS_7RequestERNS_8ResponseE
0000000000413ffc T _ZN7httplib6Server19set_default_headersENSt6__ndk118unordered_multimapINS1_12basic_stringIcNS1_11char_traitsIcEENS1_9allocatorIcEEEES8_NS_6detail11case_ignore4hashENSA_8equal_toENS6_INS1_4pairIKS8_S8_EEEEEE
00000000004140f8 T _ZN7httplib6Server19set_trusted_proxiesERKNSt6__ndk16vectorINS1_12basic_stringIcNS1_11char_traitsIcEENS1_9allocatorIcEEEENS6_IS8_EEEE
0000000000415444 T _ZN7httplib6Server19write_response_coreERNS_6StreamEbRKNS_7RequestERNS_8ResponseEb
0000000000412a84 W _ZN7httplib6Server21WebSocketHandlerEntryD2Ev
000000000041392c T _ZN7httplib6Server21set_exception_handlerENSt6__ndk18functionIFvRKNS_7RequestERNS_8ResponseESt13exception_ptrEEE
0000000000413620 T _ZN7httplib6Server22set_error_handler_coreENSt6__ndk18functionIFNS0_15HandlerResponseERKNS_7RequestERNS_8ResponseEEEENS1_17integral_constantIbLb1EEE
00000000004136cc T _ZN7httplib6Server22set_error_handler_coreENSt6__ndk18functionIFvRKNS_7RequestERNS_8ResponseEEEENS1_17integral_constantIbLb0EEE
0000000000414150 T _ZN7httplib6Server22set_keep_alive_timeoutEl
0000000000414170 T _ZN7httplib6Server22set_payload_max_lengthEm
0000000000413b30 T _ZN7httplib6Server23set_pre_request_handlerENSt6__ndk18functionIFNS0_15HandlerResponseERKNS_7RequestERNS_8ResponseEEEE
00000000004139d8 T _ZN7httplib6Server23set_pre_routing_handlerENSt6__ndk18functionIFNS0_15HandlerResponseERKNS_7RequestERNS_8ResponseEEEE
00000000004203ac T _ZN7httplib6Server24process_and_close_socketEi
0000000000413574 T _ZN7httplib6Server24set_file_request_handlerENSt6__ndk18functionIFvRKNS_7RequestERNS_8ResponseEEEE
0000000000414148 T _ZN7httplib6Server24set_keep_alive_max_countEm
0000000000413a84 T _ZN7httplib6Server24set_post_routing_handlerENSt6__ndk18functionIFvRKNS_7RequestERNS_8ResponseEEEE
000000000041354c T _ZN7httplib6Server25set_default_file_mimetypeERKNSt6__ndk112basic_stringIcNS1_11char_traitsIcEENS1_9allocatorIcEEEE
0000000000413d34 T _ZN7httplib6Server26set_pre_compression_loggerENSt6__ndk18functionIFvRKNS_7RequestERKNS_8ResponseEEEE
0000000000414180 T _ZN7httplib6Server27set_websocket_ping_intervalEl
000000000041788c T _ZN7httplib6Server27write_content_with_providerERNS_6StreamERKNS_7RequestERNS_8ResponseERKNSt6__ndk112basic_stringIcNS8_11char_traitsIcEENS8_9allocatorIcEEEESG_
000000000041678c T _ZN7httplib6Server27write_response_with_contentERNS_6StreamEbRKNS_7RequestERNS_8ResponseE
0000000000414178 T _ZN7httplib6Server30set_websocket_max_missed_pongsEi
0000000000413de0 T _ZN7httplib6Server31set_expect_100_continue_handlerENSt6__ndk18functionIFiRKNS_7RequestERNS_8ResponseEEEE
0000000000419ad0 T _ZN7httplib6Server34read_content_with_content_receiverERNS_6StreamERNS_7RequestERNS_8ResponseENSt6__ndk18functionIFbPKcmEEENS8_IFbRKNS_8FormDataEEEESC_
00000000004134d0 T _ZN7httplib6Server39set_file_extension_and_mimetype_mappingERKNSt6__ndk112basic_stringIcNS1_11char_traitsIcEENS1_9allocatorIcEEEES9_
0000000000411a54 T _ZN7httplib6Server3GetERKNSt6__ndk112basic_stringIcNS1_11char_traitsIcEENS1_9allocatorIcEEEENS1_8functionIFvRKNS_7RequestERNS_8ResponseEEEE
0000000000412020 T _ZN7httplib6Server3PutERKNSt6__ndk112basic_stringIcNS1_11char_traitsIcEENS1_9allocatorIcEEEENS1_8functionIFvRKNS_7RequestERNS_8ResponseEEEE
0000000000412144 T _ZN7httplib6Server3PutERKNSt6__ndk112basic_stringIcNS1_11char_traitsIcEENS1_9allocatorIcEEEENS1_8functionIFvRKNS_7RequestERNS_8ResponseERKNS_13ContentReaderEEEE
0000000000411ca8 T _ZN7httplib6Server4PostERKNSt6__ndk112basic_stringIcNS1_11char_traitsIcEENS1_9allocatorIcEEEENS1_8functionIFvRKNS_7RequestERNS_8ResponseEEEE
0000000000411dcc T _ZN7httplib6Server4PostERKNSt6__ndk112basic_stringIcNS1_11char_traitsIcEENS1_9allocatorIcEEEENS1_8functionIFvRKNS_7RequestERNS_8ResponseERKNS_13ContentReaderEEEE
0000000000414a6c T _ZN7httplib6Server4stopEv
0000000000412268 T _ZN7httplib6Server5PatchERKNSt6__ndk112basic_stringIcNS1_11char_traitsIcEENS1_9allocatorIcEEEENS1_8functionIFvRKNS_7RequestERNS_8ResponseEEEE
000000000041238c T _ZN7httplib6Server5PatchERKNSt6__ndk112basic_stringIcNS1_11char_traitsIcEENS1_9allocatorIcEEEENS1_8functionIFvRKNS_7RequestERNS_8ResponseERKNS_13ContentReaderEEEE
00000000004124b0 T _ZN7httplib6Server6DeleteERKNSt6__ndk112basic_stringIcNS1_11char_traitsIcEENS1_9allocatorIcEEEENS1_8functionIFvRKNS_7RequestERNS_8ResponseEEEE
00000000004125d4 T _ZN7httplib6Server6DeleteERKNSt6__ndk112basic_stringIcNS1_11char_traitsIcEENS1_9allocatorIcEEEENS1_8functionIFvRKNS_7RequestERNS_8ResponseERKNS_13ContentReaderEEEE
000000000041498c T _ZN7httplib6Server6listenERKNSt6__ndk112basic_stringIcNS1_11char_traitsIcEENS1_9allocatorIcEEEEii
00000000004126f8 T _ZN7httplib6Server7OptionsERKNSt6__ndk112basic_stringIcNS1_11char_traitsIcEENS1_9allocatorIcEEEENS1_8functionIFvRKNS_7RequestERNS_8ResponseEEEE
000000000041c7a8 T _ZN7httplib6Server7routingERNS_7RequestERNS_8ResponseERNS_6StreamE
000000000041281c T _ZN7httplib6Server9WebSocketERKNSt6__ndk112basic_stringIcNS1_11char_traitsIcEENS1_9allocatorIcEEEENS1_8functionIFvRKNS_7RequestERNS_2ws9WebSocketEEEE
0000000000412b18 T _ZN7httplib6Server9WebSocketERKNSt6__ndk112basic_stringIcNS1_11char_traitsIcEENS1_9allocatorIcEEEENS1_8functionIFvRKNS_7RequestERNS_2ws9WebSocketEEEENSA_IFS7_RKNS1_6vectorIS7_NS5_IS7_EEEEEEE
0000000000410740 T _ZN7httplib6ServerC1Ev
0000000000410740 T _ZN7httplib6ServerC2Ev
0000000000411854 T _ZN7httplib6ServerD0Ev
0000000000410f34 T _ZN7httplib6ServerD1Ev
0000000000410f34 T _ZN7httplib6ServerD2Ev
000000000044ef4c W _ZN7httplib6Stream16set_read_timeoutEll
00000000003fa764 T _ZN7httplib6Stream5writeEPKc
000000000040bad0 T _ZN7httplib6Stream5writeERKNSt6__ndk112basic_stringIcNS1_11char_traitsIcEENS1_9allocatorIcEEEE
000000000040baf4 T _ZN7httplib6detail10BodyReader4readEPcm
000000000045cea4 W _ZN7httplib6detail10compressorD2Ev
00000000003ef53c W _ZN7httplib6detail10from_charsIiEENS0_17from_chars_resultIT_EEPKcS6_RS3_i
00000000003f866c T _ZN7httplib6detail10has_headerERKNSt6__ndk118unordered_multimapINS1_12basic_stringIcNS1_11char_traitsIcEENS1_9allocatorIcEEEES8_NS0_11case_ignore4hashENS9_8equal_toENS6_INS1_4pairIKS8_S8_EEEEEERSD_
000000000040ec54 T _ZN7httplib6detail10ip_in_cidrERKNSt6__ndk15arrayIhLm16EEES5_i
00000000003f5e10 T _ZN7httplib6detail10keep_aliveERKNSt6__ndk16atomicIiEEil
00000000003f63d8 W _ZN7httplib6detail10scope_exitC2EONSt6__ndk18functionIFvvEEE
00000000003f6454 W _ZN7httplib6detail10scope_exitD2Ev
00000000003f8868 T _ZN7httplib6detail10set_headerERNSt6__ndk118unordered_multimapINS1_12basic_stringIcNS1_11char_traitsIcEENS1_9allocatorIcEEEES8_NS0_11case_ignore4hashENS9_8equal_toENS6_INS1_4pairIKS8_S8_EEEEEERSD_SI_
00000000003f5298 T _ZN7httplib6detail10split_findEPKcS2_cNSt6__ndk18functionIFbS2_S2_EEE
00000000003f4fbc T _ZN7httplib6detail10split_findEPKcS2_cmNSt6__ndk18functionIFbS2_S2_EEE
00000000003fa7a0 T _ZN7httplib6detail10write_dataERNS_6StreamEPKcm
000000000044f4e4 W _ZN7httplib6detail11MatcherBaseD0Ev
000000000044f4b4 W _ZN7httplib6detail11MatcherBaseD2Ev
00000000003f1eac W _ZN7httplib6detail11case_ignore8to_lowerERKNSt6__ndk112basic_stringIcNS2_11char_traitsIcEENS2_9allocatorIcEEEE
00000000003f2a90 T _ZN7httplib6detail11encode_pathERKNSt6__ndk112basic_stringIcNS1_11char_traitsIcEENS1_9allocatorIcEEEE
00000000003fd934 T _ZN7httplib6detail11range_errorERNS_7RequestERNS_8ResponseE
00000000003f5748 T _ZN7httplib6detail11read_socketEiPvmi
00000000003f58b4 T _ZN7httplib6detail11select_implEisll
00000000003f599c T _ZN7httplib6detail11select_readEill
00000000003f57fc T _ZN7httplib6detail11send_socketEiPKvmi
000000000040dba8 T _ZN7httplib6detail12BufferStream4readEPcm
000000000040dbdc T _ZN7httplib6detail12BufferStream5writeEPKcm
000000000044ef00 W _ZN7httplib6detail12BufferStreamD0Ev
0000000000418888 W _ZN7httplib6detail12BufferStreamD2Ev
000000000044ecd0 W _ZN7httplib6detail12RegexMatcherD0Ev
000000000044ec4c W _ZN7httplib6detail12RegexMatcherD2Ev
000000000040db88 T _ZN7httplib6detail12SocketStream16set_read_timeoutEll
000000000040d720 T _ZN7httplib6detail12SocketStream4readEPcm
000000000040d94c T _ZN7httplib6detail12SocketStream5writeEPKcm
000000000040d350 T _ZN7httplib6detail12SocketStreamC1EilllllNSt6__ndk16chrono10time_pointINS3_12steady_clockENS3_8durationIxNS2_5ratioILl1ELl1000000000EEEEEEE
000000000040d350 T _ZN7httplib6detail12SocketStreamC2EilllllNSt6__ndk16chrono10time_pointINS3_12steady_clockENS3_8durationIxNS2_5ratioILl1ELl1000000000EEEEEEE
000000000040d3dc T _ZN7httplib6detail12SocketStreamD0Ev
000000000040d3bc T _ZN7httplib6detail12SocketStreamD1Ev
000000000040d3bc T _ZN7httplib6detail12SocketStreamD2Ev
00000000003f5730 T _ZN7httplib6detail12close_socketEi
00000000003efe24 T _ZN7httplib6detail12compute_etagERKNS0_8FileStatE
00000000003f0698 T _ZN7httplib6detail12is_weak_etagERKNSt6__ndk112basic_stringIcNS1_11char_traitsIcEENS1_9allocatorIcEEEE
00000000003f83a8 T _ZN7httplib6detail12nocompressor8compressEPKcmbNSt6__ndk18functionIFbS3_mEEE
000000000044ed54 W _ZN7httplib6detail12nocompressorD0Ev
00000000004600e4 W _ZN7httplib6detail12parse_headerIZNS0_14FormDataParser5parseEPKcmRKNSt6__ndk18functionIFbRKNS_8FormDataEEEERKNS6_IFbS4_mEEEEUlRKNS5_12basic_stringIcNS5_11char_traitsIcEENS5_9allocatorIcEEEESP_E0_EEbS4_S4_T_
000000000045fd38 W _ZN7httplib6detail12parse_headerIZNS0_14FormDataParser5parseEPKcmRKNSt6__ndk18functionIFbRKNS_8FormDataEEEERKNS6_IFbS4_mEEEEUlRKNS5_12basic_stringIcNS5_11char_traitsIcEENS5_9allocatorIcEEEESP_E_EEbS4_S4_T_
00000000003f58b0 T _ZN7httplib6detail12poll_wrapperEP6pollfdji
000000000041a2b4 W _ZN7httplib6detail12read_contentINS_7RequestEEEbRNS_6StreamERT_mRiNSt6__ndk18functionIFbmmEEENS9_IFbPKcmmmEEEb
000000000042e380 W _ZN7httplib6detail12read_contentINS_8ResponseEEEbRNS_6StreamERT_mRiNSt6__ndk18functionIFbmmEEENS9_IFbPKcmmmEEEb
00000000003f89b8 T _ZN7httplib6detail12read_headersERNS_6StreamERNSt6__ndk118unordered_multimapINS3_12basic_stringIcNS3_11char_traitsIcEENS3_9allocatorIcEEEESA_NS0_11case_ignore4hashENSB_8equal_toENS8_INS3_4pairIKSA_SA_EEEEEE
00000000003f5a80 T _ZN7httplib6detail12select_writeEill
0000000000429db0 W _ZN7httplib6detail13UrlComponentsD2Ev
0000000000450f5c W _ZN7httplib6detail13UrlComponentsaSEOS1_
00000000003f099c T _ZN7httplib6detail13base64_encodeERKNSt6__ndk112basic_stringIcNS1_11char_traitsIcEENS1_9allocatorIcEEEE
00000000003f8380 T _ZN7httplib6detail13encoding_nameENS0_12EncodingTypeE
00000000003f7efc T _ZN7httplib6detail13encoding_typeERKNS_7RequestERKNS_8ResponseE
00000000003efba4 T _ZN7httplib6detail13from_hex_to_iERKNSt6__ndk112basic_stringIcNS1_11char_traitsIcEENS1_9allocatorIcEEEEmmRi
00000000003efc5c T _ZN7httplib6detail13from_i_to_hexEm
00000000004015a8 T _ZN7httplib6detail13is_ip_addressERKNSt6__ndk112basic_stringIcNS1_11char_traitsIcEENS1_9allocatorIcEEEE
00000000003f27b4 T _ZN7httplib6detail13is_valid_pathERKNSt6__ndk112basic_stringIcNS1_11char_traitsIcEENS1_9allocatorIcEEEE
00000000003f7ce4 T _ZN7httplib6detail13parse_qualityEPKcS2_RNSt6__ndk112basic_stringIcNS3_11char_traitsIcEENS3_9allocatorIcEEEERd
00000000003fb944 T _ZN7httplib6detail13random_stringEm
00000000003fa5cc T _ZN7httplib6detail13write_headersERNS_6StreamERKNSt6__ndk118unordered_multimapINS3_12basic_stringIcNS3_11char_traitsIcEENS3_9allocatorIcEEEESA_NS0_11case_ignore4hashENSB_8equal_toENS8_INS3_4pairIKSA_SA_EEEEEE
000000000040bd50 T _ZN7httplib6detail14ChunkedDecoder12read_payloadEPcmRmS3_
0000000000425744 T _ZN7httplib6detail14ChunkedDecoder19parse_trailers_intoERNSt6__ndk118unordered_multimapINS2_12basic_stringIcNS2_11char_traitsIcEENS2_9allocatorIcEEEES9_NS0_11case_ignore4hashENSA_8equal_toENS7_INS2_4pairIKS9_S9_EEEEEERKSH_
0000000000425918 T _ZN7httplib6detail14ChunkedDecoderC1ERNS_6StreamE
0000000000425918 T _ZN7httplib6detail14ChunkedDecoderC2ERNS_6StreamE
000000000045fb3c W _ZN7httplib6detail14FormDataParser10buf_appendEPKcm
0000000000419f18 W _ZN7httplib6detail14FormDataParser12set_boundaryEONSt6__ndk112basic_stringIcNS2_11char_traitsIcEENS2_9allocatorIcEEEE
000000000045fc1c W _ZN7httplib6detail14FormDataParser15clear_file_infoEv
000000000045ec10 W _ZN7httplib6detail14FormDataParser5parseEPKcmRKNSt6__ndk18functionIFbRKNS_8FormDataEEEERKNS5_IFbS3_mEEE
0000000000419d9c W _ZN7httplib6detail14FormDataParserC2Ev
000000000041a430 W _ZN7httplib6detail14FormDataParserD2Ev
00000000003ff604 T _ZN7httplib6detail14expect_contentERKNS_7RequestE
00000000003f2d58 T _ZN7httplib6detail14file_extensionERKNSt6__ndk112basic_stringIcNS1_11char_traitsIcEENS1_9allocatorIcEEEE
00000000003f06f0 T _ZN7httplib6detail14is_strong_etagERKNSt6__ndk112basic_stringIcNS1_11char_traitsIcEENS1_9allocatorIcEEEE
00000000004043a4 T _ZN7httplib6detail14match_hostnameERKNSt6__ndk112basic_stringIcNS1_11char_traitsIcEENS1_9allocatorIcEEEES9_
00000000004012a0 T _ZN7httplib6detail14message_digestERKNSt6__ndk112basic_stringIcNS1_11char_traitsIcEENS1_9allocatorIcEEEEPK9env_md_st
00000000003f3074 T _ZN7httplib6detail14parse_trailersERNS0_18stream_line_readerERNSt6__ndk118unordered_multimapINS3_12basic_stringIcNS3_11char_traitsIcEENS3_9allocatorIcEEEESA_NS0_11case_ignore4hashENSB_8equal_toENS8_INS3_4pairIKSA_SA_EEEEEERKSI_
0000000000410738 T _ZN7httplib6detail15SSLSocketStream16set_read_timeoutEll
0000000000410040 T _ZN7httplib6detail15SSLSocketStream4readEPcm
00000000004103c8 T _ZN7httplib6detail15SSLSocketStream5writeEPKcm
000000000040faf4 T _ZN7httplib6detail15SSLSocketStreamC1EiPvlllllNSt6__ndk16chrono10time_pointINS4_12steady_clockENS4_8durationIxNS3_5ratioILl1ELl1000000000EEEEEEE
000000000040faf4 T _ZN7httplib6detail15SSLSocketStreamC2EiPvlllllNSt6__ndk16chrono10time_pointINS4_12steady_clockENS4_8durationIxNS3_5ratioILl1ELl1000000000EEEEEEE
000000000040fb34 T _ZN7httplib6detail15SSLSocketStreamD0Ev
000000000040fb30 T _ZN7httplib6detail15SSLSocketStreamD1Ev
000000000040fb30 T _ZN7httplib6detail15SSLSocketStreamD2Ev
00000000003f6244 T _ZN7httplib6detail15bind_ip_addressEiRKNSt6__ndk112basic_stringIcNS1_11char_traitsIcEENS1_9allocatorIcEEEE
00000000003fd6e0 T _ZN7httplib6detail15coalesce_rangesERNSt6__ndk16vectorINS1_4pairIllEENS1_9allocatorIS4_EEEEm
00000000003f6ad8 T _ZN7httplib6detail15get_ip_and_portERK16sockaddr_storagejRNSt6__ndk112basic_stringIcNS4_11char_traitsIcEENS4_9allocatorIcEEEERi
00000000003ff054 T _ZN7httplib6detail15has_framed_bodyERKNS_7RequestE
00000000003f5cc0 T _ZN7httplib6detail15is_socket_aliveEi
00000000003f3060 T _ZN7httplib6detail15is_space_or_tabEc
00000000003f8378 T _ZN7httplib6detail15make_compressorENS0_12EncodingTypeE
00000000003f03b8 T _ZN7httplib6detail15parse_http_dateERKNSt6__ndk112basic_stringIcNS1_11char_traitsIcEENS1_9allocatorIcEEEE
00000000003f61dc T _ZN7httplib6detail15set_nonblockingEib
00000000003f6064 T _ZN7httplib6detail15shutdown_socketEi
00000000003f4268 T _ZN7httplib6detail16get_header_valueERKNSt6__ndk118unordered_multimapINS1_12basic_stringIcNS1_11char_traitsIcEENS1_9allocatorIcEEEES8_NS0_11case_ignore4hashENS9_8equal_toENS6_INS1_4pairIKS8_S8_EEEEEERSD_PKcm
000000000040f570 T _ZN7httplib6detail16normalize_targetERKNSt6__ndk112basic_stringIcNS1_11char_traitsIcEENS1_9allocatorIcEEEE
00000000003fabf4 T _ZN7httplib6detail16parse_query_textEPKcmRNSt6__ndk18multimapINS3_12basic_stringIcNS3_11char_traitsIcEENS3_9allocatorIcEEEESA_NS3_4lessISA_EENS8_INS3_4pairIKSA_SA_EEEEEE
00000000003fad6c T _ZN7httplib6detail16parse_query_textERKNSt6__ndk112basic_stringIcNS1_11char_traitsIcEENS1_9allocatorIcEEEERNS1_8multimapIS7_S7_NS1_4lessIS7_EENS5_INS1_4pairIS8_S7_EEEEEE
000000000040dc24 T _ZN7httplib6detail17PathParamsMatcherC1ERKNSt6__ndk112basic_stringIcNS2_11char_traitsIcEENS2_9allocatorIcEEEE
000000000040dc24 T _ZN7httplib6detail17PathParamsMatcherC2ERKNSt6__ndk112basic_stringIcNS2_11char_traitsIcEENS2_9allocatorIcEEEE
000000000044f060 W _ZN7httplib6detail17PathParamsMatcherD0Ev
000000000044ef50 W _ZN7httplib6detail17PathParamsMatcherD2Ev
00000000003f2974 T _ZN7httplib6detail17canonicalize_pathEPKcRNSt6__ndk112basic_stringIcNS3_11char_traitsIcEENS3_9allocatorIcEEEE
00000000003f85cc T _ZN7httplib6detail17create_compressorEv
00000000003f6ddc T _ZN7httplib6detail17find_content_typeERKNSt6__ndk112basic_stringIcNS1_11char_traitsIcEENS1_9allocatorIcEEEERKNS1_3mapIS7_S7_NS1_4lessIS7_EENS5_INS1_4pairIS8_S7_EEEEEES9_
00000000003f7640 T _ZN7httplib6detail18extract_media_typeERKNSt6__ndk112basic_stringIcNS1_11char_traitsIcEENS1_9allocatorIcEEEEPNS1_3mapIS7_S7_NS1_4lessIS7_EENS5_INS1_4pairIS8_S7_EEEEEE
00000000003fb280 T _ZN7httplib6detail18parse_range_headerERKNSt6__ndk112basic_stringIcNS1_11char_traitsIcEENS1_9allocatorIcEEEERNS1_6vectorINS1_4pairIllEENS5_ISC_EEEE
00000000003f543c T _ZN7httplib6detail18stream_line_reader6appendEc
00000000003f45e8 T _ZN7httplib6detail18stream_line_reader7getlineEv
00000000003f53c4 T _ZN7httplib6detail18stream_line_readerC1ERNS_6StreamEPcm
00000000003f53c4 T _ZN7httplib6detail18stream_line_readerC2ERNS_6StreamEPcm
00000000003f9f58 T _ZN7httplib6detail18write_request_lineERNS_6StreamERKNSt6__ndk112basic_stringIcNS3_11char_traitsIcEENS3_9allocatorIcEEEESB_
000000000040d300 T _ZN7httplib6detail19calc_actual_timeoutEllllRlS1_
00000000003f843c T _ZN7httplib6detail19create_decompressorERKNSt6__ndk112basic_stringIcNS1_11char_traitsIcEENS1_9allocatorIcEEEE
00000000003f6224 T _ZN7httplib6detail19is_connection_errorEv
00000000003f29ec T _ZN7httplib6detail19is_path_within_baseERKNSt6__ndk112basic_stringIcNS1_11char_traitsIcEENS1_9allocatorIcEEEES9_
00000000003fa800 T _ZN7httplib6detail19params_to_query_strERKNSt6__ndk18multimapINS1_12basic_stringIcNS1_11char_traitsIcEENS1_9allocatorIcEEEES8_NS1_4lessIS8_EENS6_INS1_4pairIKS8_S8_EEEEEE
00000000003fb474 T _ZN7httplib6detail19parse_accept_headerERKNSt6__ndk112basic_stringIcNS1_11char_traitsIcEENS1_9allocatorIcEEEERNS1_6vectorIS7_NS5_IS7_EEEE
000000000040e900 T _ZN7httplib6detail19prepare_host_stringERKNSt6__ndk112basic_stringIcNS1_11char_traitsIcEENS1_9allocatorIcEEEE
00000000003efac4 T _ZN7httplib6detail19set_socket_opt_implEiiiPKvj
00000000003efae0 T _ZN7httplib6detail19set_socket_opt_timeEiiill
00000000003fa094 T _ZN7httplib6detail19write_response_lineERNS_6StreamEi
00000000003f64d8 T _ZN7httplib6detail20create_client_socketERKNSt6__ndk112basic_stringIcNS1_11char_traitsIcEENS1_9allocatorIcEEEES9_iibbNS1_8functionIFviEEEllllllS9_RNS_5ErrorE
00000000004253b4 W _ZN7httplib6detail20get_header_value_u64ERKNSt6__ndk118unordered_multimapINS1_12basic_stringIcNS1_11char_traitsIcEENS1_9allocatorIcEEEES8_NS0_11case_ignore4hashENS9_8equal_toENS6_INS1_4pairIKS8_S8_EEEEEERSD_mmRb
00000000003f1268 T _ZN7httplib6detail20is_websocket_upgradeERKNS_7RequestE
000000000040ed1c T _ZN7httplib6detail20parse_no_proxy_entryERKNSt6__ndk112basic_stringIcNS1_11char_traitsIcEENS1_9allocatorIcEEEERNS0_12NoProxyEntryE
0000000000461bcc W _ZN7httplib6detail20read_content_chunkedINS_7RequestEEENS0_17ReadContentResultERNS_6StreamERT_mNSt6__ndk18functionIFbPKcmmmEEE
0000000000467218 W _ZN7httplib6detail20read_content_chunkedINS_8ResponseEEENS0_17ReadContentResultERNS_6StreamERT_mNSt6__ndk18functionIFbPKcmmmEEE
00000000003f0f74 T _ZN7httplib6detail20websocket_accept_keyERKNSt6__ndk112basic_stringIcNS1_11char_traitsIcEENS1_9allocatorIcEEEE
00000000003f6bb0 T _ZN7httplib6detail21get_local_ip_and_portEiRNSt6__ndk112basic_stringIcNS1_11char_traitsIcEENS1_9allocatorIcEEEERi
000000000040f8ec T _ZN7httplib6detail21host_matches_no_proxyERKNS0_16NormalizedTargetERKNSt6__ndk16vectorINS0_12NoProxyEntryENS4_9allocatorIS6_EEEE
0000000000404944 T _ZN7httplib6detail21load_client_ca_configEPvRKNSt6__ndk112basic_stringIcNS2_11char_traitsIcEENS2_9allocatorIcEEEESA_bNS_12SystemCAModeERm
00000000003f5f9c T _ZN7httplib6detail21process_client_socketEilllllNSt6__ndk16chrono10time_pointINS2_12steady_clockENS2_8durationIxNS1_5ratioILl1ELl1000000000EEEEEEENS1_8functionIFbRNS_6StreamEEEE
00000000003f1fd0 T _ZN7httplib6detail21write_websocket_frameERNS_6StreamENS_2ws6OpcodeEPKcmbb
00000000003fbf58 T _ZN7httplib6detail22escape_multipart_fieldERKNSt6__ndk112basic_stringIcNS1_11char_traitsIcEENS1_9allocatorIcEEEEb
00000000003f8824 T _ZN7httplib6detail22get_header_value_countERKNSt6__ndk118unordered_multimapINS1_12basic_stringIcNS1_11char_traitsIcEENS1_9allocatorIcEEEES8_NS0_11case_ignore4hashENS9_8equal_toENS6_INS1_4pairIKS8_S8_EEEEEERSD_
00000000003f6c88 T _ZN7httplib6detail22get_remote_ip_and_portEiRNSt6__ndk112basic_stringIcNS1_11char_traitsIcEENS1_9allocatorIcEEEERi
00000000003fad8c T _ZN7httplib6detail22normalize_query_stringERKNSt6__ndk112basic_stringIcNS1_11char_traitsIcEENS1_9allocatorIcEEEE
00000000003ff788 T _ZN7httplib6detail22parse_www_authenticateERKNS_8ResponseERNSt6__ndk13mapINS4_12basic_stringIcNS4_11char_traitsIcEENS4_9allocatorIcEEEESB_NS4_4lessISB_EENS9_INS4_4pairIKSB_SB_EEEEEEb
0000000000425278 W _ZN7httplib6detail23check_and_write_headersINSt6__ndk18functionIFlRNS_6StreamERNS2_18unordered_multimapINS2_12basic_stringIcNS2_11char_traitsIcEENS2_9allocatorIcEEEESC_NS0_11case_ignore4hashENSD_8equal_toENSA_INS2_4pairIKSC_SC_EEEEEEEEEEEbS5_SL_T_RNS_5ErrorE
00000000003f0274 T _ZN7httplib6detail23file_mtime_to_http_dateEl
00000000003f4950 T _ZN7httplib6detail23trim_double_quotes_copyERKNSt6__ndk112basic_stringIcNS1_11char_traitsIcEENS1_9allocatorIcEEEE
00000000003f61d8 T _ZN7httplib6detail24getaddrinfo_with_timeoutEPKcS2_PK8addrinfoPPS3_l
00000000003ff2cc T _ZN7httplib6detail24is_connection_persistentERKNS_7RequestE
00000000003fb0f8 T _ZN7httplib6detail24parse_disposition_paramsERKNSt6__ndk112basic_stringIcNS1_11char_traitsIcEENS1_9allocatorIcEEEERNS1_8multimapIS7_S7_NS1_4lessIS7_EENS5_INS1_4pairIS8_S7_EEEEEE
00000000003faf24 T _ZN7httplib6detail24parse_multipart_boundaryERKNSt6__ndk112basic_stringIcNS1_11char_traitsIcEENS1_9allocatorIcEEEERS7_
0000000000460cd8 W _ZN7httplib6detail24prepare_content_receiverINS_7RequestEZNS0_12read_contentIS2_EEbRNS_6StreamERT_mRiNSt6__ndk18functionIFbmmEEENSA_IFbPKcmmmEEEbEUlRKSG_E_EEbS7_S8_SG_bmRbT0_
0000000000466324 W _ZN7httplib6detail24prepare_content_receiverINS_8ResponseEZNS0_12read_contentIS2_EEbRNS_6StreamERT_mRiNSt6__ndk18functionIFbmmEEENSA_IFbPKcmmmEEEbEUlRKSG_E_EEbS7_S8_SG_bmRbT0_
00000000003f9930 T _ZN7httplib6detail24read_content_with_lengthERNS_6StreamEmNSt6__ndk18functionIFbmmEEENS4_IFbPKcmmmEEEm
0000000000404b58 T _ZN7httplib6detail24setup_client_tls_sessionERKNSt6__ndk112basic_stringIcNS1_11char_traitsIcEENS1_9allocatorIcEEEEPvRSA_ibll
00000000003f7a6c T _ZN7httplib6detail25can_compress_content_typeERKNSt6__ndk112basic_stringIcNS1_11char_traitsIcEENS1_9allocatorIcEEEE
00000000003f85d4 T _ZN7httplib6detail25is_prohibited_header_nameERKNSt6__ndk112basic_stringIcNS1_11char_traitsIcEENS1_9allocatorIcEEEE
00000000004010fc T _ZN7httplib6detail25make_host_and_port_stringERKNSt6__ndk112basic_stringIcNS1_11char_traitsIcEENS1_9allocatorIcEEEEib
00000000003fde78 T _ZN7httplib6detail26make_multipart_ranges_dataERKNS_7RequestERNS_8ResponseERKNSt6__ndk112basic_stringIcNS6_11char_traitsIcEENS6_9allocatorIcEEEESE_mRSC_
00000000003f5b64 T _ZN7httplib6detail26wait_until_socket_is_readyEill
00000000003fdbe0 T _ZN7httplib6detail27get_range_offset_and_lengthENSt6__ndk14pairIllEEm
0000000000400644 T _ZN7httplib6detail27perform_websocket_handshakeERNS_6StreamERKNSt6__ndk112basic_stringIcNS3_11char_traitsIcEENS3_9allocatorIcEEEEibSB_RKNS3_18unordered_multimapIS9_S9_NS0_11case_ignore4hashENSD_8equal_toENS7_INS3_4pairISA_S9_EEEEEERS9_
00000000003f9ae4 T _ZN7httplib6detail27read_content_without_lengthERNS_6StreamEmNSt6__ndk18functionIFbPKcmmmEEE
00000000003fca80 T _ZN7httplib6detail28get_multipart_content_lengthERKNSt6__ndk16vectorINS_14UploadFormDataENS1_9allocatorIS3_EEEERKNS1_12basic_stringIcNS1_11char_traitsIcEENS4_IcEEEE
00000000003f9bfc T _ZN7httplib6detail28is_chunked_transfer_encodingERKNSt6__ndk118unordered_multimapINS1_12basic_stringIcNS1_11char_traitsIcEENS1_9allocatorIcEEEES8_NS0_11case_ignore4hashENS9_8equal_toENS6_INS1_4pairIKS8_S8_EEEEEE
00000000003fbe08 T _ZN7httplib6detail28make_multipart_data_boundaryEv
00000000003fc240 T _ZN7httplib6detail28serialize_multipart_formdataERKNSt6__ndk16vectorINS_14UploadFormDataENS1_9allocatorIS3_EEEERKNS1_12basic_stringIcNS1_11char_traitsIcEENS4_IcEEEEb
00000000003fdbec T _ZN7httplib6detail31make_content_range_header_fieldERKNSt6__ndk14pairImmEEm
00000000003fccc8 T _ZN7httplib6detail31make_multipart_content_providerERKNSt6__ndk16vectorINS_14UploadFormDataENS1_9allocatorIS3_EEEERKNS1_12basic_stringIcNS1_11char_traitsIcEENS4_IcEEEE
00000000003f9204 T _ZN7httplib6detail31read_websocket_upgrade_responseERNS_6StreamERKNSt6__ndk112basic_stringIcNS3_11char_traitsIcEENS3_9allocatorIcEEEERS9_
00000000003fe858 T _ZN7httplib6detail32get_multipart_ranges_data_lengthERKNS_7RequestERKNSt6__ndk112basic_stringIcNS4_11char_traitsIcEENS4_9allocatorIcEEEESC_m
00000000003fbed0 T _ZN7httplib6detail33is_multipart_boundary_chars_validERKNSt6__ndk112basic_stringIcNS1_11char_traitsIcEENS1_9allocatorIcEEEE
0000000000401638 T _ZN7httplib6detail33make_digest_authentication_headerERKNS_7RequestERKNSt6__ndk13mapINS4_12basic_stringIcNS4_11char_traitsIcEENS4_9allocatorIcEEEESB_NS4_4lessISB_EENS9_INS4_4pairIKSB_SB_EEEEEEmRSF_SL_SL_b
00000000003fc164 T _ZN7httplib6detail35serialize_multipart_formdata_finishERKNSt6__ndk112basic_stringIcNS1_11char_traitsIcEENS1_9allocatorIcEEEE
00000000003f6080 T _ZN7httplib6detail37escape_abstract_namespace_unix_domainERKNSt6__ndk112basic_stringIcNS1_11char_traitsIcEENS1_9allocatorIcEEEE
000000000040ea7c T _ZN7httplib6detail37make_host_and_port_string_always_portERKNSt6__ndk112basic_stringIcNS1_11char_traitsIcEENS1_9allocatorIcEEEEi
00000000003fc0bc T _ZN7httplib6detail37serialize_multipart_formdata_item_endEv
00000000003fc5b0 W _ZN7httplib6detail39serialize_multipart_formdata_item_beginINS_14UploadFormDataEEENSt6__ndk112basic_stringIcNS3_11char_traitsIcEENS3_9allocatorIcEEEERKT_RKS9_
0000000000467d10 W _ZN7httplib6detail39serialize_multipart_formdata_item_beginINS_16FormDataProviderEEENSt6__ndk112basic_stringIcNS3_11char_traitsIcEENS3_9allocatorIcEEEERKT_RKS9_
00000000003f612c T _ZN7httplib6detail39unescape_abstract_namespace_unix_domainERKNSt6__ndk112basic_stringIcNS1_11char_traitsIcEENS1_9allocatorIcEEEE
0000000000401518 T _ZN7httplib6detail3MD5ERKNSt6__ndk112basic_stringIcNS1_11char_traitsIcEENS1_9allocatorIcEEEE
00000000003fc230 T _ZN7httplib6detail45serialize_multipart_formdata_get_content_typeERKNSt6__ndk112basic_stringIcNS1_11char_traitsIcEENS1_9allocatorIcEEEE
00000000003f54e0 T _ZN7httplib6detail4mmap4openEPKc
00000000003f56a4 T _ZN7httplib6detail4mmap5closeEv
00000000003f54cc T _ZN7httplib6detail4mmapC1EPKc
00000000003f54cc T _ZN7httplib6detail4mmapC2EPKc
00000000003f5654 T _ZN7httplib6detail4mmapD1Ev
00000000003f5654 T _ZN7httplib6detail4mmapD2Ev
00000000003f0afc T _ZN7httplib6detail4sha1ERKNSt6__ndk112basic_stringIcNS1_11char_traitsIcEENS1_9allocatorIcEEEE
00000000003f4790 T _ZN7httplib6detail4trimEPKcS2_mm
00000000003f4474 T _ZN7httplib6detail5splitEPKcS2_cNSt6__ndk18functionIFvS2_S2_EEE
00000000003f4cd0 T _ZN7httplib6detail5splitEPKcS2_cmNSt6__ndk18functionIFvS2_S2_EEE
00000000003f4a5c T _ZN7httplib6detail6divideEPKcmcNSt6__ndk18functionIFvS2_mS2_mEEE
00000000003f4b2c T _ZN7httplib6detail6divideERKNSt6__ndk112basic_stringIcNS1_11char_traitsIcEENS1_9allocatorIcEEEEcNS1_8functionIFvPKcmSC_mEEE
000000000040051c T _ZN7httplib6detail6fields11is_obs_textEc
00000000003f8950 T _ZN7httplib6detail6fields13is_field_nameERKNSt6__ndk112basic_stringIcNS2_11char_traitsIcEENS2_9allocatorIcEEEE
0000000000400438 T _ZN7httplib6detail6fields13is_token_charEc
00000000003f89b4 T _ZN7httplib6detail6fields14is_field_valueERKNSt6__ndk112basic_stringIcNS2_11char_traitsIcEENS2_9allocatorIcEEEE
0000000000400524 T _ZN7httplib6detail6fields14is_field_vcharEc
0000000000400544 T _ZN7httplib6detail6fields16is_field_contentERKNSt6__ndk112basic_stringIcNS2_11char_traitsIcEENS2_9allocatorIcEEEE
00000000004004a4 T _ZN7httplib6detail6fields8is_tokenERKNSt6__ndk112basic_stringIcNS2_11char_traitsIcEENS2_9allocatorIcEEEE
0000000000400508 T _ZN7httplib6detail6fields8is_vcharEc
00000000003efb38 T _ZN7httplib6detail6is_hexEcRi
0000000000401548 T _ZN7httplib6detail7SHA_256ERKNSt6__ndk112basic_stringIcNS1_11char_traitsIcEENS1_9allocatorIcEEEE
0000000000401578 T _ZN7httplib6detail7SHA_512ERKNSt6__ndk112basic_stringIcNS1_11char_traitsIcEENS1_9allocatorIcEEEE
00000000003f6da0 T _ZN7httplib6detail7str2tagERKNSt6__ndk112basic_stringIcNS1_11char_traitsIcEENS1_9allocatorIcEEEE
00000000003f0740 T _ZN7httplib6detail7to_utf8EiPc
00000000003f2a30 T _ZN7httplib6detail8FileStatC1ERKNSt6__ndk112basic_stringIcNS2_11char_traitsIcEENS2_9allocatorIcEEEE
00000000003f2a30 T _ZN7httplib6detail8FileStatC2ERKNSt6__ndk112basic_stringIcNS2_11char_traitsIcEENS2_9allocatorIcEEEE
0000000000428fe0 W _ZN7httplib6detail8redirectINS_10ClientImplEEEbRT_RNS_7RequestERNS_8ResponseERKNSt6__ndk112basic_stringIcNS9_11char_traitsIcEENS9_9allocatorIcEEEESH_RNS_5ErrorE
000000000042a364 W _ZN7httplib6detail8redirectINS_9SSLClientEEEbRT_RNS_7RequestERNS_8ResponseERKNSt6__ndk112basic_stringIcNS9_11char_traitsIcEENS9_9allocatorIcEEEESH_RNS_5ErrorE
0000000000428538 W _ZN7httplib6detail9parse_urlERKNSt6__ndk112basic_stringIcNS1_11char_traitsIcEENS1_9allocatorIcEEEERNS0_13UrlComponentsE
00000000003f4804 T _ZN7httplib6detail9trim_copyERKNSt6__ndk112basic_stringIcNS1_11char_traitsIcEENS1_9allocatorIcEEEE
00000000003ef664 W _ZN7httplib6stream3GetINS_6ClientEEENS0_6ResultERT_RKNSt6__ndk112basic_stringIcNS6_11char_traitsIcEENS6_9allocatorIcEEEERKNS6_18unordered_multimapISC_SC_NS_6detail11case_ignore4hashENSH_8equal_toENSA_INS6_4pairISD_SC_EEEEEEm
00000000003edaec T _ZN7httplib6stream6Result4nextEv
00000000003edce0 T _ZN7httplib6stream6Result8read_allEv
00000000003ed484 T _ZN7httplib6stream6ResultC1EONS_10ClientImpl12StreamHandleEm
00000000003ed524 T _ZN7httplib6stream6ResultC1EOS1_
00000000003ed42c T _ZN7httplib6stream6ResultC1Ev
00000000003ed484 T _ZN7httplib6stream6ResultC2EONS_10ClientImpl12StreamHandleEm
00000000003ed524 T _ZN7httplib6stream6ResultC2EOS1_
00000000003ed42c T _ZN7httplib6stream6ResultC2Ev
00000000003efa88 W _ZN7httplib6stream6ResultD2Ev
00000000003ed5e8 T _ZN7httplib6stream6ResultaSEOS1_
00000000004093c8 T _ZN7httplib7Request10set_headerERKNSt6__ndk112basic_stringIcNS1_11char_traitsIcEENS1_9allocatorIcEEEES9_
0000000000422c08 W _ZN7httplib7RequestC2ERKS0_
00000000004200b0 W _ZN7httplib7RequestD2Ev
00000000004270f0 W _ZN7httplib7RequestaSEOS0_
00000000004510ac W _ZN7httplib8DataSink19data_sink_streambuf6xsputnEPKcl
0000000000451074 W _ZN7httplib8DataSink19data_sink_streambufD0Ev
000000000042db98 W _ZN7httplib8DataSinkC2Ev
000000000042dd08 W _ZN7httplib8DataSinkD2Ev
000000000045062c W _ZN7httplib8FormDataC2ERKS0_
000000000040a598 T _ZN7httplib8Response10set_headerERKNSt6__ndk112basic_stringIcNS1_11char_traitsIcEENS1_9allocatorIcEEEES9_
000000000040abf8 T _ZN7httplib8Response11set_contentEONSt6__ndk112basic_stringIcNS1_11char_traitsIcEENS1_9allocatorIcEEEERKS7_
000000000040a954 T _ZN7httplib8Response11set_contentEPKcmRKNSt6__ndk112basic_stringIcNS3_11char_traitsIcEENS3_9allocatorIcEEEE
000000000040abd8 T _ZN7httplib8Response11set_contentERKNSt6__ndk112basic_stringIcNS1_11char_traitsIcEENS1_9allocatorIcEEEES9_
000000000040a778 T _ZN7httplib8Response12set_redirectERKNSt6__ndk112basic_stringIcNS1_11char_traitsIcEENS1_9allocatorIcEEEEi
000000000040b90c T _ZN7httplib8Response16set_file_contentERKNSt6__ndk112basic_stringIcNS1_11char_traitsIcEENS1_9allocatorIcEEEE
000000000040b8dc T _ZN7httplib8Response16set_file_contentERKNSt6__ndk112basic_stringIcNS1_11char_traitsIcEENS1_9allocatorIcEEEES9_
000000000040b160 T _ZN7httplib8Response20set_content_providerERKNSt6__ndk112basic_stringIcNS1_11char_traitsIcEENS1_9allocatorIcEEEENS1_8functionIFbmRNS_8DataSinkEEEENSA_IFvbEEE
000000000040aea8 T _ZN7httplib8Response20set_content_providerEmRKNSt6__ndk112basic_stringIcNS1_11char_traitsIcEENS1_9allocatorIcEEEENS1_8functionIFbmmRNS_8DataSinkEEEENSA_IFvbEEE
000000000040b5f4 T _ZN7httplib8Response28set_chunked_content_providerERKNSt6__ndk112basic_stringIcNS1_11char_traitsIcEENS1_9allocatorIcEEEENS1_8functionIFbmRNS_8DataSinkEEEENSA_IFvbEEE
00000000002f2bb8 W _ZN7httplib8ResponseD2Ev
00000000004282cc W _ZN7httplib8ResponseaSEOS0_
000000000045003c W _ZN7httplib9FormFieldC2ERKS0_
000000000044f764 W _ZN7httplib9FormFieldD2Ev
0000000000449ebc T _ZN7httplib9SSLClient10load_certsEv
00000000004480fc T _ZN7httplib9SSLClient12shutdown_sslERNS_10ClientImpl6SocketEb
0000000000448ac4 T _ZN7httplib9SSLClient14initialize_sslERNS_10ClientImpl6SocketERNS_5ErrorE
0000000000448198 T _ZN7httplib9SSLClient14process_socketERKNS_10ClientImpl6SocketENSt6__ndk16chrono10time_pointINS6_12steady_clockENS6_8durationIxNS5_5ratioILl1ELl1000000000EEEEEEENS5_8functionIFbRNS_6StreamEEEE
0000000000449a90 T _ZN7httplib9SSLClient17set_ca_cert_storeEPv
0000000000448028 T _ZN7httplib9SSLClient17shutdown_ssl_implERNS_10ClientImpl6SocketEb
0000000000448474 T _ZN7httplib9SSLClient18connect_with_proxyERNS_10ClientImpl6SocketENSt6__ndk16chrono10time_pointINS5_12steady_clockENS5_8durationIxNS4_5ratioILl1ELl1000000000EEEEEEERNS_8ResponseERbRNS_5ErrorE
000000000042a2e0 T _ZN7httplib9SSLClient18load_ca_cert_storeEPKcm
0000000000449718 T _ZN7httplib9SSLClient18reset_ctx_on_errorEv
0000000000449e18 T _ZN7httplib9SSLClient20set_session_verifierENSt6__ndk18functionIFNS_19SSLVerifierResponseEPvEEE
00000000004483bc T _ZN7httplib9SSLClient22setup_proxy_connectionERNS_10ClientImpl6SocketENSt6__ndk16chrono10time_pointINS5_12steady_clockENS5_8durationIxNS4_5ratioILl1ELl1000000000EEEEEEERNS_8ResponseERbRNS_5ErrorE
000000000044911c T _ZN7httplib9SSLClient24ensure_socket_connectionERNS_10ClientImpl6SocketERNS_5ErrorE
0000000000448360 T _ZN7httplib9SSLClient25create_and_connect_socketERNS_10ClientImpl6SocketERNS_5ErrorE
0000000000449b5c T _ZN7httplib9SSLClient31set_server_certificate_verifierENSt6__ndk18functionIFbRKNS_3tls13VerifyContextEEEE
0000000000449658 T _ZN7httplib9SSLClient8init_ctxEv
00000000004491dc T _ZN7httplib9SSLClientC1ERKNSt6__ndk112basic_stringIcNS1_11char_traitsIcEENS1_9allocatorIcEEEE
0000000000449500 T _ZN7httplib9SSLClientC1ERKNSt6__ndk112basic_stringIcNS1_11char_traitsIcEENS1_9allocatorIcEEEEi
00000000004497e8 T _ZN7httplib9SSLClientC1ERKNSt6__ndk112basic_stringIcNS1_11char_traitsIcEENS1_9allocatorIcEEEEiRKNS0_9PemMemoryE
0000000000449338 T _ZN7httplib9SSLClientC1ERKNSt6__ndk112basic_stringIcNS1_11char_traitsIcEENS1_9allocatorIcEEEEiS9_S9_S9_
00000000004491dc T _ZN7httplib9SSLClientC2ERKNSt6__ndk112basic_stringIcNS1_11char_traitsIcEENS1_9allocatorIcEEEE
0000000000449500 T _ZN7httplib9SSLClientC2ERKNSt6__ndk112basic_stringIcNS1_11char_traitsIcEENS1_9allocatorIcEEEEi
00000000004497e8 T _ZN7httplib9SSLClientC2ERKNSt6__ndk112basic_stringIcNS1_11char_traitsIcEENS1_9allocatorIcEEEEiRKNS0_9PemMemoryE
0000000000449338 T _ZN7httplib9SSLClientC2ERKNSt6__ndk112basic_stringIcNS1_11char_traitsIcEENS1_9allocatorIcEEEEiS9_S9_S9_
00000000004480c4 T _ZN7httplib9SSLClientD0Ev
0000000000447f64 T _ZN7httplib9SSLClientD1Ev
0000000000447f64 T _ZN7httplib9SSLClientD2Ev
0000000000447cdc T _ZN7httplib9SSLServer16update_certs_pemEPKcS2_S2_S2_
0000000000447458 T _ZN7httplib9SSLServer24process_and_close_socketEi
0000000000446d1c T _ZN7httplib9SSLServerC1EPKcS2_S2_S2_S2_
00000000004470b4 T _ZN7httplib9SSLServerC1ERKNS0_9PemMemoryE
00000000004472b8 T _ZN7httplib9SSLServerC1ERKNSt6__ndk18functionIFbPvEEE
0000000000446d1c T _ZN7httplib9SSLServerC2EPKcS2_S2_S2_S2_
00000000004470b4 T _ZN7httplib9SSLServerC2ERKNS0_9PemMemoryE
00000000004472b8 T _ZN7httplib9SSLServerC2ERKNSt6__ndk18functionIFbPvEEE
0000000000447420 T _ZN7httplib9SSLServerD0Ev
00000000004473d8 T _ZN7httplib9SSLServerD1Ev
00000000004473d8 T _ZN7httplib9SSLServerD2Ev
000000000044eefc W _ZN7httplib9TaskQueue7on_idleEv
0000000000406c8c T _ZN7httplib9hosted_atERKNSt6__ndk112basic_stringIcNS0_11char_traitsIcEENS0_9allocatorIcEEEE
0000000000406dac T _ZN7httplib9hosted_atERKNSt6__ndk112basic_stringIcNS0_11char_traitsIcEENS0_9allocatorIcEEEERNS0_6vectorIS6_NS4_IS6_EEEE
0000000000405c68 T _ZN7httplib9to_stringENS_5ErrorE
0000000000406b7c T _ZN7httpliblsERNSt6__ndk113basic_ostreamIcNS0_11char_traitsIcEEEERKNS_5ErrorE
0000000000307334 T _ZN8hf_cache13finalize_fileERKNS_7hf_fileE
00000000002ff714 T _ZN8hf_cache14get_repo_filesERKNSt6__ndk112basic_stringIcNS0_11char_traitsIcEENS0_9allocatorIcEEEES8_
0000000000305b18 T _ZN8hf_cache16get_cached_filesERKNSt6__ndk112basic_stringIcNS0_11char_traitsIcEENS0_9allocatorIcEEEE
0000000000307ae0 T _ZN8hf_cache18remove_cached_repoERKNSt6__ndk112basic_stringIcNS0_11char_traitsIcEENS0_9allocatorIcEEEE
0000000000206478 W _ZN8hf_cache7hf_fileC2ERKS0_
000000000020632c W _ZN8hf_cache7hf_fileD2Ev
00000000002061e4 W _ZN8hf_cache7hf_fileaSEOS0_
000000000021c604 W _ZN8nlohmann16json_abi_v3_12_010basic_jsonINS0_11ordered_mapENSt6__ndk16vectorENS3_12basic_stringIcNS3_11char_traitsIcEENS3_9allocatorIcEEEEblmdS8_NS0_14adl_serializerENS4_IhNS8_IhEEEEvE10json_value7destroyENS0_6detail7value_tE
00000000002137d0 W _ZN8nlohmann16json_abi_v3_12_010basic_jsonINS0_11ordered_mapENSt6__ndk16vectorENS3_12basic_stringIcNS3_11char_traitsIcEENS3_9allocatorIcEEEEblmdS8_NS0_14adl_serializerENS4_IhNS8_IhEEEEvE10json_valueC2ENS0_6detail7value_tE
0000000000358d3c W _ZN8nlohmann16json_abi_v3_12_010basic_jsonINS0_11ordered_mapENSt6__ndk16vectorENS3_12basic_stringIcNS3_11char_traitsIcEENS3_9allocatorIcEEEEblmdS8_NS0_14adl_serializerENS4_IhNS8_IhEEEEvE12get_ref_implIRKNS0_27byte_container_with_subtypeISD_EEKSE_EET_RT0_
00000000003589b0 W _ZN8nlohmann16json_abi_v3_12_010basic_jsonINS0_11ordered_mapENSt6__ndk16vectorENS3_12basic_stringIcNS3_11char_traitsIcEENS3_9allocatorIcEEEEblmdS8_NS0_14adl_serializerENS4_IhNS8_IhEEEEvE12get_ref_implIRKNS2_ISA_SE_NS3_4lessIvEENS8_INS3_4pairIKSA_SE_EEEEEEKSE_EET_RT0_
0000000000358c14 W _ZN8nlohmann16json_abi_v3_12_010basic_jsonINS0_11ordered_mapENSt6__ndk16vectorENS3_12basic_stringIcNS3_11char_traitsIcEENS3_9allocatorIcEEEEblmdS8_NS0_14adl_serializerENS4_IhNS8_IhEEEEvE12get_ref_implIRKNS4_ISE_NS8_ISE_EEEEKSE_EET_RT0_
0000000000358698 W _ZN8nlohmann16json_abi_v3_12_010basic_jsonINS0_11ordered_mapENSt6__ndk16vectorENS3_12basic_stringIcNS3_11char_traitsIcEENS3_9allocatorIcEEEEblmdS8_NS0_14adl_serializerENS4_IhNS8_IhEEEEvE12get_ref_implIRKSA_KSE_EET_RT0_
00000000002cf174 W _ZN8nlohmann16json_abi_v3_12_010basic_jsonINS0_11ordered_mapENSt6__ndk16vectorENS3_12basic_stringIcNS3_11char_traitsIcEENS3_9allocatorIcEEEEblmdS8_NS0_14adl_serializerENS4_IhNS8_IhEEEEvE12get_ref_implIRSA_SE_EET_RT0_
00000000002b6e44 W _ZN8nlohmann16json_abi_v3_12_010basic_jsonINS0_11ordered_mapENSt6__ndk16vectorENS3_12basic_stringIcNS3_11char_traitsIcEENS3_9allocatorIcEEEEblmdS8_NS0_14adl_serializerENS4_IhNS8_IhEEEEvE14erase_internalIRA18_KcTnNS3_9enable_ifIXsr6detail23has_erase_with_key_typeISE_T_EE5valueEiE4typeELi0EEEmOSK_
00000000002b89b4 W _ZN8nlohmann16json_abi_v3_12_010basic_jsonINS0_11ordered_mapENSt6__ndk16vectorENS3_12basic_stringIcNS3_11char_traitsIcEENS3_9allocatorIcEEEEblmdS8_NS0_14adl_serializerENS4_IhNS8_IhEEEEvE14erase_internalIRA8_KcTnNS3_9enable_ifIXsr6detail23has_erase_with_key_typeISE_T_EE5valueEiE4typeELi0EEEmOSK_
0000000000248cb0 W _ZN8nlohmann16json_abi_v3_12_010basic_jsonINS0_11ordered_mapENSt6__ndk16vectorENS3_12basic_stringIcNS3_11char_traitsIcEENS3_9allocatorIcEEEEblmdS8_NS0_14adl_serializerENS4_IhNS8_IhEEEEvE18compares_unorderedERKSE_SG_b
00000000002b28bc W _ZN8nlohmann16json_abi_v3_12_010basic_jsonINS0_11ordered_mapENSt6__ndk16vectorENS3_12basic_stringIcNS3_11char_traitsIcEENS3_9allocatorIcEEEEblmdS8_NS0_14adl_serializerENS4_IhNS8_IhEEEEvE2atEm
000000000024da98 W _ZN8nlohmann16json_abi_v3_12_010basic_jsonINS0_11ordered_mapENSt6__ndk16vectorENS3_12basic_stringIcNS3_11char_traitsIcEENS3_9allocatorIcEEEEblmdS8_NS0_14adl_serializerENS4_IhNS8_IhEEEEvE2atIRA11_KcTnNS3_9enable_ifIXsr6detail32is_usable_as_basic_json_key_typeISE_T_EE5valueEiE4typeELi0EEERSE_OSK_
00000000002b8744 W _ZN8nlohmann16json_abi_v3_12_010basic_jsonINS0_11ordered_mapENSt6__ndk16vectorENS3_12basic_stringIcNS3_11char_traitsIcEENS3_9allocatorIcEEEEblmdS8_NS0_14adl_serializerENS4_IhNS8_IhEEEEvE2atIRA18_KcTnNS3_9enable_ifIXsr6detail32is_usable_as_basic_json_key_typeISE_T_EE5valueEiE4typeELi0EEERSE_OSK_
00000000002cd480 W _ZN8nlohmann16json_abi_v3_12_010basic_jsonINS0_11ordered_mapENSt6__ndk16vectorENS3_12basic_stringIcNS3_11char_traitsIcEENS3_9allocatorIcEEEEblmdS8_NS0_14adl_serializerENS4_IhNS8_IhEEEEvE2atIRA5_KcTnNS3_9enable_ifIXsr6detail32is_usable_as_basic_json_key_typeISE_T_EE5valueEiE4typeELi0EEERSE_OSK_
00000000002b3250 W _ZN8nlohmann16json_abi_v3_12_010basic_jsonINS0_11ordered_mapENSt6__ndk16vectorENS3_12basic_stringIcNS3_11char_traitsIcEENS3_9allocatorIcEEEEblmdS8_NS0_14adl_serializerENS4_IhNS8_IhEEEEvE2atIRA8_KcTnNS3_9enable_ifIXsr6detail32is_usable_as_basic_json_key_typeISE_T_EE5valueEiE4typeELi0EEERSE_OSK_
000000000024dd08 W _ZN8nlohmann16json_abi_v3_12_010basic_jsonINS0_11ordered_mapENSt6__ndk16vectorENS3_12basic_stringIcNS3_11char_traitsIcEENS3_9allocatorIcEEEEblmdS8_NS0_14adl_serializerENS4_IhNS8_IhEEEEvE2atIRA9_KcTnNS3_9enable_ifIXsr6detail32is_usable_as_basic_json_key_typeISE_T_EE5valueEiE4typeELi0EEERSE_OSK_
000000000021c06c W _ZN8nlohmann16json_abi_v3_12_010basic_jsonINS0_11ordered_mapENSt6__ndk16vectorENS3_12basic_stringIcNS3_11char_traitsIcEENS3_9allocatorIcEEEEblmdS8_NS0_14adl_serializerENS4_IhNS8_IhEEEEvE4dataD2Ev
00000000002cc5ac W _ZN8nlohmann16json_abi_v3_12_010basic_jsonINS0_11ordered_mapENSt6__ndk16vectorENS3_12basic_stringIcNS3_11char_traitsIcEENS3_9allocatorIcEEEEblmdS8_NS0_14adl_serializerENS4_IhNS8_IhEEEEvE5eraseEm
000000000021bc50 W _ZN8nlohmann16json_abi_v3_12_010basic_jsonINS0_11ordered_mapENSt6__ndk16vectorENS3_12basic_stringIcNS3_11char_traitsIcEENS3_9allocatorIcEEEEblmdS8_NS0_14adl_serializerENS4_IhNS8_IhEEEEvE5eraseINS0_6detail9iter_implISE_EETnNS3_9enable_ifIXoosr3std7is_sameIT_SI_EE5valuesr3std7is_sameISK_NSH_IKSE_EEEE5valueEiE4typeELi0EEESK_SK_
0000000000212900 W _ZN8nlohmann16json_abi_v3_12_010basic_jsonINS0_11ordered_mapENSt6__ndk16vectorENS3_12basic_stringIcNS3_11char_traitsIcEENS3_9allocatorIcEEEEblmdS8_NS0_14adl_serializerENS4_IhNS8_IhEEEEvE5parseIRKSA_EESE_OT_NS3_8functionIFbiNS0_6detail13parse_event_tERSE_EEEbb
0000000000223294 W _ZN8nlohmann16json_abi_v3_12_010basic_jsonINS0_11ordered_mapENSt6__ndk16vectorENS3_12basic_stringIcNS3_11char_traitsIcEENS3_9allocatorIcEEEEblmdS8_NS0_14adl_serializerENS4_IhNS8_IhEEEEvE5parseIRSA_EESE_OT_NS3_8functionIFbiNS0_6detail13parse_event_tERSE_EEEbb
00000000002c4c1c W _ZN8nlohmann16json_abi_v3_12_010basic_jsonINS0_11ordered_mapENSt6__ndk16vectorENS3_12basic_stringIcNS3_11char_traitsIcEENS3_9allocatorIcEEEEblmdS8_NS0_14adl_serializerENS4_IhNS8_IhEEEEvE5parseISA_EESE_OT_NS3_8functionIFbiNS0_6detail13parse_event_tERSE_EEEbb
000000000035b120 W _ZN8nlohmann16json_abi_v3_12_010basic_jsonINS0_11ordered_mapENSt6__ndk16vectorENS3_12basic_stringIcNS3_11char_traitsIcEENS3_9allocatorIcEEEEblmdS8_NS0_14adl_serializerENS4_IhNS8_IhEEEEvE6createINS2_ISA_SE_NS3_4lessIvEENS8_INS3_4pairIKSA_SE_EEEEEEJNS3_20__map_const_iteratorINS3_21__tree_const_iteratorINS3_12__value_typeISA_NS1_INS3_3mapES4_SA_blmdS8_SB_SD_vEEEEPNS3_11__tree_nodeISS_PvEElEEEESY_EEEPT_DpOT0_
000000000035b4fc W _ZN8nlohmann16json_abi_v3_12_010basic_jsonINS0_11ordered_mapENSt6__ndk16vectorENS3_12basic_stringIcNS3_11char_traitsIcEENS3_9allocatorIcEEEEblmdS8_NS0_14adl_serializerENS4_IhNS8_IhEEEEvE6createINS4_ISE_NS8_ISE_EEEEJNS3_11__wrap_iterIPKNS1_INS3_3mapES4_SA_blmdS8_SB_SD_vEEEESN_EEEPT_DpOT0_
00000000002b631c W _ZN8nlohmann16json_abi_v3_12_010basic_jsonINS0_11ordered_mapENSt6__ndk16vectorENS3_12basic_stringIcNS3_11char_traitsIcEENS3_9allocatorIcEEEEblmdS8_NS0_14adl_serializerENS4_IhNS8_IhEEEEvE6insertENS0_6detail9iter_implIKSE_EESI_SI_
00000000002c34b4 W _ZN8nlohmann16json_abi_v3_12_010basic_jsonINS0_11ordered_mapENSt6__ndk16vectorENS3_12basic_stringIcNS3_11char_traitsIcEENS3_9allocatorIcEEEEblmdS8_NS0_14adl_serializerENS4_IhNS8_IhEEEEvE9push_backEOSE_
00000000002ced00 W _ZN8nlohmann16json_abi_v3_12_010basic_jsonINS0_11ordered_mapENSt6__ndk16vectorENS3_12basic_stringIcNS3_11char_traitsIcEENS3_9allocatorIcEEEEblmdS8_NS0_14adl_serializerENS4_IhNS8_IhEEEEvE9push_backERKNS3_4pairIKSA_SE_EE
000000000029450c W _ZN8nlohmann16json_abi_v3_12_010basic_jsonINS0_11ordered_mapENSt6__ndk16vectorENS3_12basic_stringIcNS3_11char_traitsIcEENS3_9allocatorIcEEEEblmdS8_NS0_14adl_serializerENS4_IhNS8_IhEEEEvE9push_backERKSE_
00000000002921dc W _ZN8nlohmann16json_abi_v3_12_010basic_jsonINS0_11ordered_mapENSt6__ndk16vectorENS3_12basic_stringIcNS3_11char_traitsIcEENS3_9allocatorIcEEEEblmdS8_NS0_14adl_serializerENS4_IhNS8_IhEEEEvE9push_backESt16initializer_listINS0_6detail8json_refISE_EEE
000000000021b1ac W _ZN8nlohmann16json_abi_v3_12_010basic_jsonINS0_11ordered_mapENSt6__ndk16vectorENS3_12basic_stringIcNS3_11char_traitsIcEENS3_9allocatorIcEEEEblmdS8_NS0_14adl_serializerENS4_IhNS8_IhEEEEvEC2EOSE_
000000000021b7dc W _ZN8nlohmann16json_abi_v3_12_010basic_jsonINS0_11ordered_mapENSt6__ndk16vectorENS3_12basic_stringIcNS3_11char_traitsIcEENS3_9allocatorIcEEEEblmdS8_NS0_14adl_serializerENS4_IhNS8_IhEEEEvEC2ERKSE_
000000000024a9d4 W _ZN8nlohmann16json_abi_v3_12_010basic_jsonINS0_11ordered_mapENSt6__ndk16vectorENS3_12basic_stringIcNS3_11char_traitsIcEENS3_9allocatorIcEEEEblmdS8_NS0_14adl_serializerENS4_IhNS8_IhEEEEvEC2ESt16initializer_listINS0_6detail8json_refISE_EEEbNSG_7value_tE
000000000035a9d8 W _ZN8nlohmann16json_abi_v3_12_010basic_jsonINS0_11ordered_mapENSt6__ndk16vectorENS3_12basic_stringIcNS3_11char_traitsIcEENS3_9allocatorIcEEEEblmdS8_NS0_14adl_serializerENS4_IhNS8_IhEEEEvEC2INS1_INS3_3mapES4_SA_blmdS8_SB_SD_vEETnNS3_9enable_ifIXaasr6detail13is_basic_jsonIT_EE5valuentsr3std7is_sameISE_SJ_EE5valueEiE4typeELi0EEERKSJ_
0000000000323c1c W _ZN8nlohmann16json_abi_v3_12_010basic_jsonINS0_11ordered_mapENSt6__ndk16vectorENS3_12basic_stringIcNS3_11char_traitsIcEENS3_9allocatorIcEEEEblmdS8_NS0_14adl_serializerENS4_IhNS8_IhEEEEvEC2ISA_SA_TnNS3_9enable_ifIXaantsr6detail13is_basic_jsonIT0_EE5valuesr6detail18is_compatible_typeISE_SH_EE5valueEiE4typeELi0EEEOT_
0000000000212b80 W _ZN8nlohmann16json_abi_v3_12_010basic_jsonINS0_11ordered_mapENSt6__ndk16vectorENS3_12basic_stringIcNS3_11char_traitsIcEENS3_9allocatorIcEEEEblmdS8_NS0_14adl_serializerENS4_IhNS8_IhEEEEvED2Ev
000000000021768c W _ZN8nlohmann16json_abi_v3_12_010basic_jsonINS0_11ordered_mapENSt6__ndk16vectorENS3_12basic_stringIcNS3_11char_traitsIcEENS3_9allocatorIcEEEEblmdS8_NS0_14adl_serializerENS4_IhNS8_IhEEEEvEaSESE_
0000000000252fc0 W _ZN8nlohmann16json_abi_v3_12_010basic_jsonINS0_11ordered_mapENSt6__ndk16vectorENS3_12basic_stringIcNS3_11char_traitsIcEENS3_9allocatorIcEEEEblmdS8_NS0_14adl_serializerENS4_IhNS8_IhEEEEvEixESA_
00000000002c32ec W _ZN8nlohmann16json_abi_v3_12_010basic_jsonINS0_11ordered_mapENSt6__ndk16vectorENS3_12basic_stringIcNS3_11char_traitsIcEENS3_9allocatorIcEEEEblmdS8_NS0_14adl_serializerENS4_IhNS8_IhEEEEvEixEm
000000000025214c W _ZN8nlohmann16json_abi_v3_12_010basic_jsonINS0_11ordered_mapENSt6__ndk16vectorENS3_12basic_stringIcNS3_11char_traitsIcEENS3_9allocatorIcEEEEblmdS8_NS0_14adl_serializerENS4_IhNS8_IhEEEEvEixIKcEERSE_PT_
0000000000311fec W _ZN8nlohmann16json_abi_v3_12_010basic_jsonINSt6__ndk13mapENS2_6vectorENS2_12basic_stringIcNS2_11char_traitsIcEENS2_9allocatorIcEEEEblmdS8_NS0_14adl_serializerENS4_IhNS8_IhEEEEvE10json_value7destroyENS0_6detail7value_tE
0000000000308d64 W _ZN8nlohmann16json_abi_v3_12_010basic_jsonINSt6__ndk13mapENS2_6vectorENS2_12basic_stringIcNS2_11char_traitsIcEENS2_9allocatorIcEEEEblmdS8_NS0_14adl_serializerENS4_IhNS8_IhEEEEvE10json_valueC2ENS0_6detail7value_tE
000000000035b760 W _ZN8nlohmann16json_abi_v3_12_010basic_jsonINSt6__ndk13mapENS2_6vectorENS2_12basic_stringIcNS2_11char_traitsIcEENS2_9allocatorIcEEEEblmdS8_NS0_14adl_serializerENS4_IhNS8_IhEEEEvE12get_ref_implIRKNS0_27byte_container_with_subtypeISD_EEKSE_EET_RT0_
000000000035b3d4 W _ZN8nlohmann16json_abi_v3_12_010basic_jsonINSt6__ndk13mapENS2_6vectorENS2_12basic_stringIcNS2_11char_traitsIcEENS2_9allocatorIcEEEEblmdS8_NS0_14adl_serializerENS4_IhNS8_IhEEEEvE12get_ref_implIRKNS3_ISA_SE_NS2_4lessIvEENS8_INS2_4pairIKSA_SE_EEEEEEKSE_EET_RT0_
000000000035b638 W _ZN8nlohmann16json_abi_v3_12_010basic_jsonINSt6__ndk13mapENS2_6vectorENS2_12basic_stringIcNS2_11char_traitsIcEENS2_9allocatorIcEEEEblmdS8_NS0_14adl_serializerENS4_IhNS8_IhEEEEvE12get_ref_implIRKNS4_ISE_NS8_ISE_EEEEKSE_EET_RT0_
000000000035aff8 W _ZN8nlohmann16json_abi_v3_12_010basic_jsonINSt6__ndk13mapENS2_6vectorENS2_12basic_stringIcNS2_11char_traitsIcEENS2_9allocatorIcEEEEblmdS8_NS0_14adl_serializerENS4_IhNS8_IhEEEEvE12get_ref_implIRKSA_KSE_EET_RT0_
0000000000357cf0 W _ZN8nlohmann16json_abi_v3_12_010basic_jsonINSt6__ndk13mapENS2_6vectorENS2_12basic_stringIcNS2_11char_traitsIcEENS2_9allocatorIcEEEEblmdS8_NS0_14adl_serializerENS4_IhNS8_IhEEEEvE12get_ref_implIRSA_SE_EET_RT0_
0000000000319828 W _ZN8nlohmann16json_abi_v3_12_010basic_jsonINSt6__ndk13mapENS2_6vectorENS2_12basic_stringIcNS2_11char_traitsIcEENS2_9allocatorIcEEEEblmdS8_NS0_14adl_serializerENS4_IhNS8_IhEEEEvE18compares_unorderedERKSE_SG_b
0000000000311670 W _ZN8nlohmann16json_abi_v3_12_010basic_jsonINSt6__ndk13mapENS2_6vectorENS2_12basic_stringIcNS2_11char_traitsIcEENS2_9allocatorIcEEEEblmdS8_NS0_14adl_serializerENS4_IhNS8_IhEEEEvE4dataD2Ev
00000000003111f4 W _ZN8nlohmann16json_abi_v3_12_010basic_jsonINSt6__ndk13mapENS2_6vectorENS2_12basic_stringIcNS2_11char_traitsIcEENS2_9allocatorIcEEEEblmdS8_NS0_14adl_serializerENS4_IhNS8_IhEEEEvE5eraseINS0_6detail9iter_implISE_EETnNS2_9enable_ifIXoosr3std7is_sameIT_SI_EE5valuesr3std7is_sameISK_NSH_IKSE_EEEE5valueEiE4typeELi0EEESK_SK_
000000000034a328 W _ZN8nlohmann16json_abi_v3_12_010basic_jsonINSt6__ndk13mapENS2_6vectorENS2_12basic_stringIcNS2_11char_traitsIcEENS2_9allocatorIcEEEEblmdS8_NS0_14adl_serializerENS4_IhNS8_IhEEEEvE5parseIRKSA_EESE_OT_NS2_8functionIFbiNS0_6detail13parse_event_tERSE_EEEbb
000000000030926c W _ZN8nlohmann16json_abi_v3_12_010basic_jsonINSt6__ndk13mapENS2_6vectorENS2_12basic_stringIcNS2_11char_traitsIcEENS2_9allocatorIcEEEEblmdS8_NS0_14adl_serializerENS4_IhNS8_IhEEEEvE5parseIRSA_EESE_OT_NS2_8functionIFbiNS0_6detail13parse_event_tERSE_EEEbb
00000000003587c0 W _ZN8nlohmann16json_abi_v3_12_010basic_jsonINSt6__ndk13mapENS2_6vectorENS2_12basic_stringIcNS2_11char_traitsIcEENS2_9allocatorIcEEEEblmdS8_NS0_14adl_serializerENS4_IhNS8_IhEEEEvE6createINS3_ISA_SE_NS2_4lessIvEENS8_INS2_4pairIKSA_SE_EEEEEEJNS2_11__wrap_iterIPKNSI_ISJ_NS1_INS0_11ordered_mapES4_SA_blmdS8_SB_SD_vEEEEEEST_EEEPT_DpOT0_
000000000031168c W _ZN8nlohmann16json_abi_v3_12_010basic_jsonINSt6__ndk13mapENS2_6vectorENS2_12basic_stringIcNS2_11char_traitsIcEENS2_9allocatorIcEEEEblmdS8_NS0_14adl_serializerENS4_IhNS8_IhEEEEvE6createINS3_ISA_SE_NS2_4lessIvEENS8_INS2_4pairIKSA_SE_EEEEEEJRKSM_EEEPT_DpOT0_
0000000000358ad8 W _ZN8nlohmann16json_abi_v3_12_010basic_jsonINSt6__ndk13mapENS2_6vectorENS2_12basic_stringIcNS2_11char_traitsIcEENS2_9allocatorIcEEEEblmdS8_NS0_14adl_serializerENS4_IhNS8_IhEEEEvE6createINS4_ISE_NS8_ISE_EEEEJNS2_11__wrap_iterIPKNS1_INS0_11ordered_mapES4_SA_blmdS8_SB_SD_vEEEESN_EEEPT_DpOT0_
0000000000357e18 W _ZN8nlohmann16json_abi_v3_12_010basic_jsonINSt6__ndk13mapENS2_6vectorENS2_12basic_stringIcNS2_11char_traitsIcEENS2_9allocatorIcEEEEblmdS8_NS0_14adl_serializerENS4_IhNS8_IhEEEEvE6createINS4_ISE_NS8_ISE_EEEEJNS2_11__wrap_iterIPKSA_EESL_EEEPT_DpOT0_
0000000000357370 W _ZN8nlohmann16json_abi_v3_12_010basic_jsonINSt6__ndk13mapENS2_6vectorENS2_12basic_stringIcNS2_11char_traitsIcEENS2_9allocatorIcEEEEblmdS8_NS0_14adl_serializerENS4_IhNS8_IhEEEEvE6createINS4_ISE_NS8_ISE_EEEEJNS2_11__wrap_iterIPKmEESL_EEEPT_DpOT0_
0000000000346b38 W _ZN8nlohmann16json_abi_v3_12_010basic_jsonINSt6__ndk13mapENS2_6vectorENS2_12basic_stringIcNS2_11char_traitsIcEENS2_9allocatorIcEEEEblmdS8_NS0_14adl_serializerENS4_IhNS8_IhEEEEvE9push_backEOSE_
0000000000357a00 W _ZN8nlohmann16json_abi_v3_12_010basic_jsonINSt6__ndk13mapENS2_6vectorENS2_12basic_stringIcNS2_11char_traitsIcEENS2_9allocatorIcEEEEblmdS8_NS0_14adl_serializerENS4_IhNS8_IhEEEEvE9push_backERKNS2_4pairIKSA_SE_EE
000000000035781c W _ZN8nlohmann16json_abi_v3_12_010basic_jsonINSt6__ndk13mapENS2_6vectorENS2_12basic_stringIcNS2_11char_traitsIcEENS2_9allocatorIcEEEEblmdS8_NS0_14adl_serializerENS4_IhNS8_IhEEEEvE9push_backESt16initializer_listINS0_6detail8json_refISE_EEE
00000000003107b4 W _ZN8nlohmann16json_abi_v3_12_010basic_jsonINSt6__ndk13mapENS2_6vectorENS2_12basic_stringIcNS2_11char_traitsIcEENS2_9allocatorIcEEEEblmdS8_NS0_14adl_serializerENS4_IhNS8_IhEEEEvEC2EOSE_
0000000000310da4 W _ZN8nlohmann16json_abi_v3_12_010basic_jsonINSt6__ndk13mapENS2_6vectorENS2_12basic_stringIcNS2_11char_traitsIcEENS2_9allocatorIcEEEEblmdS8_NS0_14adl_serializerENS4_IhNS8_IhEEEEvEC2ERKSE_
0000000000346ce0 W _ZN8nlohmann16json_abi_v3_12_010basic_jsonINSt6__ndk13mapENS2_6vectorENS2_12basic_stringIcNS2_11char_traitsIcEENS2_9allocatorIcEEEEblmdS8_NS0_14adl_serializerENS4_IhNS8_IhEEEEvEC2ESt16initializer_listINS0_6detail8json_refISE_EEEbNSG_7value_tE
0000000000358078 W _ZN8nlohmann16json_abi_v3_12_010basic_jsonINSt6__ndk13mapENS2_6vectorENS2_12basic_stringIcNS2_11char_traitsIcEENS2_9allocatorIcEEEEblmdS8_NS0_14adl_serializerENS4_IhNS8_IhEEEEvEC2INS1_INS0_11ordered_mapES4_SA_blmdS8_SB_SD_vEETnNS2_9enable_ifIXaasr6detail13is_basic_jsonIT_EE5valuentsr3std7is_sameISE_SJ_EE5valueEiE4typeELi0EEERKSJ_
00000000003687e0 W _ZN8nlohmann16json_abi_v3_12_010basic_jsonINSt6__ndk13mapENS2_6vectorENS2_12basic_stringIcNS2_11char_traitsIcEENS2_9allocatorIcEEEEblmdS8_NS0_14adl_serializerENS4_IhNS8_IhEEEEvEC2IRKNS2_13unordered_mapISA_mNS2_4hashISA_EENS2_8equal_toISA_EENS8_INS2_4pairIKSA_mEEEEEESP_TnNS2_9enable_ifIXaantsr6detail13is_basic_jsonIT0_EE5valuesr6detail18is_compatible_typeISE_ST_EE5valueEiE4typeELi0EEEOT_
0000000000305a74 W _ZN8nlohmann16json_abi_v3_12_010basic_jsonINSt6__ndk13mapENS2_6vectorENS2_12basic_stringIcNS2_11char_traitsIcEENS2_9allocatorIcEEEEblmdS8_NS0_14adl_serializerENS4_IhNS8_IhEEEEvED2Ev
000000000030d67c W _ZN8nlohmann16json_abi_v3_12_010basic_jsonINSt6__ndk13mapENS2_6vectorENS2_12basic_stringIcNS2_11char_traitsIcEENS2_9allocatorIcEEEEblmdS8_NS0_14adl_serializerENS4_IhNS8_IhEEEEvEaSESE_
00000000003086d8 W _ZN8nlohmann16json_abi_v3_12_010basic_jsonINSt6__ndk13mapENS2_6vectorENS2_12basic_stringIcNS2_11char_traitsIcEENS2_9allocatorIcEEEEblmdS8_NS0_14adl_serializerENS4_IhNS8_IhEEEEvEixESA_
0000000000307de8 W _ZN8nlohmann16json_abi_v3_12_010basic_jsonINSt6__ndk13mapENS2_6vectorENS2_12basic_stringIcNS2_11char_traitsIcEENS2_9allocatorIcEEEEblmdS8_NS0_14adl_serializerENS4_IhNS8_IhEEEEvEixIKcEERSE_PT_
000000000021d82c W _ZN8nlohmann16json_abi_v3_12_011ordered_mapINSt6__ndk112basic_stringIcNS2_11char_traitsIcEENS2_9allocatorIcEEEENS0_10basic_jsonIS1_NS2_6vectorES8_blmdS6_NS0_14adl_serializerENSA_IhNS6_IhEEEEvEENS2_4lessIvEENS6_INS2_4pairIKS8_SE_EEEEE5eraseENS2_11__wrap_iterIPSJ_EESO_
00000000002b6f64 W _ZN8nlohmann16json_abi_v3_12_011ordered_mapINSt6__ndk112basic_stringIcNS2_11char_traitsIcEENS2_9allocatorIcEEEENS0_10basic_jsonIS1_NS2_6vectorES8_blmdS6_NS0_14adl_serializerENSA_IhNS6_IhEEEEvEENS2_4lessIvEENS6_INS2_4pairIKS8_SE_EEEEE5eraseIRA18_KcTnNS2_9enable_ifIXsr6detail21is_usable_as_key_typeINS2_8equal_toIvEES8_T_EE5valueEiE4typeELi0EEEmOST_
00000000002b8ad4 W _ZN8nlohmann16json_abi_v3_12_011ordered_mapINSt6__ndk112basic_stringIcNS2_11char_traitsIcEENS2_9allocatorIcEEEENS0_10basic_jsonIS1_NS2_6vectorES8_blmdS6_NS0_14adl_serializerENSA_IhNS6_IhEEEEvEENS2_4lessIvEENS6_INS2_4pairIKS8_SE_EEEEE5eraseIRA8_KcTnNS2_9enable_ifIXsr6detail21is_usable_as_key_typeINS2_8equal_toIvEES8_T_EE5valueEiE4typeELi0EEEmOST_
00000000002cee50 W _ZN8nlohmann16json_abi_v3_12_011ordered_mapINSt6__ndk112basic_stringIcNS2_11char_traitsIcEENS2_9allocatorIcEEEENS0_10basic_jsonIS1_NS2_6vectorES8_blmdS6_NS0_14adl_serializerENSA_IhNS6_IhEEEEvEENS2_4lessIvEENS6_INS2_4pairIKS8_SE_EEEEE6insertERKSJ_
000000000021e05c W _ZN8nlohmann16json_abi_v3_12_011ordered_mapINSt6__ndk112basic_stringIcNS2_11char_traitsIcEENS2_9allocatorIcEEEENS0_10basic_jsonIS1_NS2_6vectorES8_blmdS6_NS0_14adl_serializerENSA_IhNS6_IhEEEEvEENS2_4lessIvEENS6_INS2_4pairIKS8_SE_EEEEE7emplaceERSI_OSE_
000000000021df2c W _ZN8nlohmann16json_abi_v3_12_011ordered_mapINSt6__ndk112basic_stringIcNS2_11char_traitsIcEENS2_9allocatorIcEEEENS0_10basic_jsonIS1_NS2_6vectorES8_blmdS6_NS0_14adl_serializerENSA_IhNS6_IhEEEEvEENS2_4lessIvEENS6_INS2_4pairIKS8_SE_EEEEEixERSI_
000000000023928c W _ZN8nlohmann16json_abi_v3_12_06detail10serializerINS0_10basic_jsonINS0_11ordered_mapENSt6__ndk16vectorENS5_12basic_stringIcNS5_11char_traitsIcEENS5_9allocatorIcEEEEblmdSA_NS0_14adl_serializerENS6_IhNSA_IhEEEEvEEE12dump_escapedERKSC_b
0000000000239ac0 W _ZN8nlohmann16json_abi_v3_12_06detail10serializerINS0_10basic_jsonINS0_11ordered_mapENSt6__ndk16vectorENS5_12basic_stringIcNS5_11char_traitsIcEENS5_9allocatorIcEEEEblmdSA_NS0_14adl_serializerENS6_IhNSA_IhEEEEvEEE12dump_integerIlTnNS5_9enable_ifIXoooooosr3std11is_integralIT_EE5valuesr3std7is_sameISK_mEE5valuesr3std7is_sameISK_lEE5valuesr3std7is_sameISK_hEE5valueEiE4typeELi0EEEvSK_
0000000000239950 W _ZN8nlohmann16json_abi_v3_12_06detail10serializerINS0_10basic_jsonINS0_11ordered_mapENSt6__ndk16vectorENS5_12basic_stringIcNS5_11char_traitsIcEENS5_9allocatorIcEEEEblmdSA_NS0_14adl_serializerENS6_IhNSA_IhEEEEvEEE12dump_integerImTnNS5_9enable_ifIXoooooosr3std11is_integralIT_EE5valuesr3std7is_sameISK_mEE5valuesr3std7is_sameISK_lEE5valuesr3std7is_sameISK_hEE5valueEiE4typeELi0EEEvSK_
00000000002383cc W _ZN8nlohmann16json_abi_v3_12_06detail10serializerINS0_10basic_jsonINS0_11ordered_mapENSt6__ndk16vectorENS5_12basic_stringIcNS5_11char_traitsIcEENS5_9allocatorIcEEEEblmdSA_NS0_14adl_serializerENS6_IhNSA_IhEEEEvEEE4dumpERKSG_bbjj
000000000023a114 W _ZN8nlohmann16json_abi_v3_12_06detail10serializerINS0_10basic_jsonINS0_11ordered_mapENSt6__ndk16vectorENS5_12basic_stringIcNS5_11char_traitsIcEENS5_9allocatorIcEEEEblmdSA_NS0_14adl_serializerENS6_IhNSA_IhEEEEvEEE9hex_bytesEh
00000000002391a4 W _ZN8nlohmann16json_abi_v3_12_06detail10serializerINS0_10basic_jsonINS0_11ordered_mapENSt6__ndk16vectorENS5_12basic_stringIcNS5_11char_traitsIcEENS5_9allocatorIcEEEEblmdSA_NS0_14adl_serializerENS6_IhNSA_IhEEEEvEEED2Ev
000000000036a0f4 W _ZN8nlohmann16json_abi_v3_12_06detail10serializerINS0_10basic_jsonINSt6__ndk13mapENS4_6vectorENS4_12basic_stringIcNS4_11char_traitsIcEENS4_9allocatorIcEEEEblmdSA_NS0_14adl_serializerENS6_IhNSA_IhEEEEvEEE12dump_escapedERKSC_b
000000000036a750 W _ZN8nlohmann16json_abi_v3_12_06detail10serializerINS0_10basic_jsonINSt6__ndk13mapENS4_6vectorENS4_12basic_stringIcNS4_11char_traitsIcEENS4_9allocatorIcEEEEblmdSA_NS0_14adl_serializerENS6_IhNSA_IhEEEEvEEE12dump_integerIlTnNS4_9enable_ifIXoooooosr3std11is_integralIT_EE5valuesr3std7is_sameISK_mEE5valuesr3std7is_sameISK_lEE5valuesr3std7is_sameISK_hEE5valueEiE4typeELi0EEEvSK_
0000000000368e90 W _ZN8nlohmann16json_abi_v3_12_06detail10serializerINS0_10basic_jsonINSt6__ndk13mapENS4_6vectorENS4_12basic_stringIcNS4_11char_traitsIcEENS4_9allocatorIcEEEEblmdSA_NS0_14adl_serializerENS6_IhNSA_IhEEEEvEEE4dumpERKSG_bbjj
000000000036a088 W _ZN8nlohmann16json_abi_v3_12_06detail10serializerINS0_10basic_jsonINSt6__ndk13mapENS4_6vectorENS4_12basic_stringIcNS4_11char_traitsIcEENS4_9allocatorIcEEEEblmdSA_NS0_14adl_serializerENS6_IhNSA_IhEEEEvEEED2Ev
0000000000239cc4 W _ZN8nlohmann16json_abi_v3_12_06detail10type_error6createIDnTnNSt6__ndk19enable_ifIXsr21is_basic_json_contextIT_EE5valueEiE4typeELi0EEES2_iRKNS4_12basic_stringIcNS4_11char_traitsIcEENS4_9allocatorIcEEEES6_
0000000000249188 W _ZN8nlohmann16json_abi_v3_12_06detail10type_error6createIPKNS0_10basic_jsonINS0_11ordered_mapENSt6__ndk16vectorENS6_12basic_stringIcNS6_11char_traitsIcEENS6_9allocatorIcEEEEblmdSB_NS0_14adl_serializerENS7_IhNSB_IhEEEEvEETnNS6_9enable_ifIXsr21is_basic_json_contextIT_EE5valueEiE4typeELi0EEES2_iRKSD_SL_
0000000000317508 W _ZN8nlohmann16json_abi_v3_12_06detail10type_error6createIPKNS0_10basic_jsonINSt6__ndk13mapENS5_6vectorENS5_12basic_stringIcNS5_11char_traitsIcEENS5_9allocatorIcEEEEblmdSB_NS0_14adl_serializerENS7_IhNSB_IhEEEEvEETnNS5_9enable_ifIXsr21is_basic_json_contextIT_EE5valueEiE4typeELi0EEES2_iRKSD_SL_
000000000021d434 W _ZN8nlohmann16json_abi_v3_12_06detail10type_error6createIPNS0_10basic_jsonINS0_11ordered_mapENSt6__ndk16vectorENS6_12basic_stringIcNS6_11char_traitsIcEENS6_9allocatorIcEEEEblmdSB_NS0_14adl_serializerENS7_IhNSB_IhEEEEvEETnNS6_9enable_ifIXsr21is_basic_json_contextIT_EE5valueEiE4typeELi0EEES2_iRKSD_SK_
000000000030883c W _ZN8nlohmann16json_abi_v3_12_06detail10type_error6createIPNS0_10basic_jsonINSt6__ndk13mapENS5_6vectorENS5_12basic_stringIcNS5_11char_traitsIcEENS5_9allocatorIcEEEEblmdSB_NS0_14adl_serializerENS7_IhNSB_IhEEEEvEETnNS5_9enable_ifIXsr21is_basic_json_contextIT_EE5valueEiE4typeELi0EEES2_iRKSD_SK_
000000000021deec W _ZN8nlohmann16json_abi_v3_12_06detail10type_errorD0Ev
000000000022039c W _ZN8nlohmann16json_abi_v3_12_06detail11parse_error15position_stringERKNS1_10position_tE
0000000000216e14 W _ZN8nlohmann16json_abi_v3_12_06detail11parse_error6createIDnTnNSt6__ndk19enable_ifIXsr21is_basic_json_contextIT_EE5valueEiE4typeELi0EEES2_iRKNS1_10position_tERKNS4_12basic_stringIcNS4_11char_traitsIcEENS4_9allocatorIcEEEES6_
00000000002200c8 W _ZN8nlohmann16json_abi_v3_12_06detail11parse_errorC2ERKS2_
0000000000220120 W _ZN8nlohmann16json_abi_v3_12_06detail11parse_errorD0Ev
000000000021a448 W _ZN8nlohmann16json_abi_v3_12_06detail12out_of_range6createIDnTnNSt6__ndk19enable_ifIXsr21is_basic_json_contextIT_EE5valueEiE4typeELi0EEES2_iRKNS4_12basic_stringIcNS4_11char_traitsIcEENS4_9allocatorIcEEEES6_
0000000000249554 W _ZN8nlohmann16json_abi_v3_12_06detail12out_of_range6createIPKNS0_10basic_jsonINS0_11ordered_mapENSt6__ndk16vectorENS6_12basic_stringIcNS6_11char_traitsIcEENS6_9allocatorIcEEEEblmdSB_NS0_14adl_serializerENS7_IhNSB_IhEEEEvEETnNS6_9enable_ifIXsr21is_basic_json_contextIT_EE5valueEiE4typeELi0EEES2_iRKSD_SL_
000000000021ad94 W _ZN8nlohmann16json_abi_v3_12_06detail12out_of_range6createIPNS0_10basic_jsonINS0_11ordered_mapENSt6__ndk16vectorENS6_12basic_stringIcNS6_11char_traitsIcEENS6_9allocatorIcEEEEblmdSB_NS0_14adl_serializerENS7_IhNSB_IhEEEEvEETnNS6_9enable_ifIXsr21is_basic_json_contextIT_EE5valueEiE4typeELi0EEES2_iRKSD_SK_
0000000000310478 W _ZN8nlohmann16json_abi_v3_12_06detail12out_of_range6createIPNS0_10basic_jsonINSt6__ndk13mapENS5_6vectorENS5_12basic_stringIcNS5_11char_traitsIcEENS5_9allocatorIcEEEEblmdSB_NS0_14adl_serializerENS7_IhNSB_IhEEEEvEETnNS5_9enable_ifIXsr21is_basic_json_contextIT_EE5valueEiE4typeELi0EEES2_iRKSD_SK_
000000000021e414 W _ZN8nlohmann16json_abi_v3_12_06detail12out_of_rangeC2ERKS2_
000000000021b79c W _ZN8nlohmann16json_abi_v3_12_06detail12out_of_rangeD0Ev
000000000023837c W _ZN8nlohmann16json_abi_v3_12_06detail14output_adapterIcNSt6__ndk112basic_stringIcNS3_11char_traitsIcEENS3_9allocatorIcEEEEED2Ev
0000000000248974 W _ZN8nlohmann16json_abi_v3_12_06detail16invalid_iterator6createIPKNS0_10basic_jsonINS0_11ordered_mapENSt6__ndk16vectorENS6_12basic_stringIcNS6_11char_traitsIcEENS6_9allocatorIcEEEEblmdSB_NS0_14adl_serializerENS7_IhNSB_IhEEEEvEETnNS6_9enable_ifIXsr21is_basic_json_contextIT_EE5valueEiE4typeELi0EEES2_iRKSD_SL_
0000000000368b44 W _ZN8nlohmann16json_abi_v3_12_06detail16invalid_iterator6createIPKNS0_10basic_jsonINSt6__ndk13mapENS5_6vectorENS5_12basic_stringIcNS5_11char_traitsIcEENS5_9allocatorIcEEEEblmdSB_NS0_14adl_serializerENS7_IhNSB_IhEEEEvEETnNS5_9enable_ifIXsr21is_basic_json_contextIT_EE5valueEiE4typeELi0EEES2_iRKSD_SL_
000000000021d0b8 W _ZN8nlohmann16json_abi_v3_12_06detail16invalid_iterator6createIPNS0_10basic_jsonINS0_11ordered_mapENSt6__ndk16vectorENS6_12basic_stringIcNS6_11char_traitsIcEENS6_9allocatorIcEEEEblmdSB_NS0_14adl_serializerENS7_IhNSB_IhEEEEvEETnNS6_9enable_ifIXsr21is_basic_json_contextIT_EE5valueEiE4typeELi0EEES2_iRKSD_SK_
0000000000312948 W _ZN8nlohmann16json_abi_v3_12_06detail16invalid_iterator6createIPNS0_10basic_jsonINSt6__ndk13mapENS5_6vectorENS5_12basic_stringIcNS5_11char_traitsIcEENS5_9allocatorIcEEEEblmdSB_NS0_14adl_serializerENS7_IhNSB_IhEEEEvEETnNS5_9enable_ifIXsr21is_basic_json_contextIT_EE5valueEiE4typeELi0EEES2_iRKSD_SK_
000000000021d3f4 W _ZN8nlohmann16json_abi_v3_12_06detail16invalid_iteratorD0Ev
0000000000218d24 W _ZN8nlohmann16json_abi_v3_12_06detail19json_sax_dom_parserINS0_10basic_jsonINS0_11ordered_mapENSt6__ndk16vectorENS5_12basic_stringIcNS5_11char_traitsIcEENS5_9allocatorIcEEEEblmdSA_NS0_14adl_serializerENS6_IhNSA_IhEEEEvEENS1_22iterator_input_adapterINS5_11__wrap_iterIPKcEEEEE11parse_errorINS1_11parse_errorEEEbmRKSC_RKT_
0000000000220c98 W _ZN8nlohmann16json_abi_v3_12_06detail19json_sax_dom_parserINS0_10basic_jsonINS0_11ordered_mapENSt6__ndk16vectorENS5_12basic_stringIcNS5_11char_traitsIcEENS5_9allocatorIcEEEEblmdSA_NS0_14adl_serializerENS6_IhNSA_IhEEEEvEENS1_22iterator_input_adapterINS5_11__wrap_iterIPKcEEEEE11parse_errorINS1_12out_of_rangeEEEbmRKSC_RKT_
0000000000220a1c W _ZN8nlohmann16json_abi_v3_12_06detail19json_sax_dom_parserINS0_10basic_jsonINS0_11ordered_mapENSt6__ndk16vectorENS5_12basic_stringIcNS5_11char_traitsIcEENS5_9allocatorIcEEEEblmdSA_NS0_14adl_serializerENS6_IhNSA_IhEEEEvEENS1_22iterator_input_adapterINS5_11__wrap_iterIPKcEEEEE11start_arrayEm
0000000000221c30 W _ZN8nlohmann16json_abi_v3_12_06detail19json_sax_dom_parserINS0_10basic_jsonINS0_11ordered_mapENSt6__ndk16vectorENS5_12basic_stringIcNS5_11char_traitsIcEENS5_9allocatorIcEEEEblmdSA_NS0_14adl_serializerENS6_IhNSA_IhEEEEvEENS1_22iterator_input_adapterINS5_11__wrap_iterIPKcEEEEE12handle_valueIDnEEPSG_OT_
0000000000220cf0 W _ZN8nlohmann16json_abi_v3_12_06detail19json_sax_dom_parserINS0_10basic_jsonINS0_11ordered_mapENSt6__ndk16vectorENS5_12basic_stringIcNS5_11char_traitsIcEENS5_9allocatorIcEEEEblmdSA_NS0_14adl_serializerENS6_IhNSA_IhEEEEvEENS1_22iterator_input_adapterINS5_11__wrap_iterIPKcEEEEE12handle_valueINS1_7value_tEEEPSG_OT_
0000000000222478 W _ZN8nlohmann16json_abi_v3_12_06detail19json_sax_dom_parserINS0_10basic_jsonINS0_11ordered_mapENSt6__ndk16vectorENS5_12basic_stringIcNS5_11char_traitsIcEENS5_9allocatorIcEEEEblmdSA_NS0_14adl_serializerENS6_IhNSA_IhEEEEvEENS1_22iterator_input_adapterINS5_11__wrap_iterIPKcEEEEE12handle_valueIRSC_EEPSG_OT_
00000000002217f8 W _ZN8nlohmann16json_abi_v3_12_06detail19json_sax_dom_parserINS0_10basic_jsonINS0_11ordered_mapENSt6__ndk16vectorENS5_12basic_stringIcNS5_11char_traitsIcEENS5_9allocatorIcEEEEblmdSA_NS0_14adl_serializerENS6_IhNSA_IhEEEEvEENS1_22iterator_input_adapterINS5_11__wrap_iterIPKcEEEEE12handle_valueIRbEEPSG_OT_
00000000002213b4 W _ZN8nlohmann16json_abi_v3_12_06detail19json_sax_dom_parserINS0_10basic_jsonINS0_11ordered_mapENSt6__ndk16vectorENS5_12basic_stringIcNS5_11char_traitsIcEENS5_9allocatorIcEEEEblmdSA_NS0_14adl_serializerENS6_IhNSA_IhEEEEvEENS1_22iterator_input_adapterINS5_11__wrap_iterIPKcEEEEE12handle_valueIRdEEPSG_OT_
0000000000222040 W _ZN8nlohmann16json_abi_v3_12_06detail19json_sax_dom_parserINS0_10basic_jsonINS0_11ordered_mapENSt6__ndk16vectorENS5_12basic_stringIcNS5_11char_traitsIcEENS5_9allocatorIcEEEEblmdSA_NS0_14adl_serializerENS6_IhNSA_IhEEEEvEENS1_22iterator_input_adapterINS5_11__wrap_iterIPKcEEEEE12handle_valueIRlEEPSG_OT_
0000000000222a60 W _ZN8nlohmann16json_abi_v3_12_06detail19json_sax_dom_parserINS0_10basic_jsonINS0_11ordered_mapENSt6__ndk16vectorENS5_12basic_stringIcNS5_11char_traitsIcEENS5_9allocatorIcEEEEblmdSA_NS0_14adl_serializerENS6_IhNSA_IhEEEEvEENS1_22iterator_input_adapterINS5_11__wrap_iterIPKcEEEEE12handle_valueIRmEEPSG_OT_
00000000002207a0 W _ZN8nlohmann16json_abi_v3_12_06detail19json_sax_dom_parserINS0_10basic_jsonINS0_11ordered_mapENSt6__ndk16vectorENS5_12basic_stringIcNS5_11char_traitsIcEENS5_9allocatorIcEEEEblmdSA_NS0_14adl_serializerENS6_IhNSA_IhEEEEvEENS1_22iterator_input_adapterINS5_11__wrap_iterIPKcEEEEE12start_objectEm
000000000030ed38 W _ZN8nlohmann16json_abi_v3_12_06detail19json_sax_dom_parserINS0_10basic_jsonINSt6__ndk13mapENS4_6vectorENS4_12basic_stringIcNS4_11char_traitsIcEENS4_9allocatorIcEEEEblmdSA_NS0_14adl_serializerENS6_IhNSA_IhEEEEvEENS1_22iterator_input_adapterINS4_11__wrap_iterIPKcEEEEE11parse_errorINS1_11parse_errorEEEbmRKSC_RKT_
00000000003151e0 W _ZN8nlohmann16json_abi_v3_12_06detail19json_sax_dom_parserINS0_10basic_jsonINSt6__ndk13mapENS4_6vectorENS4_12basic_stringIcNS4_11char_traitsIcEENS4_9allocatorIcEEEEblmdSA_NS0_14adl_serializerENS6_IhNSA_IhEEEEvEENS1_22iterator_input_adapterINS4_11__wrap_iterIPKcEEEEE11parse_errorINS1_12out_of_rangeEEEbmRKSC_RKT_
0000000000314f64 W _ZN8nlohmann16json_abi_v3_12_06detail19json_sax_dom_parserINS0_10basic_jsonINSt6__ndk13mapENS4_6vectorENS4_12basic_stringIcNS4_11char_traitsIcEENS4_9allocatorIcEEEEblmdSA_NS0_14adl_serializerENS6_IhNSA_IhEEEEvEENS1_22iterator_input_adapterINS4_11__wrap_iterIPKcEEEEE11start_arrayEm
0000000000316178 W _ZN8nlohmann16json_abi_v3_12_06detail19json_sax_dom_parserINS0_10basic_jsonINSt6__ndk13mapENS4_6vectorENS4_12basic_stringIcNS4_11char_traitsIcEENS4_9allocatorIcEEEEblmdSA_NS0_14adl_serializerENS6_IhNSA_IhEEEEvEENS1_22iterator_input_adapterINS4_11__wrap_iterIPKcEEEEE12handle_valueIDnEEPSG_OT_
0000000000315238 W _ZN8nlohmann16json_abi_v3_12_06detail19json_sax_dom_parserINS0_10basic_jsonINSt6__ndk13mapENS4_6vectorENS4_12basic_stringIcNS4_11char_traitsIcEENS4_9allocatorIcEEEEblmdSA_NS0_14adl_serializerENS6_IhNSA_IhEEEEvEENS1_22iterator_input_adapterINS4_11__wrap_iterIPKcEEEEE12handle_valueINS1_7value_tEEEPSG_OT_
00000000003169c0 W _ZN8nlohmann16json_abi_v3_12_06detail19json_sax_dom_parserINS0_10basic_jsonINSt6__ndk13mapENS4_6vectorENS4_12basic_stringIcNS4_11char_traitsIcEENS4_9allocatorIcEEEEblmdSA_NS0_14adl_serializerENS6_IhNSA_IhEEEEvEENS1_22iterator_input_adapterINS4_11__wrap_iterIPKcEEEEE12handle_valueIRSC_EEPSG_OT_
0000000000315d40 W _ZN8nlohmann16json_abi_v3_12_06detail19json_sax_dom_parserINS0_10basic_jsonINSt6__ndk13mapENS4_6vectorENS4_12basic_stringIcNS4_11char_traitsIcEENS4_9allocatorIcEEEEblmdSA_NS0_14adl_serializerENS6_IhNSA_IhEEEEvEENS1_22iterator_input_adapterINS4_11__wrap_iterIPKcEEEEE12handle_valueIRbEEPSG_OT_
00000000003158fc W _ZN8nlohmann16json_abi_v3_12_06detail19json_sax_dom_parserINS0_10basic_jsonINSt6__ndk13mapENS4_6vectorENS4_12basic_stringIcNS4_11char_traitsIcEENS4_9allocatorIcEEEEblmdSA_NS0_14adl_serializerENS6_IhNSA_IhEEEEvEENS1_22iterator_input_adapterINS4_11__wrap_iterIPKcEEEEE12handle_valueIRdEEPSG_OT_
0000000000316588 W _ZN8nlohmann16json_abi_v3_12_06detail19json_sax_dom_parserINS0_10basic_jsonINSt6__ndk13mapENS4_6vectorENS4_12basic_stringIcNS4_11char_traitsIcEENS4_9allocatorIcEEEEblmdSA_NS0_14adl_serializerENS6_IhNSA_IhEEEEvEENS1_22iterator_input_adapterINS4_11__wrap_iterIPKcEEEEE12handle_valueIRlEEPSG_OT_
0000000000316fa8 W _ZN8nlohmann16json_abi_v3_12_06detail19json_sax_dom_parserINS0_10basic_jsonINSt6__ndk13mapENS4_6vectorENS4_12basic_stringIcNS4_11char_traitsIcEENS4_9allocatorIcEEEEblmdSA_NS0_14adl_serializerENS6_IhNSA_IhEEEEvEENS1_22iterator_input_adapterINS4_11__wrap_iterIPKcEEEEE12handle_valueIRmEEPSG_OT_
0000000000314ce8 W _ZN8nlohmann16json_abi_v3_12_06detail19json_sax_dom_parserINS0_10basic_jsonINSt6__ndk13mapENS4_6vectorENS4_12basic_stringIcNS4_11char_traitsIcEENS4_9allocatorIcEEEEblmdSA_NS0_14adl_serializerENS6_IhNSA_IhEEEEvEENS1_22iterator_input_adapterINS4_11__wrap_iterIPKcEEEEE12start_objectEm
0000000000270c68 W _ZN8nlohmann16json_abi_v3_12_06detail20external_constructorILNS1_7value_tE3EE9constructINS0_10basic_jsonINS0_11ordered_mapENSt6__ndk16vectorENS8_12basic_stringIcNS8_11char_traitsIcEENS8_9allocatorIcEEEEblmdSD_NS0_14adl_serializerENS9_IhNSD_IhEEEEvEEA10_cTnNS8_9enable_ifIXntsr3std7is_sameIT0_NT_8string_tEEE5valueEiE4typeELi0EEEvRSN_RKSM_
0000000000270664 W _ZN8nlohmann16json_abi_v3_12_06detail20external_constructorILNS1_7value_tE3EE9constructINS0_10basic_jsonINS0_11ordered_mapENSt6__ndk16vectorENS8_12basic_stringIcNS8_11char_traitsIcEENS8_9allocatorIcEEEEblmdSD_NS0_14adl_serializerENS9_IhNSD_IhEEEEvEEA11_cTnNS8_9enable_ifIXntsr3std7is_sameIT0_NT_8string_tEEE5valueEiE4typeELi0EEEvRSN_RKSM_
0000000000270740 W _ZN8nlohmann16json_abi_v3_12_06detail20external_constructorILNS1_7value_tE3EE9constructINS0_10basic_jsonINS0_11ordered_mapENSt6__ndk16vectorENS8_12basic_stringIcNS8_11char_traitsIcEENS8_9allocatorIcEEEEblmdSD_NS0_14adl_serializerENS9_IhNSD_IhEEEEvEEA12_cTnNS8_9enable_ifIXntsr3std7is_sameIT0_NT_8string_tEEE5valueEiE4typeELi0EEEvRSN_RKSM_
00000000003e3314 W _ZN8nlohmann16json_abi_v3_12_06detail20external_constructorILNS1_7value_tE3EE9constructINS0_10basic_jsonINS0_11ordered_mapENSt6__ndk16vectorENS8_12basic_stringIcNS8_11char_traitsIcEENS8_9allocatorIcEEEEblmdSD_NS0_14adl_serializerENS9_IhNSD_IhEEEEvEEA13_cTnNS8_9enable_ifIXntsr3std7is_sameIT0_NT_8string_tEEE5valueEiE4typeELi0EEEvRSN_RKSM_
00000000003e4de0 W _ZN8nlohmann16json_abi_v3_12_06detail20external_constructorILNS1_7value_tE3EE9constructINS0_10basic_jsonINS0_11ordered_mapENSt6__ndk16vectorENS8_12basic_stringIcNS8_11char_traitsIcEENS8_9allocatorIcEEEEblmdSD_NS0_14adl_serializerENS9_IhNSD_IhEEEEvEEA14_cTnNS8_9enable_ifIXntsr3std7is_sameIT0_NT_8string_tEEE5valueEiE4typeELi0EEEvRSN_RKSM_
000000000027081c W _ZN8nlohmann16json_abi_v3_12_06detail20external_constructorILNS1_7value_tE3EE9constructINS0_10basic_jsonINS0_11ordered_mapENSt6__ndk16vectorENS8_12basic_stringIcNS8_11char_traitsIcEENS8_9allocatorIcEEEEblmdSD_NS0_14adl_serializerENS9_IhNSD_IhEEEEvEEA15_cTnNS8_9enable_ifIXntsr3std7is_sameIT0_NT_8string_tEEE5valueEiE4typeELi0EEEvRSN_RKSM_
00000000002708f8 W _ZN8nlohmann16json_abi_v3_12_06detail20external_constructorILNS1_7value_tE3EE9constructINS0_10basic_jsonINS0_11ordered_mapENSt6__ndk16vectorENS8_12basic_stringIcNS8_11char_traitsIcEENS8_9allocatorIcEEEEblmdSD_NS0_14adl_serializerENS9_IhNSD_IhEEEEvEEA16_cTnNS8_9enable_ifIXntsr3std7is_sameIT0_NT_8string_tEEE5valueEiE4typeELi0EEEvRSN_RKSM_
00000000003e5e08 W _ZN8nlohmann16json_abi_v3_12_06detail20external_constructorILNS1_7value_tE3EE9constructINS0_10basic_jsonINS0_11ordered_mapENSt6__ndk16vectorENS8_12basic_stringIcNS8_11char_traitsIcEENS8_9allocatorIcEEEEblmdSD_NS0_14adl_serializerENS9_IhNSD_IhEEEEvEEA17_cTnNS8_9enable_ifIXntsr3std7is_sameIT0_NT_8string_tEEE5valueEiE4typeELi0EEEvRSN_RKSM_
0000000000270ab0 W _ZN8nlohmann16json_abi_v3_12_06detail20external_constructorILNS1_7value_tE3EE9constructINS0_10basic_jsonINS0_11ordered_mapENSt6__ndk16vectorENS8_12basic_stringIcNS8_11char_traitsIcEENS8_9allocatorIcEEEEblmdSD_NS0_14adl_serializerENS9_IhNSD_IhEEEEvEEA18_cTnNS8_9enable_ifIXntsr3std7is_sameIT0_NT_8string_tEEE5valueEiE4typeELi0EEEvRSN_RKSM_
0000000000272348 W _ZN8nlohmann16json_abi_v3_12_06detail20external_constructorILNS1_7value_tE3EE9constructINS0_10basic_jsonINS0_11ordered_mapENSt6__ndk16vectorENS8_12basic_stringIcNS8_11char_traitsIcEENS8_9allocatorIcEEEEblmdSD_NS0_14adl_serializerENS9_IhNSD_IhEEEEvEEA1_cTnNS8_9enable_ifIXntsr3std7is_sameIT0_NT_8string_tEEE5valueEiE4typeELi0EEEvRSN_RKSM_
00000000003e1bf4 W _ZN8nlohmann16json_abi_v3_12_06detail20external_constructorILNS1_7value_tE3EE9constructINS0_10basic_jsonINS0_11ordered_mapENSt6__ndk16vectorENS8_12basic_stringIcNS8_11char_traitsIcEENS8_9allocatorIcEEEEblmdSD_NS0_14adl_serializerENS9_IhNSD_IhEEEEvEEA22_cTnNS8_9enable_ifIXntsr3std7is_sameIT0_NT_8string_tEEE5valueEiE4typeELi0EEEvRSN_RKSM_
00000000003e4ebc W _ZN8nlohmann16json_abi_v3_12_06detail20external_constructorILNS1_7value_tE3EE9constructINS0_10basic_jsonINS0_11ordered_mapENSt6__ndk16vectorENS8_12basic_stringIcNS8_11char_traitsIcEENS8_9allocatorIcEEEEblmdSD_NS0_14adl_serializerENS9_IhNSD_IhEEEEvEEA38_cTnNS8_9enable_ifIXntsr3std7is_sameIT0_NT_8string_tEEE5valueEiE4typeELi0EEEvRSN_RKSM_
000000000026ca14 W _ZN8nlohmann16json_abi_v3_12_06detail20external_constructorILNS1_7value_tE3EE9constructINS0_10basic_jsonINS0_11ordered_mapENSt6__ndk16vectorENS8_12basic_stringIcNS8_11char_traitsIcEENS8_9allocatorIcEEEEblmdSD_NS0_14adl_serializerENS9_IhNSD_IhEEEEvEEA3_cTnNS8_9enable_ifIXntsr3std7is_sameIT0_NT_8string_tEEE5valueEiE4typeELi0EEEvRSN_RKSM_
00000000003e4d04 W _ZN8nlohmann16json_abi_v3_12_06detail20external_constructorILNS1_7value_tE3EE9constructINS0_10basic_jsonINS0_11ordered_mapENSt6__ndk16vectorENS8_12basic_stringIcNS8_11char_traitsIcEENS8_9allocatorIcEEEEblmdSD_NS0_14adl_serializerENS9_IhNSD_IhEEEEvEEA4_cTnNS8_9enable_ifIXntsr3std7is_sameIT0_NT_8string_tEEE5valueEiE4typeELi0EEEvRSN_RKSM_
00000000002704ac W _ZN8nlohmann16json_abi_v3_12_06detail20external_constructorILNS1_7value_tE3EE9constructINS0_10basic_jsonINS0_11ordered_mapENSt6__ndk16vectorENS8_12basic_stringIcNS8_11char_traitsIcEENS8_9allocatorIcEEEEblmdSD_NS0_14adl_serializerENS9_IhNSD_IhEEEEvEEA5_cTnNS8_9enable_ifIXntsr3std7is_sameIT0_NT_8string_tEEE5valueEiE4typeELi0EEEvRSN_RKSM_
00000000003e1b18 W _ZN8nlohmann16json_abi_v3_12_06detail20external_constructorILNS1_7value_tE3EE9constructINS0_10basic_jsonINS0_11ordered_mapENSt6__ndk16vectorENS8_12basic_stringIcNS8_11char_traitsIcEENS8_9allocatorIcEEEEblmdSD_NS0_14adl_serializerENS9_IhNSD_IhEEEEvEEA6_cTnNS8_9enable_ifIXntsr3std7is_sameIT0_NT_8string_tEEE5valueEiE4typeELi0EEEvRSN_RKSM_
0000000000270588 W _ZN8nlohmann16json_abi_v3_12_06detail20external_constructorILNS1_7value_tE3EE9constructINS0_10basic_jsonINS0_11ordered_mapENSt6__ndk16vectorENS8_12basic_stringIcNS8_11char_traitsIcEENS8_9allocatorIcEEEEblmdSD_NS0_14adl_serializerENS9_IhNSD_IhEEEEvEEA7_cTnNS8_9enable_ifIXntsr3std7is_sameIT0_NT_8string_tEEE5valueEiE4typeELi0EEEvRSN_RKSM_
0000000000270b8c W _ZN8nlohmann16json_abi_v3_12_06detail20external_constructorILNS1_7value_tE3EE9constructINS0_10basic_jsonINS0_11ordered_mapENSt6__ndk16vectorENS8_12basic_stringIcNS8_11char_traitsIcEENS8_9allocatorIcEEEEblmdSD_NS0_14adl_serializerENS9_IhNSD_IhEEEEvEEA8_cTnNS8_9enable_ifIXntsr3std7is_sameIT0_NT_8string_tEEE5valueEiE4typeELi0EEEvRSN_RKSM_
00000000002709d4 W _ZN8nlohmann16json_abi_v3_12_06detail20external_constructorILNS1_7value_tE3EE9constructINS0_10basic_jsonINS0_11ordered_mapENSt6__ndk16vectorENS8_12basic_stringIcNS8_11char_traitsIcEENS8_9allocatorIcEEEEblmdSD_NS0_14adl_serializerENS9_IhNSD_IhEEEEvEEA9_cTnNS8_9enable_ifIXntsr3std7is_sameIT0_NT_8string_tEEE5valueEiE4typeELi0EEEvRSN_RKSM_
000000000028c73c W _ZN8nlohmann16json_abi_v3_12_06detail20external_constructorILNS1_7value_tE3EE9constructINS0_10basic_jsonINS0_11ordered_mapENSt6__ndk16vectorENS8_12basic_stringIcNS8_11char_traitsIcEENS8_9allocatorIcEEEEblmdSD_NS0_14adl_serializerENS9_IhNSD_IhEEEEvEENS8_17basic_string_viewIcSC_EETnNS8_9enable_ifIXntsr3std7is_sameIT0_NT_8string_tEEE5valueEiE4typeELi0EEEvRSO_RKSN_
00000000002490a8 W _ZN8nlohmann16json_abi_v3_12_06detail20external_constructorILNS1_7value_tE3EE9constructINS0_10basic_jsonINS0_11ordered_mapENSt6__ndk16vectorENS8_12basic_stringIcNS8_11char_traitsIcEENS8_9allocatorIcEEEEblmdSD_NS0_14adl_serializerENS9_IhNSD_IhEEEEvEEPKcTnNS8_9enable_ifIXntsr3std7is_sameIT0_NT_8string_tEEE5valueEiE4typeELi0EEEvRSO_RKSN_
0000000000357740 W _ZN8nlohmann16json_abi_v3_12_06detail20external_constructorILNS1_7value_tE3EE9constructINS0_10basic_jsonINSt6__ndk13mapENS7_6vectorENS7_12basic_stringIcNS7_11char_traitsIcEENS7_9allocatorIcEEEEblmdSD_NS0_14adl_serializerENS9_IhNSD_IhEEEEvEEA10_cTnNS7_9enable_ifIXntsr3std7is_sameIT0_NT_8string_tEEE5valueEiE4typeELi0EEEvRSN_RKSM_
0000000000357664 W _ZN8nlohmann16json_abi_v3_12_06detail20external_constructorILNS1_7value_tE3EE9constructINS0_10basic_jsonINSt6__ndk13mapENS7_6vectorENS7_12basic_stringIcNS7_11char_traitsIcEENS7_9allocatorIcEEEEblmdSD_NS0_14adl_serializerENS9_IhNSD_IhEEEEvEEA11_cTnNS7_9enable_ifIXntsr3std7is_sameIT0_NT_8string_tEEE5valueEiE4typeELi0EEEvRSN_RKSM_
0000000000358e64 W _ZN8nlohmann16json_abi_v3_12_06detail20external_constructorILNS1_7value_tE3EE9constructINS0_10basic_jsonINSt6__ndk13mapENS7_6vectorENS7_12basic_stringIcNS7_11char_traitsIcEENS7_9allocatorIcEEEEblmdSD_NS0_14adl_serializerENS9_IhNSD_IhEEEEvEEA3_cTnNS7_9enable_ifIXntsr3std7is_sameIT0_NT_8string_tEEE5valueEiE4typeELi0EEEvRSN_RKSM_
000000000035716c W _ZN8nlohmann16json_abi_v3_12_06detail20external_constructorILNS1_7value_tE3EE9constructINS0_10basic_jsonINSt6__ndk13mapENS7_6vectorENS7_12basic_stringIcNS7_11char_traitsIcEENS7_9allocatorIcEEEEblmdSD_NS0_14adl_serializerENS9_IhNSD_IhEEEEvEEA4_cTnNS7_9enable_ifIXntsr3std7is_sameIT0_NT_8string_tEEE5valueEiE4typeELi0EEEvRSN_RKSM_
00000000003590f8 W _ZN8nlohmann16json_abi_v3_12_06detail20external_constructorILNS1_7value_tE3EE9constructINS0_10basic_jsonINSt6__ndk13mapENS7_6vectorENS7_12basic_stringIcNS7_11char_traitsIcEENS7_9allocatorIcEEEEblmdSD_NS0_14adl_serializerENS9_IhNSD_IhEEEEvEEA5_cTnNS7_9enable_ifIXntsr3std7is_sameIT0_NT_8string_tEEE5valueEiE4typeELi0EEEvRSN_RKSM_
000000000035901c W _ZN8nlohmann16json_abi_v3_12_06detail20external_constructorILNS1_7value_tE3EE9constructINS0_10basic_jsonINSt6__ndk13mapENS7_6vectorENS7_12basic_stringIcNS7_11char_traitsIcEENS7_9allocatorIcEEEEblmdSD_NS0_14adl_serializerENS9_IhNSD_IhEEEEvEEA6_cTnNS7_9enable_ifIXntsr3std7is_sameIT0_NT_8string_tEEE5valueEiE4typeELi0EEEvRSN_RKSM_
0000000000357588 W _ZN8nlohmann16json_abi_v3_12_06detail20external_constructorILNS1_7value_tE3EE9constructINS0_10basic_jsonINSt6__ndk13mapENS7_6vectorENS7_12basic_stringIcNS7_11char_traitsIcEENS7_9allocatorIcEEEEblmdSD_NS0_14adl_serializerENS9_IhNSD_IhEEEEvEEA7_cTnNS7_9enable_ifIXntsr3std7is_sameIT0_NT_8string_tEEE5valueEiE4typeELi0EEEvRSN_RKSM_
0000000000358f40 W _ZN8nlohmann16json_abi_v3_12_06detail20external_constructorILNS1_7value_tE3EE9constructINS0_10basic_jsonINSt6__ndk13mapENS7_6vectorENS7_12basic_stringIcNS7_11char_traitsIcEENS7_9allocatorIcEEEEblmdSD_NS0_14adl_serializerENS9_IhNSD_IhEEEEvEEA8_cTnNS7_9enable_ifIXntsr3std7is_sameIT0_NT_8string_tEEE5valueEiE4typeELi0EEEvRSN_RKSM_
0000000000357294 W _ZN8nlohmann16json_abi_v3_12_06detail20external_constructorILNS1_7value_tE3EE9constructINS0_10basic_jsonINSt6__ndk13mapENS7_6vectorENS7_12basic_stringIcNS7_11char_traitsIcEENS7_9allocatorIcEEEEblmdSD_NS0_14adl_serializerENS9_IhNSD_IhEEEEvEEA9_cTnNS7_9enable_ifIXntsr3std7is_sameIT0_NT_8string_tEEE5valueEiE4typeELi0EEEvRSN_RKSM_
0000000000319c74 W _ZN8nlohmann16json_abi_v3_12_06detail20external_constructorILNS1_7value_tE3EE9constructINS0_10basic_jsonINSt6__ndk13mapENS7_6vectorENS7_12basic_stringIcNS7_11char_traitsIcEENS7_9allocatorIcEEEEblmdSD_NS0_14adl_serializerENS9_IhNSD_IhEEEEvEEPKcTnNS7_9enable_ifIXntsr3std7is_sameIT0_NT_8string_tEEE5valueEiE4typeELi0EEEvRSO_RKSN_
000000000024ed14 W _ZN8nlohmann16json_abi_v3_12_06detail20from_json_array_implINS0_10basic_jsonINS0_11ordered_mapENSt6__ndk16vectorENS5_12basic_stringIcNS5_11char_traitsIcEENS5_9allocatorIcEEEEblmdSA_NS0_14adl_serializerENS6_IhNSA_IhEEEEvEENS5_3setISC_NS5_4lessISC_EENSA_ISC_EEEETnNS5_9enable_ifIXsr3std13is_assignableIRT0_SN_EE5valueEiE4typeELi0EEEvRKT_SO_NS1_12priority_tagILj0EEE
000000000035a120 W _ZN8nlohmann16json_abi_v3_12_06detail20from_json_array_implINS0_10basic_jsonINSt6__ndk13mapENS4_6vectorENS4_12basic_stringIcNS4_11char_traitsIcEENS4_9allocatorIcEEEEblmdSA_NS0_14adl_serializerENS6_IhNSA_IhEEEEvEENS6_ISC_NSA_ISC_EEEETnNS4_9enable_ifIXsr3std13is_assignableIRT0_SK_EE5valueEiE4typeELi0EEEDTcmcmcldtfp0_7reserveclsr3stdE7declvalINSK_9size_typeEEEEcldtfp_3getINSK_10value_typeEEEcvv_EERKT_SL_NS1_12priority_tagILj1EEE
0000000000359828 W _ZN8nlohmann16json_abi_v3_12_06detail20from_json_array_implINS0_10basic_jsonINSt6__ndk13mapENS4_6vectorENS4_12basic_stringIcNS4_11char_traitsIcEENS4_9allocatorIcEEEEblmdSA_NS0_14adl_serializerENS6_IhNSA_IhEEEEvEENS6_ImNSA_ImEEEETnNS4_9enable_ifIXsr3std13is_assignableIRT0_SK_EE5valueEiE4typeELi0EEEDTcmcmcldtfp0_7reserveclsr3stdE7declvalINSK_9size_typeEEEEcldtfp_3getINSK_10value_typeEEEcvv_EERKT_SL_NS1_12priority_tagILj1EEE
00000000003583e0 W _ZN8nlohmann16json_abi_v3_12_06detail20get_arithmetic_valueINS0_10basic_jsonINS0_11ordered_mapENSt6__ndk16vectorENS5_12basic_stringIcNS5_11char_traitsIcEENS5_9allocatorIcEEEEblmdSA_NS0_14adl_serializerENS6_IhNSA_IhEEEEvEEdTnNS5_9enable_ifIXaasr3std13is_arithmeticIT0_EE5valuentsr3std7is_sameISI_NT_9boolean_tEEE5valueEiE4typeELi0EEEvRKSJ_RSI_
00000000003374d4 W _ZN8nlohmann16json_abi_v3_12_06detail20get_arithmetic_valueINS0_10basic_jsonINS0_11ordered_mapENSt6__ndk16vectorENS5_12basic_stringIcNS5_11char_traitsIcEENS5_9allocatorIcEEEEblmdSA_NS0_14adl_serializerENS6_IhNSA_IhEEEEvEElTnNS5_9enable_ifIXaasr3std13is_arithmeticIT0_EE5valuentsr3std7is_sameISI_NT_9boolean_tEEE5valueEiE4typeELi0EEEvRKSJ_RSI_
0000000000358538 W _ZN8nlohmann16json_abi_v3_12_06detail20get_arithmetic_valueINS0_10basic_jsonINS0_11ordered_mapENSt6__ndk16vectorENS5_12basic_stringIcNS5_11char_traitsIcEENS5_9allocatorIcEEEEblmdSA_NS0_14adl_serializerENS6_IhNSA_IhEEEEvEEmTnNS5_9enable_ifIXaasr3std13is_arithmeticIT0_EE5valuentsr3std7is_sameISI_NT_9boolean_tEEE5valueEiE4typeELi0EEEvRKSJ_RSI_
000000000035ad40 W _ZN8nlohmann16json_abi_v3_12_06detail20get_arithmetic_valueINS0_10basic_jsonINSt6__ndk13mapENS4_6vectorENS4_12basic_stringIcNS4_11char_traitsIcEENS4_9allocatorIcEEEEblmdSA_NS0_14adl_serializerENS6_IhNSA_IhEEEEvEEdTnNS4_9enable_ifIXaasr3std13is_arithmeticIT0_EE5valuentsr3std7is_sameISI_NT_9boolean_tEEE5valueEiE4typeELi0EEEvRKSJ_RSI_
000000000035ae98 W _ZN8nlohmann16json_abi_v3_12_06detail20get_arithmetic_valueINS0_10basic_jsonINSt6__ndk13mapENS4_6vectorENS4_12basic_stringIcNS4_11char_traitsIcEENS4_9allocatorIcEEEEblmdSA_NS0_14adl_serializerENS6_IhNSA_IhEEEEvEElTnNS4_9enable_ifIXaasr3std13is_arithmeticIT0_EE5valuentsr3std7is_sameISI_NT_9boolean_tEEE5valueEiE4typeELi0EEEvRKSJ_RSI_
000000000035c10c W _ZN8nlohmann16json_abi_v3_12_06detail20get_arithmetic_valueINS0_10basic_jsonINSt6__ndk13mapENS4_6vectorENS4_12basic_stringIcNS4_11char_traitsIcEENS4_9allocatorIcEEEEblmdSA_NS0_14adl_serializerENS6_IhNSA_IhEEEEvEEmTnNS4_9enable_ifIXaasr3std13is_arithmeticIT0_EE5valuentsr3std7is_sameISI_NT_9boolean_tEEE5valueEiE4typeELi0EEEvRKSJ_RSI_
000000000024eb14 W _ZN8nlohmann16json_abi_v3_12_06detail21iteration_proxy_valueINS1_9iter_implIKNS0_10basic_jsonINS0_11ordered_mapENSt6__ndk16vectorENS6_12basic_stringIcNS6_11char_traitsIcEENS6_9allocatorIcEEEEblmdSB_NS0_14adl_serializerENS7_IhNSB_IhEEEEvEEEEED2Ev
0000000000237f3c W _ZN8nlohmann16json_abi_v3_12_06detail21iteration_proxy_valueINS1_9iter_implINS0_10basic_jsonINS0_11ordered_mapENSt6__ndk16vectorENS6_12basic_stringIcNS6_11char_traitsIcEENS6_9allocatorIcEEEEblmdSB_NS0_14adl_serializerENS7_IhNSB_IhEEEEvEEEEED2Ev
0000000000239270 W _ZN8nlohmann16json_abi_v3_12_06detail21output_string_adapterIcNSt6__ndk112basic_stringIcNS3_11char_traitsIcEENS3_9allocatorIcEEEEE15write_characterEc
0000000000239278 W _ZN8nlohmann16json_abi_v3_12_06detail21output_string_adapterIcNSt6__ndk112basic_stringIcNS3_11char_traitsIcEENS3_9allocatorIcEEEEE16write_charactersEPKcm
0000000000239284 W _ZN8nlohmann16json_abi_v3_12_06detail21output_string_adapterIcNSt6__ndk112basic_stringIcNS3_11char_traitsIcEENS3_9allocatorIcEEEEED0Ev
0000000000239280 W _ZN8nlohmann16json_abi_v3_12_06detail23output_adapter_protocolIcED2Ev
0000000000219658 W _ZN8nlohmann16json_abi_v3_12_06detail28json_sax_dom_callback_parserINS0_10basic_jsonINS0_11ordered_mapENSt6__ndk16vectorENS5_12basic_stringIcNS5_11char_traitsIcEENS5_9allocatorIcEEEEblmdSA_NS0_14adl_serializerENS6_IhNSA_IhEEEEvEENS1_22iterator_input_adapterINS5_11__wrap_iterIPKcEEEEE10end_objectEv
0000000000216cc0 W _ZN8nlohmann16json_abi_v3_12_06detail28json_sax_dom_callback_parserINS0_10basic_jsonINS0_11ordered_mapENSt6__ndk16vectorENS5_12basic_stringIcNS5_11char_traitsIcEENS5_9allocatorIcEEEEblmdSA_NS0_14adl_serializerENS6_IhNSA_IhEEEEvEENS1_22iterator_input_adapterINS5_11__wrap_iterIPKcEEEEE11parse_errorINS1_11parse_errorEEEbmRKSC_RKT_
000000000021a3f0 W _ZN8nlohmann16json_abi_v3_12_06detail28json_sax_dom_callback_parserINS0_10basic_jsonINS0_11ordered_mapENSt6__ndk16vectorENS5_12basic_stringIcNS5_11char_traitsIcEENS5_9allocatorIcEEEEblmdSA_NS0_14adl_serializerENS6_IhNSA_IhEEEEvEENS1_22iterator_input_adapterINS5_11__wrap_iterIPKcEEEEE11parse_errorINS1_12out_of_rangeEEEbmRKSC_RKT_
0000000000219d68 W _ZN8nlohmann16json_abi_v3_12_06detail28json_sax_dom_callback_parserINS0_10basic_jsonINS0_11ordered_mapENSt6__ndk16vectorENS5_12basic_stringIcNS5_11char_traitsIcEENS5_9allocatorIcEEEEblmdSA_NS0_14adl_serializerENS6_IhNSA_IhEEEEvEENS1_22iterator_input_adapterINS5_11__wrap_iterIPKcEEEEE11start_arrayEm
000000000021edbc W _ZN8nlohmann16json_abi_v3_12_06detail28json_sax_dom_callback_parserINS0_10basic_jsonINS0_11ordered_mapENSt6__ndk16vectorENS5_12basic_stringIcNS5_11char_traitsIcEENS5_9allocatorIcEEEEblmdSA_NS0_14adl_serializerENS6_IhNSA_IhEEEEvEENS1_22iterator_input_adapterINS5_11__wrap_iterIPKcEEEEE12handle_valueIDnEENS5_4pairIbPSG_EEOT_b
000000000021a840 W _ZN8nlohmann16json_abi_v3_12_06detail28json_sax_dom_callback_parserINS0_10basic_jsonINS0_11ordered_mapENSt6__ndk16vectorENS5_12basic_stringIcNS5_11char_traitsIcEENS5_9allocatorIcEEEEblmdSA_NS0_14adl_serializerENS6_IhNSA_IhEEEEvEENS1_22iterator_input_adapterINS5_11__wrap_iterIPKcEEEEE12handle_valueINS1_7value_tEEENS5_4pairIbPSG_EEOT_b
000000000021f708 W _ZN8nlohmann16json_abi_v3_12_06detail28json_sax_dom_callback_parserINS0_10basic_jsonINS0_11ordered_mapENSt6__ndk16vectorENS5_12basic_stringIcNS5_11char_traitsIcEENS5_9allocatorIcEEEEblmdSA_NS0_14adl_serializerENS6_IhNSA_IhEEEEvEENS1_22iterator_input_adapterINS5_11__wrap_iterIPKcEEEEE12handle_valueIRSC_EENS5_4pairIbPSG_EEOT_b
000000000021e910 W _ZN8nlohmann16json_abi_v3_12_06detail28json_sax_dom_callback_parserINS0_10basic_jsonINS0_11ordered_mapENSt6__ndk16vectorENS5_12basic_stringIcNS5_11char_traitsIcEENS5_9allocatorIcEEEEblmdSA_NS0_14adl_serializerENS6_IhNSA_IhEEEEvEENS1_22iterator_input_adapterINS5_11__wrap_iterIPKcEEEEE12handle_valueIRbEENS5_4pairIbPSG_EEOT_b
000000000021e460 W _ZN8nlohmann16json_abi_v3_12_06detail28json_sax_dom_callback_parserINS0_10basic_jsonINS0_11ordered_mapENSt6__ndk16vectorENS5_12basic_stringIcNS5_11char_traitsIcEENS5_9allocatorIcEEEEblmdSA_NS0_14adl_serializerENS6_IhNSA_IhEEEEvEENS1_22iterator_input_adapterINS5_11__wrap_iterIPKcEEEEE12handle_valueIRdEENS5_4pairIbPSG_EEOT_b
000000000021f260 W _ZN8nlohmann16json_abi_v3_12_06detail28json_sax_dom_callback_parserINS0_10basic_jsonINS0_11ordered_mapENSt6__ndk16vectorENS5_12basic_stringIcNS5_11char_traitsIcEENS5_9allocatorIcEEEEblmdSA_NS0_14adl_serializerENS6_IhNSA_IhEEEEvEENS1_22iterator_input_adapterINS5_11__wrap_iterIPKcEEEEE12handle_valueIRlEENS5_4pairIbPSG_EEOT_b
000000000021fc1c W _ZN8nlohmann16json_abi_v3_12_06detail28json_sax_dom_callback_parserINS0_10basic_jsonINS0_11ordered_mapENSt6__ndk16vectorENS5_12basic_stringIcNS5_11char_traitsIcEENS5_9allocatorIcEEEEblmdSA_NS0_14adl_serializerENS6_IhNSA_IhEEEEvEENS1_22iterator_input_adapterINS5_11__wrap_iterIPKcEEEEE12handle_valueIRmEENS5_4pairIbPSG_EEOT_b
00000000002192f4 W _ZN8nlohmann16json_abi_v3_12_06detail28json_sax_dom_callback_parserINS0_10basic_jsonINS0_11ordered_mapENSt6__ndk16vectorENS5_12basic_stringIcNS5_11char_traitsIcEENS5_9allocatorIcEEEEblmdSA_NS0_14adl_serializerENS6_IhNSA_IhEEEEvEENS1_22iterator_input_adapterINS5_11__wrap_iterIPKcEEEEE12start_objectEm
00000000002199f4 W _ZN8nlohmann16json_abi_v3_12_06detail28json_sax_dom_callback_parserINS0_10basic_jsonINS0_11ordered_mapENSt6__ndk16vectorENS5_12basic_stringIcNS5_11char_traitsIcEENS5_9allocatorIcEEEEblmdSA_NS0_14adl_serializerENS6_IhNSA_IhEEEEvEENS1_22iterator_input_adapterINS5_11__wrap_iterIPKcEEEEE3keyERSC_
000000000021a0d0 W _ZN8nlohmann16json_abi_v3_12_06detail28json_sax_dom_callback_parserINS0_10basic_jsonINS0_11ordered_mapENSt6__ndk16vectorENS5_12basic_stringIcNS5_11char_traitsIcEENS5_9allocatorIcEEEEblmdSA_NS0_14adl_serializerENS6_IhNSA_IhEEEEvEENS1_22iterator_input_adapterINS5_11__wrap_iterIPKcEEEEE9end_arrayEv
00000000002158f0 W _ZN8nlohmann16json_abi_v3_12_06detail28json_sax_dom_callback_parserINS0_10basic_jsonINS0_11ordered_mapENSt6__ndk16vectorENS5_12basic_stringIcNS5_11char_traitsIcEENS5_9allocatorIcEEEEblmdSA_NS0_14adl_serializerENS6_IhNSA_IhEEEEvEENS1_22iterator_input_adapterINS5_11__wrap_iterIPKcEEEEEC2ERSG_NS5_8functionIFbiNS1_13parse_event_tESO_EEEbPNS1_5lexerISG_SM_EE
00000000002177d0 W _ZN8nlohmann16json_abi_v3_12_06detail28json_sax_dom_callback_parserINS0_10basic_jsonINS0_11ordered_mapENSt6__ndk16vectorENS5_12basic_stringIcNS5_11char_traitsIcEENS5_9allocatorIcEEEEblmdSA_NS0_14adl_serializerENS6_IhNSA_IhEEEEvEENS1_22iterator_input_adapterINS5_11__wrap_iterIPKcEEEEED2Ev
000000000030f0f4 W _ZN8nlohmann16json_abi_v3_12_06detail28json_sax_dom_callback_parserINS0_10basic_jsonINSt6__ndk13mapENS4_6vectorENS4_12basic_stringIcNS4_11char_traitsIcEENS4_9allocatorIcEEEEblmdSA_NS0_14adl_serializerENS6_IhNSA_IhEEEEvEENS1_22iterator_input_adapterINS4_11__wrap_iterIPKcEEEEE10end_objectEv
000000000030d0e0 W _ZN8nlohmann16json_abi_v3_12_06detail28json_sax_dom_callback_parserINS0_10basic_jsonINSt6__ndk13mapENS4_6vectorENS4_12basic_stringIcNS4_11char_traitsIcEENS4_9allocatorIcEEEEblmdSA_NS0_14adl_serializerENS6_IhNSA_IhEEEEvEENS1_22iterator_input_adapterINS4_11__wrap_iterIPKcEEEEE11parse_errorINS1_11parse_errorEEEbmRKSC_RKT_
000000000030fecc W _ZN8nlohmann16json_abi_v3_12_06detail28json_sax_dom_callback_parserINS0_10basic_jsonINSt6__ndk13mapENS4_6vectorENS4_12basic_stringIcNS4_11char_traitsIcEENS4_9allocatorIcEEEEblmdSA_NS0_14adl_serializerENS6_IhNSA_IhEEEEvEENS1_22iterator_input_adapterINS4_11__wrap_iterIPKcEEEEE11parse_errorINS1_12out_of_rangeEEEbmRKSC_RKT_
000000000030f844 W _ZN8nlohmann16json_abi_v3_12_06detail28json_sax_dom_callback_parserINS0_10basic_jsonINSt6__ndk13mapENS4_6vectorENS4_12basic_stringIcNS4_11char_traitsIcEENS4_9allocatorIcEEEEblmdSA_NS0_14adl_serializerENS6_IhNSA_IhEEEEvEENS1_22iterator_input_adapterINS4_11__wrap_iterIPKcEEEEE11start_arrayEm
0000000000313938 W _ZN8nlohmann16json_abi_v3_12_06detail28json_sax_dom_callback_parserINS0_10basic_jsonINSt6__ndk13mapENS4_6vectorENS4_12basic_stringIcNS4_11char_traitsIcEENS4_9allocatorIcEEEEblmdSA_NS0_14adl_serializerENS6_IhNSA_IhEEEEvEENS1_22iterator_input_adapterINS4_11__wrap_iterIPKcEEEEE12handle_valueIDnEENS4_4pairIbPSG_EEOT_b
000000000030ff24 W _ZN8nlohmann16json_abi_v3_12_06detail28json_sax_dom_callback_parserINS0_10basic_jsonINSt6__ndk13mapENS4_6vectorENS4_12basic_stringIcNS4_11char_traitsIcEENS4_9allocatorIcEEEEblmdSA_NS0_14adl_serializerENS6_IhNSA_IhEEEEvEENS1_22iterator_input_adapterINS4_11__wrap_iterIPKcEEEEE12handle_valueINS1_7value_tEEENS4_4pairIbPSG_EEOT_b
0000000000314284 W _ZN8nlohmann16json_abi_v3_12_06detail28json_sax_dom_callback_parserINS0_10basic_jsonINSt6__ndk13mapENS4_6vectorENS4_12basic_stringIcNS4_11char_traitsIcEENS4_9allocatorIcEEEEblmdSA_NS0_14adl_serializerENS6_IhNSA_IhEEEEvEENS1_22iterator_input_adapterINS4_11__wrap_iterIPKcEEEEE12handle_valueIRSC_EENS4_4pairIbPSG_EEOT_b
000000000031348c W _ZN8nlohmann16json_abi_v3_12_06detail28json_sax_dom_callback_parserINS0_10basic_jsonINSt6__ndk13mapENS4_6vectorENS4_12basic_stringIcNS4_11char_traitsIcEENS4_9allocatorIcEEEEblmdSA_NS0_14adl_serializerENS6_IhNSA_IhEEEEvEENS1_22iterator_input_adapterINS4_11__wrap_iterIPKcEEEEE12handle_valueIRbEENS4_4pairIbPSG_EEOT_b
0000000000312fdc W _ZN8nlohmann16json_abi_v3_12_06detail28json_sax_dom_callback_parserINS0_10basic_jsonINSt6__ndk13mapENS4_6vectorENS4_12basic_stringIcNS4_11char_traitsIcEENS4_9allocatorIcEEEEblmdSA_NS0_14adl_serializerENS6_IhNSA_IhEEEEvEENS1_22iterator_input_adapterINS4_11__wrap_iterIPKcEEEEE12handle_valueIRdEENS4_4pairIbPSG_EEOT_b
0000000000313ddc W _ZN8nlohmann16json_abi_v3_12_06detail28json_sax_dom_callback_parserINS0_10basic_jsonINSt6__ndk13mapENS4_6vectorENS4_12basic_stringIcNS4_11char_traitsIcEENS4_9allocatorIcEEEEblmdSA_NS0_14adl_serializerENS6_IhNSA_IhEEEEvEENS1_22iterator_input_adapterINS4_11__wrap_iterIPKcEEEEE12handle_valueIRlEENS4_4pairIbPSG_EEOT_b
0000000000314798 W _ZN8nlohmann16json_abi_v3_12_06detail28json_sax_dom_callback_parserINS0_10basic_jsonINSt6__ndk13mapENS4_6vectorENS4_12basic_stringIcNS4_11char_traitsIcEENS4_9allocatorIcEEEEblmdSA_NS0_14adl_serializerENS6_IhNSA_IhEEEEvEENS1_22iterator_input_adapterINS4_11__wrap_iterIPKcEEEEE12handle_valueIRmEENS4_4pairIbPSG_EEOT_b
000000000030ed90 W _ZN8nlohmann16json_abi_v3_12_06detail28json_sax_dom_callback_parserINS0_10basic_jsonINSt6__ndk13mapENS4_6vectorENS4_12basic_stringIcNS4_11char_traitsIcEENS4_9allocatorIcEEEEblmdSA_NS0_14adl_serializerENS6_IhNSA_IhEEEEvEENS1_22iterator_input_adapterINS4_11__wrap_iterIPKcEEEEE12start_objectEm
000000000030f4b8 W _ZN8nlohmann16json_abi_v3_12_06detail28json_sax_dom_callback_parserINS0_10basic_jsonINSt6__ndk13mapENS4_6vectorENS4_12basic_stringIcNS4_11char_traitsIcEENS4_9allocatorIcEEEEblmdSA_NS0_14adl_serializerENS6_IhNSA_IhEEEEvEENS1_22iterator_input_adapterINS4_11__wrap_iterIPKcEEEEE3keyERSC_
000000000030fbac W _ZN8nlohmann16json_abi_v3_12_06detail28json_sax_dom_callback_parserINS0_10basic_jsonINSt6__ndk13mapENS4_6vectorENS4_12basic_stringIcNS4_11char_traitsIcEENS4_9allocatorIcEEEEblmdSA_NS0_14adl_serializerENS6_IhNSA_IhEEEEvEENS1_22iterator_input_adapterINS4_11__wrap_iterIPKcEEEEE9end_arrayEv
000000000030bd4c W _ZN8nlohmann16json_abi_v3_12_06detail28json_sax_dom_callback_parserINS0_10basic_jsonINSt6__ndk13mapENS4_6vectorENS4_12basic_stringIcNS4_11char_traitsIcEENS4_9allocatorIcEEEEblmdSA_NS0_14adl_serializerENS6_IhNSA_IhEEEEvEENS1_22iterator_input_adapterINS4_11__wrap_iterIPKcEEEEEC2ERSG_NS4_8functionIFbiNS1_13parse_event_tESO_EEEbPNS1_5lexerISG_SM_EE
000000000030d7c0 W _ZN8nlohmann16json_abi_v3_12_06detail28json_sax_dom_callback_parserINS0_10basic_jsonINSt6__ndk13mapENS4_6vectorENS4_12basic_stringIcNS4_11char_traitsIcEENS4_9allocatorIcEEEEblmdSA_NS0_14adl_serializerENS6_IhNSA_IhEEEEvEENS1_22iterator_input_adapterINS4_11__wrap_iterIPKcEEEEED2Ev
0000000000214e78 W _ZN8nlohmann16json_abi_v3_12_06detail5lexerINS0_10basic_jsonINS0_11ordered_mapENSt6__ndk16vectorENS5_12basic_stringIcNS5_11char_traitsIcEENS5_9allocatorIcEEEEblmdSA_NS0_14adl_serializerENS6_IhNSA_IhEEEEvEENS1_22iterator_input_adapterINS5_11__wrap_iterIPKcEEEEE11scan_numberEv
00000000002143b8 W _ZN8nlohmann16json_abi_v3_12_06detail5lexerINS0_10basic_jsonINS0_11ordered_mapENSt6__ndk16vectorENS5_12basic_stringIcNS5_11char_traitsIcEENS5_9allocatorIcEEEEblmdSA_NS0_14adl_serializerENS6_IhNSA_IhEEEEvEENS1_22iterator_input_adapterINS5_11__wrap_iterIPKcEEEEE11scan_stringEv
00000000002141d8 W _ZN8nlohmann16json_abi_v3_12_06detail5lexerINS0_10basic_jsonINS0_11ordered_mapENSt6__ndk16vectorENS5_12basic_stringIcNS5_11char_traitsIcEENS5_9allocatorIcEEEEblmdSA_NS0_14adl_serializerENS6_IhNSA_IhEEEEvEENS1_22iterator_input_adapterINS5_11__wrap_iterIPKcEEEEE12scan_commentEv
000000000021430c W _ZN8nlohmann16json_abi_v3_12_06detail5lexerINS0_10basic_jsonINS0_11ordered_mapENSt6__ndk16vectorENS5_12basic_stringIcNS5_11char_traitsIcEENS5_9allocatorIcEEEEblmdSA_NS0_14adl_serializerENS6_IhNSA_IhEEEEvEENS1_22iterator_input_adapterINS5_11__wrap_iterIPKcEEEEE12scan_literalESK_mNS1_10lexer_baseISG_E10token_typeE
0000000000215718 W _ZN8nlohmann16json_abi_v3_12_06detail5lexerINS0_10basic_jsonINS0_11ordered_mapENSt6__ndk16vectorENS5_12basic_stringIcNS5_11char_traitsIcEENS5_9allocatorIcEEEEblmdSA_NS0_14adl_serializerENS6_IhNSA_IhEEEEvEENS1_22iterator_input_adapterINS5_11__wrap_iterIPKcEEEEE13get_codepointEv
0000000000214044 W _ZN8nlohmann16json_abi_v3_12_06detail5lexerINS0_10basic_jsonINS0_11ordered_mapENSt6__ndk16vectorENS5_12basic_stringIcNS5_11char_traitsIcEENS5_9allocatorIcEEEEblmdSA_NS0_14adl_serializerENS6_IhNSA_IhEEEEvEENS1_22iterator_input_adapterINS5_11__wrap_iterIPKcEEEEE15skip_whitespaceEv
00000000002155b0 W _ZN8nlohmann16json_abi_v3_12_06detail5lexerINS0_10basic_jsonINS0_11ordered_mapENSt6__ndk16vectorENS5_12basic_stringIcNS5_11char_traitsIcEENS5_9allocatorIcEEEEblmdSA_NS0_14adl_serializerENS6_IhNSA_IhEEEEvEENS1_22iterator_input_adapterINS5_11__wrap_iterIPKcEEEEE3getEv
0000000000213db0 W _ZN8nlohmann16json_abi_v3_12_06detail5lexerINS0_10basic_jsonINS0_11ordered_mapENSt6__ndk16vectorENS5_12basic_stringIcNS5_11char_traitsIcEENS5_9allocatorIcEEEEblmdSA_NS0_14adl_serializerENS6_IhNSA_IhEEEEvEENS1_22iterator_input_adapterINS5_11__wrap_iterIPKcEEEEE4scanEv
0000000000213f68 W _ZN8nlohmann16json_abi_v3_12_06detail5lexerINS0_10basic_jsonINS0_11ordered_mapENSt6__ndk16vectorENS5_12basic_stringIcNS5_11char_traitsIcEENS5_9allocatorIcEEEEblmdSA_NS0_14adl_serializerENS6_IhNSA_IhEEEEvEENS1_22iterator_input_adapterINS5_11__wrap_iterIPKcEEEEE8skip_bomEv
0000000000213d5c W _ZN8nlohmann16json_abi_v3_12_06detail5lexerINS0_10basic_jsonINS0_11ordered_mapENSt6__ndk16vectorENS5_12basic_stringIcNS5_11char_traitsIcEENS5_9allocatorIcEEEEblmdSA_NS0_14adl_serializerENS6_IhNSA_IhEEEEvEENS1_22iterator_input_adapterINS5_11__wrap_iterIPKcEEEEED2Ev
000000000030b2e8 W _ZN8nlohmann16json_abi_v3_12_06detail5lexerINS0_10basic_jsonINSt6__ndk13mapENS4_6vectorENS4_12basic_stringIcNS4_11char_traitsIcEENS4_9allocatorIcEEEEblmdSA_NS0_14adl_serializerENS6_IhNSA_IhEEEEvEENS1_22iterator_input_adapterINS4_11__wrap_iterIPKcEEEEE11scan_numberEv
000000000030a828 W _ZN8nlohmann16json_abi_v3_12_06detail5lexerINS0_10basic_jsonINSt6__ndk13mapENS4_6vectorENS4_12basic_stringIcNS4_11char_traitsIcEENS4_9allocatorIcEEEEblmdSA_NS0_14adl_serializerENS6_IhNSA_IhEEEEvEENS1_22iterator_input_adapterINS4_11__wrap_iterIPKcEEEEE11scan_stringEv
000000000030a648 W _ZN8nlohmann16json_abi_v3_12_06detail5lexerINS0_10basic_jsonINSt6__ndk13mapENS4_6vectorENS4_12basic_stringIcNS4_11char_traitsIcEENS4_9allocatorIcEEEEblmdSA_NS0_14adl_serializerENS6_IhNSA_IhEEEEvEENS1_22iterator_input_adapterINS4_11__wrap_iterIPKcEEEEE12scan_commentEv
000000000030a77c W _ZN8nlohmann16json_abi_v3_12_06detail5lexerINS0_10basic_jsonINSt6__ndk13mapENS4_6vectorENS4_12basic_stringIcNS4_11char_traitsIcEENS4_9allocatorIcEEEEblmdSA_NS0_14adl_serializerENS6_IhNSA_IhEEEEvEENS1_22iterator_input_adapterINS4_11__wrap_iterIPKcEEEEE12scan_literalESK_mNS1_10lexer_baseISG_E10token_typeE
000000000030bb74 W _ZN8nlohmann16json_abi_v3_12_06detail5lexerINS0_10basic_jsonINSt6__ndk13mapENS4_6vectorENS4_12basic_stringIcNS4_11char_traitsIcEENS4_9allocatorIcEEEEblmdSA_NS0_14adl_serializerENS6_IhNSA_IhEEEEvEENS1_22iterator_input_adapterINS4_11__wrap_iterIPKcEEEEE13get_codepointEv
000000000030a4b4 W _ZN8nlohmann16json_abi_v3_12_06detail5lexerINS0_10basic_jsonINSt6__ndk13mapENS4_6vectorENS4_12basic_stringIcNS4_11char_traitsIcEENS4_9allocatorIcEEEEblmdSA_NS0_14adl_serializerENS6_IhNSA_IhEEEEvEENS1_22iterator_input_adapterINS4_11__wrap_iterIPKcEEEEE15skip_whitespaceEv
000000000030ba20 W _ZN8nlohmann16json_abi_v3_12_06detail5lexerINS0_10basic_jsonINSt6__ndk13mapENS4_6vectorENS4_12basic_stringIcNS4_11char_traitsIcEENS4_9allocatorIcEEEEblmdSA_NS0_14adl_serializerENS6_IhNSA_IhEEEEvEENS1_22iterator_input_adapterINS4_11__wrap_iterIPKcEEEEE3getEv
000000000030a220 W _ZN8nlohmann16json_abi_v3_12_06detail5lexerINS0_10basic_jsonINSt6__ndk13mapENS4_6vectorENS4_12basic_stringIcNS4_11char_traitsIcEENS4_9allocatorIcEEEEblmdSA_NS0_14adl_serializerENS6_IhNSA_IhEEEEvEENS1_22iterator_input_adapterINS4_11__wrap_iterIPKcEEEEE4scanEv
000000000030a3d8 W _ZN8nlohmann16json_abi_v3_12_06detail5lexerINS0_10basic_jsonINSt6__ndk13mapENS4_6vectorENS4_12basic_stringIcNS4_11char_traitsIcEENS4_9allocatorIcEEEEblmdSA_NS0_14adl_serializerENS6_IhNSA_IhEEEEvEENS1_22iterator_input_adapterINS4_11__wrap_iterIPKcEEEEE8skip_bomEv
000000000030a1cc W _ZN8nlohmann16json_abi_v3_12_06detail5lexerINS0_10basic_jsonINSt6__ndk13mapENS4_6vectorENS4_12basic_stringIcNS4_11char_traitsIcEENS4_9allocatorIcEEEEblmdSA_NS0_14adl_serializerENS6_IhNSA_IhEEEEvEENS1_22iterator_input_adapterINS4_11__wrap_iterIPKcEEEEED2Ev
00000000002206b8 W _ZN8nlohmann16json_abi_v3_12_06detail6concatINSt6__ndk112basic_stringIcNS3_11char_traitsIcEENS3_9allocatorIcEEEEJPKcRA15_SA_S9_cEEET_DpOT0_
00000000002204e8 W _ZN8nlohmann16json_abi_v3_12_06detail6concatINSt6__ndk112basic_stringIcNS3_11char_traitsIcEENS3_9allocatorIcEEEEJRA10_KcS9_SC_S9_EEET_DpOT0_
00000000002cd3b0 W _ZN8nlohmann16json_abi_v3_12_06detail6concatINSt6__ndk112basic_stringIcNS3_11char_traitsIcEENS3_9allocatorIcEEEEJRA13_KcS9_RA17_SA_EEET_DpOT0_
00000000002205fc W _ZN8nlohmann16json_abi_v3_12_06detail6concatINSt6__ndk112basic_stringIcNS3_11char_traitsIcEENS3_9allocatorIcEEEEJRA15_KcRKS9_cEEET_DpOT0_
0000000000213a88 W _ZN8nlohmann16json_abi_v3_12_06detail6concatINSt6__ndk112basic_stringIcNS3_11char_traitsIcEENS3_9allocatorIcEEEEJRA17_KcRKS9_cS9_RA3_SA_EEET_DpOT0_
00000000002494c4 W _ZN8nlohmann16json_abi_v3_12_06detail6concatINSt6__ndk112basic_stringIcNS3_11char_traitsIcEENS3_9allocatorIcEEEEJRA22_KcPSA_EEET_DpOT0_
000000000021e36c W _ZN8nlohmann16json_abi_v3_12_06detail6concatINSt6__ndk112basic_stringIcNS3_11char_traitsIcEENS3_9allocatorIcEEEEJRA23_KcS9_EEET_DpOT0_
000000000021b0d0 W _ZN8nlohmann16json_abi_v3_12_06detail6concatINSt6__ndk112basic_stringIcNS3_11char_traitsIcEENS3_9allocatorIcEEEEJRA24_KcS9_EEET_DpOT0_
000000000021d770 W _ZN8nlohmann16json_abi_v3_12_06detail6concatINSt6__ndk112basic_stringIcNS3_11char_traitsIcEENS3_9allocatorIcEEEEJRA25_KcPSA_EEET_DpOT0_
00000000002b6840 W _ZN8nlohmann16json_abi_v3_12_06detail6concatINSt6__ndk112basic_stringIcNS3_11char_traitsIcEENS3_9allocatorIcEEEEJRA26_KcPSA_EEET_DpOT0_
000000000021a784 W _ZN8nlohmann16json_abi_v3_12_06detail6concatINSt6__ndk112basic_stringIcNS3_11char_traitsIcEENS3_9allocatorIcEEEEJRA26_KcS9_cEEET_DpOT0_
000000000024ec84 W _ZN8nlohmann16json_abi_v3_12_06detail6concatINSt6__ndk112basic_stringIcNS3_11char_traitsIcEENS3_9allocatorIcEEEEJRA28_KcPSA_EEET_DpOT0_
000000000024c714 W _ZN8nlohmann16json_abi_v3_12_06detail6concatINSt6__ndk112basic_stringIcNS3_11char_traitsIcEENS3_9allocatorIcEEEEJRA29_KcPSA_EEET_DpOT0_
000000000023a000 W _ZN8nlohmann16json_abi_v3_12_06detail6concatINSt6__ndk112basic_stringIcNS3_11char_traitsIcEENS3_9allocatorIcEEEEJRA29_KcS9_RA5_SA_S9_EEET_DpOT0_
00000000002b3630 W _ZN8nlohmann16json_abi_v3_12_06detail6concatINSt6__ndk112basic_stringIcNS3_11char_traitsIcEENS3_9allocatorIcEEEEJRA30_KcPSA_EEET_DpOT0_
000000000023a1ec W _ZN8nlohmann16json_abi_v3_12_06detail6concatINSt6__ndk112basic_stringIcNS3_11char_traitsIcEENS3_9allocatorIcEEEEJRA39_KcS9_EEET_DpOT0_
000000000025314c W _ZN8nlohmann16json_abi_v3_12_06detail6concatINSt6__ndk112basic_stringIcNS3_11char_traitsIcEENS3_9allocatorIcEEEEJRA51_KcPSA_EEET_DpOT0_
000000000024adb4 W _ZN8nlohmann16json_abi_v3_12_06detail6concatINSt6__ndk112basic_stringIcNS3_11char_traitsIcEENS3_9allocatorIcEEEEJRA52_KcPSA_EEET_DpOT0_
00000000002cf29c W _ZN8nlohmann16json_abi_v3_12_06detail6concatINSt6__ndk112basic_stringIcNS3_11char_traitsIcEENS3_9allocatorIcEEEEJRA56_KcPSA_EEET_DpOT0_
0000000000249890 W _ZN8nlohmann16json_abi_v3_12_06detail6concatINSt6__ndk112basic_stringIcNS3_11char_traitsIcEENS3_9allocatorIcEEEEJRA6_KcS9_RA12_SA_EEET_DpOT0_
0000000000220204 W _ZN8nlohmann16json_abi_v3_12_06detail6concatINSt6__ndk112basic_stringIcNS3_11char_traitsIcEENS3_9allocatorIcEEEEJS9_RA12_KcS9_RA3_SA_S9_RKS9_EEET_DpOT0_
0000000000213980 W _ZN8nlohmann16json_abi_v3_12_06detail6concatINSt6__ndk112basic_stringIcNS3_11char_traitsIcEENS3_9allocatorIcEEEEJS9_S9_RKS9_EEET_DpOT0_
00000000002171e0 W _ZN8nlohmann16json_abi_v3_12_06detail6parserINS0_10basic_jsonINS0_11ordered_mapENSt6__ndk16vectorENS5_12basic_stringIcNS5_11char_traitsIcEENS5_9allocatorIcEEEEblmdSA_NS0_14adl_serializerENS6_IhNSA_IhEEEEvEENS1_22iterator_input_adapterINS5_11__wrap_iterIPKcEEEEE17exception_messageENS1_10lexer_baseISG_E10token_typeERKSC_
00000000002178f4 W _ZN8nlohmann16json_abi_v3_12_06detail6parserINS0_10basic_jsonINS0_11ordered_mapENSt6__ndk16vectorENS5_12basic_stringIcNS5_11char_traitsIcEENS5_9allocatorIcEEEEblmdSA_NS0_14adl_serializerENS6_IhNSA_IhEEEEvEENS1_22iterator_input_adapterINS5_11__wrap_iterIPKcEEEEE18sax_parse_internalINS1_19json_sax_dom_parserISG_SM_EEEEbPT_
0000000000215ad0 W _ZN8nlohmann16json_abi_v3_12_06detail6parserINS0_10basic_jsonINS0_11ordered_mapENSt6__ndk16vectorENS5_12basic_stringIcNS5_11char_traitsIcEENS5_9allocatorIcEEEEblmdSA_NS0_14adl_serializerENS6_IhNSA_IhEEEEvEENS1_22iterator_input_adapterINS5_11__wrap_iterIPKcEEEEE18sax_parse_internalINS1_28json_sax_dom_callback_parserISG_SM_EEEEbPT_
0000000000212c24 W _ZN8nlohmann16json_abi_v3_12_06detail6parserINS0_10basic_jsonINS0_11ordered_mapENSt6__ndk16vectorENS5_12basic_stringIcNS5_11char_traitsIcEENS5_9allocatorIcEEEEblmdSA_NS0_14adl_serializerENS6_IhNSA_IhEEEEvEENS1_22iterator_input_adapterINS5_11__wrap_iterIPKcEEEEE5parseEbRSG_
0000000000213c00 W _ZN8nlohmann16json_abi_v3_12_06detail6parserINS0_10basic_jsonINS0_11ordered_mapENSt6__ndk16vectorENS5_12basic_stringIcNS5_11char_traitsIcEENS5_9allocatorIcEEEEblmdSA_NS0_14adl_serializerENS6_IhNSA_IhEEEEvEENS1_22iterator_input_adapterINS5_11__wrap_iterIPKcEEEEEC2EOSM_NS5_8functionIFbiNS1_13parse_event_tERSG_EEEbb
0000000000213744 W _ZN8nlohmann16json_abi_v3_12_06detail6parserINS0_10basic_jsonINS0_11ordered_mapENSt6__ndk16vectorENS5_12basic_stringIcNS5_11char_traitsIcEENS5_9allocatorIcEEEEblmdSA_NS0_14adl_serializerENS6_IhNSA_IhEEEEvEENS1_22iterator_input_adapterINS5_11__wrap_iterIPKcEEEEED2Ev
000000000030d218 W _ZN8nlohmann16json_abi_v3_12_06detail6parserINS0_10basic_jsonINSt6__ndk13mapENS4_6vectorENS4_12basic_stringIcNS4_11char_traitsIcEENS4_9allocatorIcEEEEblmdSA_NS0_14adl_serializerENS6_IhNSA_IhEEEEvEENS1_22iterator_input_adapterINS4_11__wrap_iterIPKcEEEEE17exception_messageENS1_10lexer_baseISG_E10token_typeERKSC_
000000000030d8e4 W _ZN8nlohmann16json_abi_v3_12_06detail6parserINS0_10basic_jsonINSt6__ndk13mapENS4_6vectorENS4_12basic_stringIcNS4_11char_traitsIcEENS4_9allocatorIcEEEEblmdSA_NS0_14adl_serializerENS6_IhNSA_IhEEEEvEENS1_22iterator_input_adapterINS4_11__wrap_iterIPKcEEEEE18sax_parse_internalINS1_19json_sax_dom_parserISG_SM_EEEEbPT_
000000000030bf2c W _ZN8nlohmann16json_abi_v3_12_06detail6parserINS0_10basic_jsonINSt6__ndk13mapENS4_6vectorENS4_12basic_stringIcNS4_11char_traitsIcEENS4_9allocatorIcEEEEblmdSA_NS0_14adl_serializerENS6_IhNSA_IhEEEEvEENS1_22iterator_input_adapterINS4_11__wrap_iterIPKcEEEEE18sax_parse_internalINS1_28json_sax_dom_callback_parserISG_SM_EEEEbPT_
00000000003094ec W _ZN8nlohmann16json_abi_v3_12_06detail6parserINS0_10basic_jsonINSt6__ndk13mapENS4_6vectorENS4_12basic_stringIcNS4_11char_traitsIcEENS4_9allocatorIcEEEEblmdSA_NS0_14adl_serializerENS6_IhNSA_IhEEEEvEENS1_22iterator_input_adapterINS4_11__wrap_iterIPKcEEEEE5parseEbRSG_
000000000030a070 W _ZN8nlohmann16json_abi_v3_12_06detail6parserINS0_10basic_jsonINSt6__ndk13mapENS4_6vectorENS4_12basic_stringIcNS4_11char_traitsIcEENS4_9allocatorIcEEEEblmdSA_NS0_14adl_serializerENS6_IhNSA_IhEEEEvEENS1_22iterator_input_adapterINS4_11__wrap_iterIPKcEEEEEC2EOSM_NS4_8functionIFbiNS1_13parse_event_tERSG_EEEbb
0000000000309fe4 W _ZN8nlohmann16json_abi_v3_12_06detail6parserINS0_10basic_jsonINSt6__ndk13mapENS4_6vectorENS4_12basic_stringIcNS4_11char_traitsIcEENS4_9allocatorIcEEEEblmdSA_NS0_14adl_serializerENS6_IhNSA_IhEEEEvEENS1_22iterator_input_adapterINS4_11__wrap_iterIPKcEEEEED2Ev
000000000025332c W _ZN8nlohmann16json_abi_v3_12_06detail8json_refINS0_10basic_jsonINS0_11ordered_mapENSt6__ndk16vectorENS5_12basic_stringIcNS5_11char_traitsIcEENS5_9allocatorIcEEEEblmdSA_NS0_14adl_serializerENS6_IhNSA_IhEEEEvEEED2Ev
0000000000346cc4 W _ZN8nlohmann16json_abi_v3_12_06detail8json_refINS0_10basic_jsonINSt6__ndk13mapENS4_6vectorENS4_12basic_stringIcNS4_11char_traitsIcEENS4_9allocatorIcEEEEblmdSA_NS0_14adl_serializerENS6_IhNSA_IhEEEEvEEED2Ev
000000000023a294 W _ZN8nlohmann16json_abi_v3_12_06detail8to_charsIdEEPcS3_PKcT_
000000000023af94 W _ZN8nlohmann16json_abi_v3_12_06detail9dtoa_impl12grisu2_roundEPcimmmm
000000000023a4d0 W _ZN8nlohmann16json_abi_v3_12_06detail9dtoa_impl13format_bufferEPciiii
000000000023ac0c W _ZN8nlohmann16json_abi_v3_12_06detail9dtoa_impl16grisu2_digit_genEPcRiS4_NS2_5diyfpES5_S5_
000000000023a79c W _ZN8nlohmann16json_abi_v3_12_06detail9dtoa_impl18compute_boundariesIdEENS2_10boundariesET_
000000000023aab0 W _ZN8nlohmann16json_abi_v3_12_06detail9dtoa_impl36get_cached_power_for_binary_exponentEi
000000000023a918 W _ZN8nlohmann16json_abi_v3_12_06detail9dtoa_impl6grisu2EPcRiS4_NS2_5diyfpES5_S5_
0000000000273194 W _ZN8nlohmann16json_abi_v3_12_06detail9dtoa_impl6grisu2IdEEvPcRiS5_T_
0000000000213bc0 W _ZN8nlohmann16json_abi_v3_12_06detail9exceptionD0Ev
0000000000217658 W _ZN8nlohmann16json_abi_v3_12_06detail9exceptionD2Ev
000000000024c5ec W _ZN8nlohmann16json_abi_v3_12_06detail9from_jsonINS0_10basic_jsonINS0_11ordered_mapENSt6__ndk16vectorENS5_12basic_stringIcNS5_11char_traitsIcEENS5_9allocatorIcEEEEblmdSA_NS0_14adl_serializerENS6_IhNSA_IhEEEEvEEEEvRKT_RNSH_8string_tE
00000000002b350c W _ZN8nlohmann16json_abi_v3_12_06detail9from_jsonINS0_10basic_jsonINS0_11ordered_mapENSt6__ndk16vectorENS5_12basic_stringIcNS5_11char_traitsIcEENS5_9allocatorIcEEEEblmdSA_NS0_14adl_serializerENS6_IhNSA_IhEEEEvEEEEvRKT_RNSH_9boolean_tE
000000000024eb68 W _ZN8nlohmann16json_abi_v3_12_06detail9from_jsonINS0_10basic_jsonINS0_11ordered_mapENSt6__ndk16vectorENS5_12basic_stringIcNS5_11char_traitsIcEENS5_9allocatorIcEEEEblmdSA_NS0_14adl_serializerENS6_IhNSA_IhEEEEvEENS5_3setISC_NS5_4lessISC_EENSA_ISC_EEEETnNS5_9enable_ifIXaaaaaaaasr27is_constructible_array_typeIT_T0_EE5valuentsr28is_constructible_object_typeISN_SO_EE5valuentsr28is_constructible_string_typeISN_SO_EE5valuentsr3std7is_sameISO_NSN_8binary_tEEE5valuentsr13is_basic_jsonISO_EE5valueEiE4typeELi0EEEDTcmcmcl20from_json_array_implfp_fp0_tlNS1_12priority_tagILj3EEEEEcldtfp_3getINSO_10value_typeEEEcvv_EERKSN_RSO_
00000000003304b4 W _ZN8nlohmann16json_abi_v3_12_06detail9from_jsonINS0_10basic_jsonINS0_11ordered_mapENSt6__ndk16vectorENS5_12basic_stringIcNS5_11char_traitsIcEENS5_9allocatorIcEEEEblmdSA_NS0_14adl_serializerENS6_IhNSA_IhEEEEvEENS6_ISG_NSA_ISG_EEEETnNS5_9enable_ifIXaaaaaaaasr27is_constructible_array_typeIT_T0_EE5valuentsr28is_constructible_object_typeISK_SL_EE5valuentsr28is_constructible_string_typeISK_SL_EE5valuentsr3std7is_sameISL_NSK_8binary_tEEE5valuentsr13is_basic_jsonISL_EE5valueEiE4typeELi0EEEDTcmcmcl20from_json_array_implfp_fp0_tlNS1_12priority_tagILj3EEEEEcldtfp_3getINSL_10value_typeEEEcvv_EERKSK_RSL_
0000000000334218 W _ZN8nlohmann16json_abi_v3_12_06detail9from_jsonINS0_10basic_jsonINS0_11ordered_mapENSt6__ndk16vectorENS5_12basic_stringIcNS5_11char_traitsIcEENS5_9allocatorIcEEEEblmdSA_NS0_14adl_serializerENS6_IhNSA_IhEEEEvEEiTnNS5_9enable_ifIXaaaaaaaasr3std13is_arithmeticIT0_EE5valuentsr3std7is_sameISI_NT_17number_unsigned_tEEE5valuentsr3std7is_sameISI_NSJ_16number_integer_tEEE5valuentsr3std7is_sameISI_NSJ_14number_float_tEEE5valuentsr3std7is_sameISI_NSJ_9boolean_tEEE5valueEiE4typeELi0EEEvRKSJ_RSI_
00000000003173e0 W _ZN8nlohmann16json_abi_v3_12_06detail9from_jsonINS0_10basic_jsonINSt6__ndk13mapENS4_6vectorENS4_12basic_stringIcNS4_11char_traitsIcEENS4_9allocatorIcEEEEblmdSA_NS0_14adl_serializerENS6_IhNSA_IhEEEEvEEEEvRKT_RNSH_8string_tE
000000000035b888 W _ZN8nlohmann16json_abi_v3_12_06detail9from_jsonINS0_10basic_jsonINSt6__ndk13mapENS4_6vectorENS4_12basic_stringIcNS4_11char_traitsIcEENS4_9allocatorIcEEEEblmdSA_NS0_14adl_serializerENS6_IhNSA_IhEEEEvEEEEvRKT_RNSH_9boolean_tE
000000000035b9ac W _ZN8nlohmann16json_abi_v3_12_06detail9from_jsonINS0_10basic_jsonINSt6__ndk13mapENS4_6vectorENS4_12basic_stringIcNS4_11char_traitsIcEENS4_9allocatorIcEEEEblmdSA_NS0_14adl_serializerENS6_IhNSA_IhEEEEvEENS4_13unordered_mapISC_mNS4_4hashISC_EENS4_8equal_toISC_EENSA_INS4_4pairIKSC_mEEEEEETnNS4_9enable_ifIXsr28is_constructible_object_typeIT_T0_EE5valueEiE4typeELi0EEEvRKSS_RST_
000000000035a004 W _ZN8nlohmann16json_abi_v3_12_06detail9from_jsonINS0_10basic_jsonINSt6__ndk13mapENS4_6vectorENS4_12basic_stringIcNS4_11char_traitsIcEENS4_9allocatorIcEEEEblmdSA_NS0_14adl_serializerENS6_IhNSA_IhEEEEvEENS6_ISC_NSA_ISC_EEEETnNS4_9enable_ifIXaaaaaaaasr27is_constructible_array_typeIT_T0_EE5valuentsr28is_constructible_object_typeISK_SL_EE5valuentsr28is_constructible_string_typeISK_SL_EE5valuentsr3std7is_sameISL_NSK_8binary_tEEE5valuentsr13is_basic_jsonISL_EE5valueEiE4typeELi0EEEDTcmcmcl20from_json_array_implfp_fp0_tlNS1_12priority_tagILj3EEEEEcldtfp_3getINSL_10value_typeEEEcvv_EERKSK_RSL_
000000000035970c W _ZN8nlohmann16json_abi_v3_12_06detail9from_jsonINS0_10basic_jsonINSt6__ndk13mapENS4_6vectorENS4_12basic_stringIcNS4_11char_traitsIcEENS4_9allocatorIcEEEEblmdSA_NS0_14adl_serializerENS6_IhNSA_IhEEEEvEENS6_ImNSA_ImEEEETnNS4_9enable_ifIXaaaaaaaasr27is_constructible_array_typeIT_T0_EE5valuentsr28is_constructible_object_typeISK_SL_EE5valuentsr28is_constructible_string_typeISK_SL_EE5valuentsr3std7is_sameISL_NSK_8binary_tEEE5valuentsr13is_basic_jsonISL_EE5valueEiE4typeELi0EEEDTcmcmcl20from_json_array_implfp_fp0_tlNS1_12priority_tagILj3EEEEEcldtfp_3getINSL_10value_typeEEEcvv_EERKSK_RSL_
0000000000359d3c W _ZN8nlohmann16json_abi_v3_12_06detail9from_jsonINS0_10basic_jsonINSt6__ndk13mapENS4_6vectorENS4_12basic_stringIcNS4_11char_traitsIcEENS4_9allocatorIcEEEEblmdSA_NS0_14adl_serializerENS6_IhNSA_IhEEEEvEEiTnNS4_9enable_ifIXaaaaaaaasr3std13is_arithmeticIT0_EE5valuentsr3std7is_sameISI_NT_17number_unsigned_tEEE5valuentsr3std7is_sameISI_NSJ_16number_integer_tEEE5valuentsr3std7is_sameISI_NSJ_14number_float_tEEE5valuentsr3std7is_sameISI_NSJ_9boolean_tEEE5valueEiE4typeELi0EEEvRKSJ_RSI_
0000000000359ea0 W _ZN8nlohmann16json_abi_v3_12_06detail9from_jsonINS0_10basic_jsonINSt6__ndk13mapENS4_6vectorENS4_12basic_stringIcNS4_11char_traitsIcEENS4_9allocatorIcEEEEblmdSA_NS0_14adl_serializerENS6_IhNSA_IhEEEEvEEjTnNS4_9enable_ifIXaaaaaaaasr3std13is_arithmeticIT0_EE5valuentsr3std7is_sameISI_NT_17number_unsigned_tEEE5valuentsr3std7is_sameISI_NSJ_16number_integer_tEEE5valuentsr3std7is_sameISI_NSJ_14number_float_tEEE5valuentsr3std7is_sameISI_NSJ_9boolean_tEEE5valueEiE4typeELi0EEEvRKSJ_RSI_
0000000000248d24 W _ZN8nlohmann16json_abi_v3_12_0eqERKNS0_10basic_jsonINS0_11ordered_mapENSt6__ndk16vectorENS3_12basic_stringIcNS3_11char_traitsIcEENS3_9allocatorIcEEEEblmdS8_NS0_14adl_serializerENS4_IhNS8_IhEEEEvEESG_
000000000031989c W _ZN8nlohmann16json_abi_v3_12_0eqERKNS0_10basic_jsonINSt6__ndk13mapENS2_6vectorENS2_12basic_stringIcNS2_11char_traitsIcEENS2_9allocatorIcEEEEblmdS8_NS0_14adl_serializerENS4_IhNS8_IhEEEEvEESG_
0000000000326b30 W _ZN8nlohmann16json_abi_v3_12_0eqIPKcTnNSt6__ndk19enable_ifIXsr3std9is_scalarIT_EE5valueEiE4typeELi0EEEbRKNS0_10basic_jsonINS0_11ordered_mapENS4_6vectorENS4_12basic_stringIcNS4_11char_traitsIcEENS4_9allocatorIcEEEEblmdSF_NS0_14adl_serializerENSB_IhNSF_IhEEEEvEES6_
000000000024847c W _ZN8nlohmann16json_abi_v3_12_0neIPKcTnNSt6__ndk19enable_ifIXsr3std9is_scalarIT_EE5valueEiE4typeELi0EEEbRKNS0_10basic_jsonINS0_11ordered_mapENS4_6vectorENS4_12basic_stringIcNS4_11char_traitsIcEENS4_9allocatorIcEEEEblmdSF_NS0_14adl_serializerENSB_IhNSF_IhEEEEvEES6_
0000000000304ab8 W _ZN8nlohmann16json_abi_v3_12_0neIPKcTnNSt6__ndk19enable_ifIXsr3std9is_scalarIT_EE5valueEiE4typeELi0EEEbRKNS0_10basic_jsonINS4_3mapENS4_6vectorENS4_12basic_stringIcNS4_11char_traitsIcEENS4_9allocatorIcEEEEblmdSF_NS0_14adl_serializerENSB_IhNSF_IhEEEEvEES6_
000000000032ba94 W _ZN8nlohmann16json_abi_v3_12_0neIbTnNSt6__ndk19enable_ifIXsr3std9is_scalarIT_EE5valueEiE4typeELi0EEEbRKNS0_10basic_jsonINS0_11ordered_mapENS2_6vectorENS2_12basic_stringIcNS2_11char_traitsIcEENS2_9allocatorIcEEEEblmdSD_NS0_14adl_serializerENS9_IhNSD_IhEEEEvEES4_
0000000000243644 T _ZNK10autoparser10autoparser12build_parserERKNS_17generation_paramsERKNSt6__ndk112basic_stringIcNS4_11char_traitsIcEENS4_9allocatorIcEEEE
00000000002446bc T _ZNK10autoparser13analyze_tools12build_parserERNS_20parser_build_contextE
000000000024649c T _ZNK10autoparser13analyze_tools17build_func_parserER23common_chat_peg_builderRKNSt6__ndk112basic_stringIcNS3_11char_traitsIcEENS3_9allocatorIcEEEERK17common_peg_parserbSE_NS3_8optionalISC_EE
0000000000245064 T _ZNK10autoparser13analyze_tools26build_tool_parser_tag_jsonERNS_20parser_build_contextE
000000000024593c T _ZNK10autoparser13analyze_tools28build_tool_parser_tag_taggedERNS_20parser_build_contextE
000000000024472c T _ZNK10autoparser13analyze_tools29build_tool_parser_json_nativeERNS_20parser_build_contextE
0000000000244168 T _ZNK10autoparser15analyze_content12build_parserERNS_20parser_build_contextE
000000000025ce14 T _ZNK10autoparser15analyze_content17is_always_wrappedEv
00000000002445dc T _ZNK10autoparser15analyze_content22build_optional_wrappedERNS_20parser_build_contextE
0000000000243b64 T _ZNK10autoparser17analyze_reasoning12build_parserERNS_20parser_build_contextE
00000000001c68b4 T _ZNK10common_arg18get_value_from_envERNSt6__ndk112basic_stringIcNS0_11char_traitsIcEENS0_9allocatorIcEEEE
00000000001c6cc8 T _ZNK10common_arg18has_value_from_envEv
00000000001c86d0 T _ZNK10common_arg7get_envEv
00000000001c81f8 T _ZNK10common_arg8get_argsEv
00000000001c702c T _ZNK10common_arg9to_stringEv
000000000036b704 T _ZNK13common_preset10get_optionERKNSt6__ndk112basic_stringIcNS0_11char_traitsIcEENS0_9allocatorIcEEEERS6_
000000000036b8d0 T _ZNK13common_preset15apply_to_paramsER13common_paramsRKNSt6__ndk13setINS2_12basic_stringIcNS2_11char_traitsIcEENS2_9allocatorIcEEEENS2_4lessIS9_EENS7_IS9_EEEE
000000000036ad0c T _ZNK13common_preset6to_iniEv
000000000036a98c T _ZNK13common_preset7to_argsERKNSt6__ndk112basic_stringIcNS0_11char_traitsIcEENS0_9allocatorIcEEEE
0000000000291ac8 T _ZNK15common_chat_msg14render_contentERKNSt6__ndk112basic_stringIcNS0_11char_traitsIcEENS0_9allocatorIcEEEE
0000000000293294 T _ZNK15common_chat_msg17to_json_oaicompatEb
000000000034b820 W _ZNK15parser_executor12debug_indentEv
000000000034b8c0 W _ZNK15parser_executor19debug_input_snippetEmm
000000000034d5b0 W _ZNK15parser_executorclERK23common_peg_chars_parser
000000000034dc40 W _ZNK15parser_executorclERK23common_peg_until_parser
0000000000339c30 W _ZNK16common_log_entry5printEP7__sFILE
000000000033f84c T _ZNK16common_ngram_mod10size_bytesEv
000000000033f7d8 T _ZNK16common_ngram_mod3getEPKi
000000000033f6f4 T _ZNK16common_ngram_mod3idxEPKi
000000000033f83c T _ZNK16common_ngram_mod4sizeEv
000000000033f82c T _ZNK16common_ngram_mod5get_nEv
000000000033f834 T _ZNK16common_ngram_mod8get_usedEv
0000000000345c88 T _ZNK16common_peg_arena13build_grammarERK22common_grammar_builderb
0000000000340588 T _ZNK16common_peg_arena4dumpEm
0000000000349dc4 T _ZNK16common_peg_arena4saveEv
000000000033ff00 T _ZNK16common_peg_arena5parseER24common_peg_parse_contextm
0000000000340040 T _ZNK16common_peg_arena5parseEmR24common_peg_parse_contextm
0000000000346754 T _ZNK16common_peg_arena7to_jsonEv
000000000033fdec T _ZNK16common_peg_arena8get_ruleERKNSt6__ndk112basic_stringIcNS0_11char_traitsIcEENS0_9allocatorIcEEEE
0000000000340618 T _ZNK16common_peg_arena9dump_implEmRNSt6__ndk13setImNS0_4lessImEENS0_9allocatorImEEEE
0000000000341578 T _ZNK17common_peg_parserlsEPKc
00000000003416d0 T _ZNK17common_peg_parserlsERKNSt6__ndk112basic_stringIcNS0_11char_traitsIcEENS0_9allocatorIcEEEE
00000000003411f0 T _ZNK17common_peg_parserlsERKS_
000000000034173c T _ZNK17common_peg_parserorEPKc
00000000003418d8 T _ZNK17common_peg_parserorERKNSt6__ndk112basic_stringIcNS0_11char_traitsIcEENS0_9allocatorIcEEEE
0000000000341138 T _ZNK17common_peg_parserorERKS_
0000000000341310 T _ZNK17common_peg_parserplEPKc
00000000003414ac T _ZNK17common_peg_parserplERKNSt6__ndk112basic_stringIcNS0_11char_traitsIcEENS0_9allocatorIcEEEE
0000000000341080 T _ZNK17common_peg_parserplERKS_
000000000027f57c T _ZNK17tagged_peg_parser17parse_and_extractERKNSt6__ndk112basic_stringIcNS0_11char_traitsIcEENS0_9allocatorIcEEEE22common_peg_parse_flags
000000000027f868 T _ZNK17tagged_peg_parser26parse_anywhere_and_extractERKNSt6__ndk112basic_stringIcNS0_11char_traitsIcEENS0_9allocatorIcEEEE
0000000000240050 W _ZNK19common_params_model5emptyEv
000000000033f87c T _ZNK20common_peg_ast_arena11find_by_tagERK19common_peg_ast_nodeRKNSt6__ndk112basic_stringIcNS3_11char_traitsIcEENS3_9allocatorIcEEEEi
000000000033fa28 T _ZNK20common_peg_ast_arena12find_by_ruleERK19common_peg_ast_nodeRKNSt6__ndk112basic_stringIcNS3_11char_traitsIcEENS3_9allocatorIcEEEEi
000000000033fc70 T _ZNK20common_peg_ast_arena5visitERK23common_peg_parse_resultRKNSt6__ndk18functionIFvRK19common_peg_ast_nodeEEE
000000000033fbd4 T _ZNK20common_peg_ast_arena5visitEmRKNSt6__ndk18functionIFvRK19common_peg_ast_nodeEEE
000000000036c988 T _ZNK21common_preset_context13load_from_iniERKNSt6__ndk112basic_stringIcNS0_11char_traitsIcEENS0_9allocatorIcEEEER13common_preset
00000000003701c8 T _ZNK21common_preset_context14load_from_argsEiPPc
000000000036ee8c T _ZNK21common_preset_context15load_from_cacheEv
000000000036f304 T _ZNK21common_preset_context20load_from_models_dirERKNSt6__ndk112basic_stringIcNS0_11char_traitsIcEENS0_9allocatorIcEEEE
00000000003707f8 T _ZNK21common_preset_context7cascadeERK13common_presetRKNSt6__ndk13mapINS3_12basic_stringIcNS3_11char_traitsIcEENS3_9allocatorIcEEEES0_NS3_4lessISA_EENS8_INS3_4pairIKSA_S0_EEEEEE
00000000003702b4 T _ZNK21common_preset_context7cascadeERKNSt6__ndk13mapINS0_12basic_stringIcNS0_11char_traitsIcEENS0_9allocatorIcEEEE13common_presetNS0_4lessIS7_EENS5_INS0_4pairIKS7_S8_EEEEEESH_
0000000000375888 T _ZNK22common_params_sampling5printEv
0000000000383334 W _ZNK23common_speculative_impl15need_embd_nextnEv
0000000000383320 W _ZNK23common_speculative_impl9get_stateEiRNSt6__ndk16vectorIhNS0_9allocatorIhEEEE
000000000036f178 W _ZNK24common_cached_model_info9to_stringEv
00000000002f3728 W _ZNK24common_download_callback12is_cancelledEv
00000000002dcde0 T _ZNK24common_prompt_checkpoint4sizeEv
00000000002dce04 T _ZNK24common_prompt_checkpoint5emptyEv
00000000002dd194 T _ZNK24common_prompt_checkpoint8load_dftEP13llama_contextij
00000000002dd124 T _ZNK24common_prompt_checkpoint8load_tgtEP13llama_contextij
0000000000292e5c T _ZNK26common_chat_msg_delimiters5splitERKNSt6__ndk16vectorIiNS0_9allocatorIiEEEERKNS0_3mapImmNS0_4lessImEENS2_INS0_4pairIKmmEEEEEE
0000000000291ec0 T _ZNK26common_chat_msg_delimiters7to_jsonEv
000000000038b458 W _ZNK33common_speculative_impl_draft_mtp15need_embd_nextnEv
000000000038b450 W _ZNK33common_speculative_impl_draft_mtp9need_embdEv
000000000038e3e0 W _ZNK33common_speculative_impl_ngram_mod9need_embdEv
000000000038332c W _ZNK35common_speculative_impl_ngram_cache9need_embdEv
000000000038d820 W _ZNK35common_speculative_impl_ngram_map_k9need_embdEv
000000000038ce28 W _ZNK36common_speculative_impl_draft_dflash9need_embdEv
0000000000389150 W _ZNK36common_speculative_impl_draft_eagle39get_stateEiRNSt6__ndk16vectorIhNS0_9allocatorIhEEEE
00000000003893f0 W _ZNK36common_speculative_impl_draft_eagle39need_embdEv
0000000000386a08 W _ZNK36common_speculative_impl_draft_simple9need_embdEv
000000000038d0b0 W _ZNK36common_speculative_impl_ngram_simple9need_embdEv
00000000003ae370 W _ZNK5jinja10identifier4typeEv
00000000003dd2d4 T _ZNK5jinja11string_part12is_lowercaseEv
00000000003dd284 T _ZNK5jinja11string_part12is_uppercaseEv
00000000003c27a4 W _ZNK5jinja11value_int_t10equivalentERKNS_7value_tE
00000000003c274c W _ZNK5jinja11value_int_t10is_numericEv
00000000003c2754 W _ZNK5jinja11value_int_t11is_hashableEv
00000000003c275c W _ZNK5jinja11value_int_t11unique_hashEv
00000000003b9fc8 T _ZNK5jinja11value_int_t12get_builtinsEv
00000000003c2658 W _ZNK5jinja11value_int_t4typeEv
00000000003c2680 W _ZNK5jinja11value_int_t6as_intEv
00000000003c273c W _ZNK5jinja11value_int_t7as_boolEv
00000000003c2688 W _ZNK5jinja11value_int_t8as_floatEv
00000000003c2808 W _ZNK5jinja11value_int_t8nonequalERKNS_7value_tE
00000000003c2690 W _ZNK5jinja11value_int_t9as_stringEv
00000000003ac0ac W _ZNK5jinja12if_statement4typeEv
00000000003c3178 W _ZNK5jinja12value_bool_t10equivalentERKNS_7value_tE
00000000003c3158 W _ZNK5jinja12value_bool_t10is_numericEv
00000000003c3160 W _ZNK5jinja12value_bool_t11is_hashableEv
00000000003c3168 W _ZNK5jinja12value_bool_t11unique_hashEv
00000000003bb14c T _ZNK5jinja12value_bool_t12get_builtinsEv
00000000003c3028 W _ZNK5jinja12value_bool_t4typeEv
00000000003c3050 W _ZNK5jinja12value_bool_t6as_intEv
00000000003c3148 W _ZNK5jinja12value_bool_t7as_boolEv
00000000003c31dc W _ZNK5jinja12value_bool_t8nonequalERKNS_7value_tE
00000000003c3058 W _ZNK5jinja12value_bool_t9as_stringEv
00000000003b150c W _ZNK5jinja12value_func_t10equivalentERKNS_7value_tE
00000000003b111c W _ZNK5jinja12value_func_t11is_hashableEv
00000000003b1124 W _ZNK5jinja12value_func_t11unique_hashEv
00000000003b0fa4 W _ZNK5jinja12value_func_t4typeEv
00000000003b0fc8 W _ZNK5jinja12value_func_t6invokeERKNS_9func_argsE
00000000003b1198 W _ZNK5jinja12value_func_t7as_reprEv
00000000003c4710 W _ZNK5jinja12value_none_t10equivalentERKNS_7value_tE
00000000003c46c8 W _ZNK5jinja12value_none_t11is_hashableEv
00000000003c46d0 W _ZNK5jinja12value_none_t11unique_hashEv
00000000003becb4 T _ZNK5jinja12value_none_t12get_builtinsEv
00000000003c45ec W _ZNK5jinja12value_none_t4typeEv
00000000003c46b8 W _ZNK5jinja12value_none_t7as_boolEv
00000000003c4704 W _ZNK5jinja12value_none_t7as_reprEv
00000000003c46c0 W _ZNK5jinja12value_none_t7is_noneEv
00000000003c4608 W _ZNK5jinja12value_none_t9as_stringEv
000000000039e908 W _ZNK5jinja13array_literal4typeEv
000000000039e4b8 W _ZNK5jinja13float_literal4typeEv
00000000003ac648 W _ZNK5jinja13for_statement4typeEv
00000000003acd78 W _ZNK5jinja13set_statement4typeEv
000000000039cefc W _ZNK5jinja13tuple_literal4typeEv
000000000039db80 W _ZNK5jinja13value_array_t10equivalentERKNS_7value_tE
000000000039d960 W _ZNK5jinja13value_array_t11is_hashableEv
000000000039d9d4 W _ZNK5jinja13value_array_t11unique_hashEv
00000000003bb65c T _ZNK5jinja13value_array_t12get_builtinsEv
00000000003c324c W _ZNK5jinja13value_array_t12is_immutableEv
00000000003c322c W _ZNK5jinja13value_array_t4typeEv
000000000039d690 W _ZNK5jinja13value_array_t7as_boolEv
000000000039d6a0 W _ZNK5jinja13value_array_t8as_arrayEv
000000000039d284 W _ZNK5jinja13value_array_t9as_stringEv
00000000003c2b00 W _ZNK5jinja13value_float_t10equivalentERKNS_7value_tE
00000000003c2a84 W _ZNK5jinja13value_float_t10is_numericEv
00000000003c2a8c W _ZNK5jinja13value_float_t11is_hashableEv
00000000003c2a94 W _ZNK5jinja13value_float_t11unique_hashEv
00000000003ba650 T _ZNK5jinja13value_float_t12get_builtinsEv
00000000003c290c W _ZNK5jinja13value_float_t4typeEv
00000000003c292c W _ZNK5jinja13value_float_t6as_intEv
00000000003c2a74 W _ZNK5jinja13value_float_t7as_boolEv
00000000003c2934 W _ZNK5jinja13value_float_t8as_floatEv
00000000003c2b64 W _ZNK5jinja13value_float_t8nonequalERKNS_7value_tE
00000000003c293c W _ZNK5jinja13value_float_t9as_stringEv
00000000003b5570 W _ZNK5jinja13value_kwarg_t10equivalentERKNS_7value_tE
00000000003b5350 W _ZNK5jinja13value_kwarg_t11is_hashableEv
00000000003b5358 W _ZNK5jinja13value_kwarg_t11unique_hashEv
00000000003b5330 W _ZNK5jinja13value_kwarg_t4typeEv
00000000003b5564 W _ZNK5jinja13value_kwarg_t7as_reprEv
000000000039d9cc W _ZNK5jinja13value_tuple_t12is_immutableEv
000000000039d264 W _ZNK5jinja13value_tuple_t4typeEv
00000000003b046c W _ZNK5jinja14call_statement4typeEv
000000000039eb20 W _ZNK5jinja14noop_statement4typeEv
00000000003ae4ec W _ZNK5jinja14object_literal4typeEv
000000000039579c W _ZNK5jinja14string_literal4typeEv
00000000003c44cc W _ZNK5jinja14value_object_t10equivalentERKNS_7value_tE
00000000003c41bc W _ZNK5jinja14value_object_t11is_hashableEv
00000000003c4230 W _ZNK5jinja14value_object_t11unique_hashEv
00000000003be740 T _ZNK5jinja14value_object_t12get_builtinsEv
00000000003c4228 W _ZNK5jinja14value_object_t12is_immutableEv
00000000003c36f4 W _ZNK5jinja14value_object_t17as_ordered_objectEv
00000000003c32c8 W _ZNK5jinja14value_object_t4typeEv
00000000003c36e4 W _ZNK5jinja14value_object_t7as_boolEv
00000000003c32ec W _ZNK5jinja14value_object_t9as_stringEv
00000000003c2df0 W _ZNK5jinja14value_string_t10equivalentERKNS_7value_tE
00000000003c2c1c W _ZNK5jinja14value_string_t11is_hashableEv
00000000003c2c24 W _ZNK5jinja14value_string_t11unique_hashEv
00000000003ba8c4 T _ZNK5jinja14value_string_t12get_builtinsEv
00000000003c2bbc W _ZNK5jinja14value_string_t4typeEv
00000000003c2bfc W _ZNK5jinja14value_string_t7as_boolEv
00000000003c2c60 W _ZNK5jinja14value_string_t7as_reprEv
00000000003c2be0 W _ZNK5jinja14value_string_t9as_stringEv
000000000039df9c W _ZNK5jinja15break_statement4typeEv
000000000039e018 W _ZNK5jinja15break_statement6signal4whatEv
00000000003adf24 W _ZNK5jinja15call_expression4typeEv
000000000039e704 W _ZNK5jinja15integer_literal4typeEv
00000000003ad458 W _ZNK5jinja15macro_statement4typeEv
00000000003af530 W _ZNK5jinja15test_expression4typeEv
000000000039bf58 W _ZNK5jinja16blank_expression4typeEv
00000000003af09c W _ZNK5jinja16filter_statement4typeEv
00000000003c49c8 W _ZNK5jinja16raised_exception4whatEv
000000000039b600 W _ZNK5jinja16slice_expression4typeEv
00000000003afa54 W _ZNK5jinja16unary_expression4typeEv
00000000003ae60c W _ZNK5jinja17binary_expression4typeEv
0000000000394c1c W _ZNK5jinja17comment_statement4typeEv
00000000003aeaec W _ZNK5jinja17filter_expression4typeEv
00000000003ad978 W _ZNK5jinja17member_expression4typeEv
000000000039c838 W _ZNK5jinja17select_expression4typeEv
000000000039e138 W _ZNK5jinja17spread_expression4typeEv
00000000003c492c W _ZNK5jinja17value_undefined_t10equivalentERKNS_7value_tE
00000000003c48ec W _ZNK5jinja17value_undefined_t11unique_hashEv
00000000003bf1fc T _ZNK5jinja17value_undefined_t12get_builtinsEv
00000000003c48e4 W _ZNK5jinja17value_undefined_t12is_undefinedEv
00000000003c47d4 W _ZNK5jinja17value_undefined_t4typeEv
00000000003c48dc W _ZNK5jinja17value_undefined_t7as_boolEv
00000000003c4920 W _ZNK5jinja17value_undefined_t7as_reprEv
000000000039e02c W _ZNK5jinja18continue_statement4typeEv
000000000039e0ac W _ZNK5jinja18continue_statement6signal4whatEv
00000000003b0934 W _ZNK5jinja18rethrown_exception4whatEv
000000000039c0f8 W _ZNK5jinja18ternary_expression4typeEv
00000000003afe00 W _ZNK5jinja27keyword_argument_expression4typeEv
00000000003dfa88 T _ZNK5jinja4caps6to_mapEv
00000000003e0338 T _ZNK5jinja4caps9to_stringEv
0000000000398a24 W _ZNK5jinja6parser12is_statementERKNSt6__ndk16vectorINS1_12basic_stringIcNS1_11char_traitsIcEENS1_9allocatorIcEEEENS6_IS8_EEEE
00000000003996d0 W _ZNK5jinja6parser13is_identifierERKNSt6__ndk112basic_stringIcNS1_11char_traitsIcEENS1_9allocatorIcEEEE
00000000003977f4 W _ZNK5jinja6parser2isENS_5token4typeE
0000000000393288 W _ZNK5jinja6parser4peekEm
00000000003dd940 T _ZNK5jinja6string11hash_updateERNS_6hasherE
00000000003ddb0c T _ZNK5jinja6string12is_lowercaseEv
00000000003ddaa8 T _ZNK5jinja6string12is_uppercaseEv
00000000003dda74 T _ZNK5jinja6string19all_parts_are_inputEv
00000000003dd38c T _ZNK5jinja6string3strEv
00000000003dd558 T _ZNK5jinja6string6lengthEv
00000000002d0eb8 W _ZNK5jinja7program4typeEv
00000000002b4e5c W _ZNK5jinja7value_t10is_numericEv
00000000002b4e64 W _ZNK5jinja7value_t11is_hashableEv
00000000002b4da8 W _ZNK5jinja7value_t12get_builtinsEv
00000000002b4e6c W _ZNK5jinja7value_t12is_immutableEv
00000000002b4da0 W _ZNK5jinja7value_t12is_undefinedEv
00000000002b5034 W _ZNK5jinja7value_t16throw_type_errorEPKc
00000000002b4d70 W _ZNK5jinja7value_t17as_ordered_objectEv
00000000002b4c68 W _ZNK5jinja7value_t4typeEv
00000000002b4d0c W _ZNK5jinja7value_t6as_intEv
00000000002b4d84 W _ZNK5jinja7value_t6invokeERKNS_9func_argsE
00000000002b4d48 W _ZNK5jinja7value_t7as_boolEv
00000000002b4e8c W _ZNK5jinja7value_t7as_reprEv
00000000002b4d98 W _ZNK5jinja7value_t7is_noneEv
00000000002b4d5c W _ZNK5jinja7value_t8as_arrayEv
00000000002b4d20 W _ZNK5jinja7value_t8as_floatEv
00000000002b4f70 W _ZNK5jinja7value_t8nonequalERKS0_
00000000002b4d34 W _ZNK5jinja7value_t9as_stringEv
00000000002b4e74 W _ZNK5jinja7value_teqERKS0_
00000000002b4e80 W _ZNK5jinja7value_tneERKS0_
00000000003c63e4 W _ZNK5jinja9func_args10ensure_valINSt6__ndk110shared_ptrINS_11value_int_tEEEEEvRKNS3_INS_7value_tEEE
00000000003d1270 W _ZNK5jinja9func_args10ensure_valINSt6__ndk110shared_ptrINS_12value_bool_tEEEEEvRKNS3_INS_7value_tEEE
00000000003d1970 W _ZNK5jinja9func_args10ensure_valINSt6__ndk110shared_ptrINS_13value_array_tEEEEEvRKNS3_INS_7value_tEEE
00000000003c8d10 W _ZNK5jinja9func_args10ensure_valINSt6__ndk110shared_ptrINS_13value_float_tEEEEEvRKNS3_INS_7value_tEEE
00000000003d8264 W _ZNK5jinja9func_args10ensure_valINSt6__ndk110shared_ptrINS_14value_object_tEEEEEvRKNS3_INS_7value_tEEE
00000000003c4cec W _ZNK5jinja9func_args10ensure_valINSt6__ndk110shared_ptrINS_14value_string_tEEEEEvRKNS3_INS_7value_tEEE
00000000003c4fe8 W _ZNK5jinja9func_args12ensure_countEmm
00000000003b634c T _ZNK5jinja9func_args16get_kwarg_or_posERKNSt6__ndk112basic_stringIcNS1_11char_traitsIcEENS1_9allocatorIcEEEEm
00000000003b6624 T _ZNK5jinja9func_args7get_posEm
00000000003b69ec T _ZNK5jinja9func_args7get_posEmNSt6__ndk110shared_ptrINS_7value_tEEE
00000000003b6d3c T _ZNK5jinja9func_args8get_argsEv
00000000003b623c T _ZNK5jinja9func_args9get_kwargERKNSt6__ndk112basic_stringIcNS1_11char_traitsIcEENS1_9allocatorIcEEEENS1_10shared_ptrINS_7value_tEEE
0000000000394cd0 W _ZNK5jinja9statement16throw_exec_errorEv
00000000002dc950 T _ZNK6lr_opt6get_lrEf
000000000042e2fc T _ZNK7httplib10ClientImpl10output_logERKNS_7RequestERKNS_8ResponseE
000000000043d560 T _ZNK7httplib10ClientImpl14is_socket_openEv
0000000000421054 T _ZNK7httplib10ClientImpl15shutdown_socketERNS0_6SocketE
0000000000422ab0 T _ZNK7httplib10ClientImpl16output_error_logERKNS_5ErrorEPKNS_7RequestE
0000000000421a08 T _ZNK7httplib10ClientImpl18read_response_lineERNS_6StreamERKNS_7RequestERNS_8ResponseEb
00000000004216a4 T _ZNK7httplib10ClientImpl20create_client_socketERNS_5ErrorE
00000000004214a8 T _ZNK7httplib10ClientImpl25is_proxy_enabled_for_hostERKNSt6__ndk112basic_stringIcNS1_11char_traitsIcEENS1_9allocatorIcEEEE
000000000042ab64 T _ZNK7httplib10ClientImpl27write_content_with_providerERNS_6StreamERKNS_7RequestERNS_5ErrorE
000000000042e558 T _ZNK7httplib10ClientImpl30get_multipart_content_providerERKNSt6__ndk112basic_stringIcNS1_11char_traitsIcEENS1_9allocatorIcEEEERKNS1_6vectorINS_14UploadFormDataENS5_ISB_EEEERKNSA_INS_16FormDataProviderENS5_ISG_EEEE
000000000043d52c T _ZNK7httplib10ClientImpl4hostEv
000000000043d558 T _ZNK7httplib10ClientImpl4portEv
000000000042e754 T _ZNK7httplib10ClientImpl6is_sslEv
000000000043d59c T _ZNK7httplib10ClientImpl6socketEv
0000000000421164 T _ZNK7httplib10ClientImpl8is_validEv
0000000000409cb4 T _ZNK7httplib17MultipartFormData10get_fieldsERKNSt6__ndk112basic_stringIcNS1_11char_traitsIcEENS1_9allocatorIcEEEE
000000000040a104 T _ZNK7httplib17MultipartFormData14get_file_countERKNSt6__ndk112basic_stringIcNS1_11char_traitsIcEENS1_9allocatorIcEEEE
0000000000409e0c T _ZNK7httplib17MultipartFormData15get_field_countERKNSt6__ndk112basic_stringIcNS1_11char_traitsIcEENS1_9allocatorIcEEEE
0000000000409e80 T _ZNK7httplib17MultipartFormData8get_fileERKNSt6__ndk112basic_stringIcNS1_11char_traitsIcEENS1_9allocatorIcEEEEm
000000000040a0d4 T _ZNK7httplib17MultipartFormData8has_fileERKNSt6__ndk112basic_stringIcNS1_11char_traitsIcEENS1_9allocatorIcEEEE
0000000000409bc0 T _ZNK7httplib17MultipartFormData9get_fieldERKNSt6__ndk112basic_stringIcNS1_11char_traitsIcEENS1_9allocatorIcEEEEm
0000000000409f68 T _ZNK7httplib17MultipartFormData9get_filesERKNSt6__ndk112basic_stringIcNS1_11char_traitsIcEENS1_9allocatorIcEEEE
0000000000409de0 T _ZNK7httplib17MultipartFormData9has_fieldERKNSt6__ndk112basic_stringIcNS1_11char_traitsIcEENS1_9allocatorIcEEEE
000000000040a320 T _ZNK7httplib23MultipartFormDataWriter10item_beginERKNS_14UploadFormDataE
000000000040a2ec T _ZNK7httplib23MultipartFormDataWriter12content_typeEv
000000000040a310 T _ZNK7httplib23MultipartFormDataWriter14content_lengthERKNSt6__ndk16vectorINS_14UploadFormDataENS1_9allocatorIS3_EEEE
000000000040a3d8 T _ZNK7httplib23MultipartFormDataWriter6finishEv
000000000040a2e8 T _ZNK7httplib23MultipartFormDataWriter8boundaryEv
000000000040a2fc T _ZNK7httplib23MultipartFormDataWriter9serializeERKNSt6__ndk16vectorINS_14UploadFormDataENS1_9allocatorIS3_EEEE
000000000044ea1c T _ZNK7httplib2ws15WebSocketClient11subprotocolEv
000000000044ea00 T _ZNK7httplib2ws15WebSocketClient7is_openEv
000000000044e128 T _ZNK7httplib2ws15WebSocketClient8is_validEv
000000000044d6ac T _ZNK7httplib2ws9WebSocket7is_openEv
000000000044d6a4 T _ZNK7httplib2ws9WebSocket7requestEv
00000000003ee518 T _ZNK7httplib3sse9SSEClient12is_connectedEv
00000000003ee528 T _ZNK7httplib3sse9SSEClient13last_event_idEv
00000000003ef8ec T _ZNK7httplib3sse9SSEClient16should_reconnectEi
000000000044b830 T _ZNK7httplib3tls13VerifyContext10subject_cnEv
000000000044b848 T _ZNK7httplib3tls13VerifyContext11issuer_nameEv
000000000044b860 T _ZNK7httplib3tls13VerifyContext14check_hostnameEPKc
000000000044b870 T _ZNK7httplib3tls13VerifyContext4sansEv
000000000044b8c8 T _ZNK7httplib3tls13VerifyContext6serialEv
000000000044b8b8 T _ZNK7httplib3tls13VerifyContext8validityERlS2_
000000000044a93c T _ZNK7httplib3tls8PeerCert10subject_cnEv
000000000044aca4 T _ZNK7httplib3tls8PeerCert11issuer_nameEv
000000000044ae24 T _ZNK7httplib3tls8PeerCert14check_hostnameEPKc
000000000044ae34 T _ZNK7httplib3tls8PeerCert4sansEv
000000000044b51c T _ZNK7httplib3tls8PeerCert6serialEv
000000000044b35c T _ZNK7httplib3tls8PeerCert8validityERlS2_
000000000044a92c T _ZNK7httplib3tls8PeerCertcvbEv
000000000044a3e8 T _ZNK7httplib6Client11tls_contextEv
000000000044656c T _ZNK7httplib6Client14is_socket_openEv
0000000000446530 T _ZNK7httplib6Client4hostEv
0000000000446560 T _ZNK7httplib6Client4portEv
00000000004465a8 T _ZNK7httplib6Client6socketEv
000000000043e9c0 T _ZNK7httplib6Client8is_validEv
000000000040b9c0 T _ZNK7httplib6Result18has_request_headerERKNSt6__ndk112basic_stringIcNS1_11char_traitsIcEENS1_9allocatorIcEEEE
000000000040b9e0 T _ZNK7httplib6Result24get_request_header_valueERKNSt6__ndk112basic_stringIcNS1_11char_traitsIcEENS1_9allocatorIcEEEEPKcm
000000000040b914 T _ZNK7httplib6Result28get_request_header_value_u64ERKNSt6__ndk112basic_stringIcNS1_11char_traitsIcEENS1_9allocatorIcEEEEmm
000000000040ba88 T _ZNK7httplib6Result30get_request_header_value_countERKNSt6__ndk112basic_stringIcNS1_11char_traitsIcEENS1_9allocatorIcEEEE
00000000004149d8 T _ZNK7httplib6Server10is_runningEv
0000000000417808 T _ZNK7httplib6Server10output_logERKNS_7RequestERKNS_8ResponseE
0000000000416794 T _ZNK7httplib6Server12apply_rangesERKNS_7RequestERNS_8ResponseERNSt6__ndk112basic_stringIcNS6_11char_traitsIcEENS6_9allocatorIcEEEESD_
000000000041bc1c T _ZNK7httplib6Server14check_if_rangeERNS_7RequestERKNSt6__ndk112basic_stringIcNS3_11char_traitsIcEENS3_9allocatorIcEEEEl
0000000000415370 T _ZNK7httplib6Server16output_error_logERKNS_5ErrorEPKNS_7RequestE
00000000004149e8 T _ZNK7httplib6Server16wait_until_readyEv
0000000000419158 T _ZNK7httplib6Server17read_content_coreERNS_6StreamERNS_7RequestERNS_8ResponseENSt6__ndk18functionIFbPKcmEEENS8_IFbRKNS_8FormDataEEEESC_
0000000000414ad4 T _ZNK7httplib6Server18parse_request_lineEPKcRNS_7RequestE
000000000041c1b0 T _ZNK7httplib6Server20create_server_socketERKNSt6__ndk112basic_stringIcNS1_11char_traitsIcEENS1_9allocatorIcEEEEiiNS1_8functionIFviEEE
000000000041b4a0 T _ZNK7httplib6Server21check_if_not_modifiedERKNS_7RequestERNS_8ResponseERKNSt6__ndk112basic_stringIcNS6_11char_traitsIcEENS6_9allocatorIcEEEEl
000000000041d6f8 T _ZNK7httplib6Server26output_pre_compression_logERKNS_7RequestERKNS_8ResponseE
000000000041d3c8 T _ZNK7httplib6Server35dispatch_request_for_content_readerERNS_7RequestERNS_8ResponseENS_13ContentReaderERKNSt6__ndk16vectorINS6_4pairINS6_10unique_ptrINS_6detail11MatcherBaseENS6_14default_deleteISB_EEEENS6_8functionIFvRKS1_S4_RKS5_EEEEENS6_9allocatorISM_EEEE
00000000004203a4 T _ZNK7httplib6Server8is_validEv
000000000044ef40 W _ZNK7httplib6Stream13is_peer_aliveEv
000000000040dc1c T _ZNK7httplib6detail12BufferStream10get_bufferEv
000000000040db90 T _ZNK7httplib6detail12BufferStream11is_readableEv
000000000040db98 T _ZNK7httplib6detail12BufferStream13wait_readableEv
000000000040dba0 T _ZNK7httplib6detail12BufferStream13wait_writableEv
000000000040dc08 T _ZNK7httplib6detail12BufferStream21get_local_ip_and_portERNSt6__ndk112basic_stringIcNS2_11char_traitsIcEENS2_9allocatorIcEEEERi
000000000040dc04 T _ZNK7httplib6detail12BufferStream22get_remote_ip_and_portERNSt6__ndk112basic_stringIcNS2_11char_traitsIcEENS2_9allocatorIcEEEERi
000000000040dc0c T _ZNK7httplib6detail12BufferStream6socketEv
000000000040dc14 T _ZNK7httplib6detail12BufferStream8durationEv
000000000040e824 T _ZNK7httplib6detail12RegexMatcher5matchERNS_7RequestE
000000000040d404 T _ZNK7httplib6detail12SocketStream11is_readableEv
000000000040d718 T _ZNK7httplib6detail12SocketStream13is_peer_aliveEv
000000000040d414 T _ZNK7httplib6detail12SocketStream13wait_readableEv
000000000040d62c T _ZNK7httplib6detail12SocketStream13wait_writableEv
000000000040daa4 T _ZNK7httplib6detail12SocketStream21get_local_ip_and_portERNSt6__ndk112basic_stringIcNS2_11char_traitsIcEENS2_9allocatorIcEEEERi
000000000040da9c T _ZNK7httplib6detail12SocketStream22get_remote_ip_and_portERNSt6__ndk112basic_stringIcNS2_11char_traitsIcEENS2_9allocatorIcEEEERi
000000000040db80 T _ZNK7httplib6detail12SocketStream6socketEv
000000000040d5e8 T _ZNK7httplib6detail12SocketStream8durationEv
0000000000460500 W _ZNK7httplib6detail14FormDataParser25parse_content_dispositionERKNSt6__ndk112basic_stringIcNS2_11char_traitsIcEENS2_9allocatorIcEEEERS8_
000000000040fb5c T _ZNK7httplib6detail15SSLSocketStream11is_readableEv
0000000000410018 T _ZNK7httplib6detail15SSLSocketStream13is_peer_aliveEv
000000000040fb8c T _ZNK7httplib6detail15SSLSocketStream13wait_readableEv
000000000040fda8 T _ZNK7httplib6detail15SSLSocketStream13wait_writableEv
0000000000410654 T _ZNK7httplib6detail15SSLSocketStream21get_local_ip_and_portERNSt6__ndk112basic_stringIcNS2_11char_traitsIcEENS2_9allocatorIcEEEERi
000000000041064c T _ZNK7httplib6detail15SSLSocketStream22get_remote_ip_and_portERNSt6__ndk112basic_stringIcNS2_11char_traitsIcEENS2_9allocatorIcEEEERi
0000000000410730 T _ZNK7httplib6detail15SSLSocketStream6socketEv
000000000040fd64 T _ZNK7httplib6detail15SSLSocketStream8durationEv
000000000040e39c T _ZNK7httplib6detail17PathParamsMatcher5matchERNS_7RequestE
00000000003f53dc T _ZNK7httplib6detail18stream_line_reader13end_with_crlfEv
00000000003f4598 T _ZNK7httplib6detail18stream_line_reader3ptrEv
00000000003f45c4 T _ZNK7httplib6detail18stream_line_reader4sizeEv
00000000003f5714 T _ZNK7httplib6detail4mmap4dataEv
00000000003f570c T _ZNK7httplib6detail4mmap4sizeEv
00000000003f56f0 T _ZNK7httplib6detail4mmap7is_openEv
00000000003f0260 T _ZNK7httplib6detail8FileStat4sizeEv
00000000003f024c T _ZNK7httplib6detail8FileStat5mtimeEv
00000000003f2a70 T _ZNK7httplib6detail8FileStat6is_dirEv
00000000003f022c T _ZNK7httplib6detail8FileStat7is_fileEv
00000000003eda7c T _ZNK7httplib6stream6Result10has_headerERKNSt6__ndk112basic_stringIcNS2_11char_traitsIcEENS2_9allocatorIcEEEE
00000000003edad4 T _ZNK7httplib6stream6Result10read_errorEv
00000000003edadc T _ZNK7httplib6stream6Result14has_read_errorEv
00000000003ed8a0 T _ZNK7httplib6stream6Result16get_header_valueERKNSt6__ndk112basic_stringIcNS2_11char_traitsIcEENS2_9allocatorIcEEEEPKc
00000000003edcc0 T _ZNK7httplib6stream6Result4dataEv
00000000003edcd8 T _ZNK7httplib6stream6Result4sizeEv
00000000003edacc T _ZNK7httplib6stream6Result5errorEv
00000000003ed7e8 T _ZNK7httplib6stream6Result6statusEv
00000000003ed800 T _ZNK7httplib6stream6Result7headersEv
00000000003ed7b8 T _ZNK7httplib6stream6Result8is_validEv
00000000003ed7d0 T _ZNK7httplib6stream6ResultcvbEv
0000000000405bac T _ZNK7httplib7Request10has_headerERKNSt6__ndk112basic_stringIcNS1_11char_traitsIcEENS1_9allocatorIcEEEE
00000000004094b0 T _ZNK7httplib7Request11has_trailerERKNSt6__ndk112basic_stringIcNS1_11char_traitsIcEENS1_9allocatorIcEEEE
00000000004095d8 T _ZNK7httplib7Request15get_param_valueERKNSt6__ndk112basic_stringIcNS1_11char_traitsIcEENS1_9allocatorIcEEEEm
00000000003f1f28 T _ZNK7httplib7Request16get_header_valueERKNSt6__ndk112basic_stringIcNS1_11char_traitsIcEENS1_9allocatorIcEEEEPKcm
00000000004096d0 T _ZNK7httplib7Request16get_param_valuesERKNSt6__ndk112basic_stringIcNS1_11char_traitsIcEENS1_9allocatorIcEEEE
00000000004094d0 T _ZNK7httplib7Request17get_trailer_valueERKNSt6__ndk112basic_stringIcNS1_11char_traitsIcEENS1_9allocatorIcEEEEm
00000000003ff220 T _ZNK7httplib7Request20get_header_value_u64ERKNSt6__ndk112basic_stringIcNS1_11char_traitsIcEENS1_9allocatorIcEEEEmm
000000000040988c T _ZNK7httplib7Request21get_param_value_countERKNSt6__ndk112basic_stringIcNS1_11char_traitsIcEENS1_9allocatorIcEEEE
0000000000409380 T _ZNK7httplib7Request22get_header_value_countERKNSt6__ndk112basic_stringIcNS1_11char_traitsIcEENS1_9allocatorIcEEEE
0000000000409904 T _ZNK7httplib7Request22is_multipart_form_dataEv
0000000000409560 T _ZNK7httplib7Request23get_trailer_value_countERKNSt6__ndk112basic_stringIcNS1_11char_traitsIcEENS1_9allocatorIcEEEE
000000000044ba60 T _ZNK7httplib7Request3sniEv
00000000004095a8 T _ZNK7httplib7Request9has_paramERKNSt6__ndk112basic_stringIcNS1_11char_traitsIcEENS1_9allocatorIcEEEE
000000000044ba1c T _ZNK7httplib7Request9peer_certEv
00000000003edaac T _ZNK7httplib8Response10has_headerERKNSt6__ndk112basic_stringIcNS1_11char_traitsIcEENS1_9allocatorIcEEEE
000000000040a680 T _ZNK7httplib8Response11has_trailerERKNSt6__ndk112basic_stringIcNS1_11char_traitsIcEENS1_9allocatorIcEEEE
00000000003ed9d4 T _ZNK7httplib8Response16get_header_valueERKNSt6__ndk112basic_stringIcNS1_11char_traitsIcEENS1_9allocatorIcEEEEPKcm
000000000040a6a0 T _ZNK7httplib8Response17get_trailer_valueERKNSt6__ndk112basic_stringIcNS1_11char_traitsIcEENS1_9allocatorIcEEEEm
000000000040a4a4 T _ZNK7httplib8Response20get_header_value_u64ERKNSt6__ndk112basic_stringIcNS1_11char_traitsIcEENS1_9allocatorIcEEEEmm
000000000040a550 T _ZNK7httplib8Response22get_header_value_countERKNSt6__ndk112basic_stringIcNS1_11char_traitsIcEENS1_9allocatorIcEEEE
000000000040a730 T _ZNK7httplib8Response23get_trailer_value_countERKNSt6__ndk112basic_stringIcNS1_11char_traitsIcEENS1_9allocatorIcEEEE
0000000000448358 T _ZNK7httplib9SSLClient6is_sslEv
00000000004480ec T _ZNK7httplib9SSLClient8is_validEv
0000000000447448 T _ZNK7httplib9SSLServer8is_validEv
0000000000299db0 W _ZNK8nlohmann16json_abi_v3_12_010basic_jsonINS0_11ordered_mapENSt6__ndk16vectorENS3_12basic_stringIcNS3_11char_traitsIcEENS3_9allocatorIcEEEEblmdS8_NS0_14adl_serializerENS4_IhNS8_IhEEEEvE2atIRA10_KcTnNS3_9enable_ifIXsr6detail32is_usable_as_basic_json_key_typeISE_T_EE5valueEiE4typeELi0EEERKSE_OSK_
000000000024a764 W _ZNK8nlohmann16json_abi_v3_12_010basic_jsonINS0_11ordered_mapENSt6__ndk16vectorENS3_12basic_stringIcNS3_11char_traitsIcEENS3_9allocatorIcEEEEblmdS8_NS0_14adl_serializerENS4_IhNS8_IhEEEEvE2atIRA11_KcTnNS3_9enable_ifIXsr6detail32is_usable_as_basic_json_key_typeISE_T_EE5valueEiE4typeELi0EEERKSE_OSK_
000000000029a500 W _ZNK8nlohmann16json_abi_v3_12_010basic_jsonINS0_11ordered_mapENSt6__ndk16vectorENS3_12basic_stringIcNS3_11char_traitsIcEENS3_9allocatorIcEEEEblmdS8_NS0_14adl_serializerENS4_IhNS8_IhEEEEvE2atIRA13_KcTnNS3_9enable_ifIXsr6detail32is_usable_as_basic_json_key_typeISE_T_EE5valueEiE4typeELi0EEERKSE_OSK_
000000000029a290 W _ZNK8nlohmann16json_abi_v3_12_010basic_jsonINS0_11ordered_mapENSt6__ndk16vectorENS3_12basic_stringIcNS3_11char_traitsIcEENS3_9allocatorIcEEEEblmdS8_NS0_14adl_serializerENS4_IhNS8_IhEEEEvE2atIRA18_KcTnNS3_9enable_ifIXsr6detail32is_usable_as_basic_json_key_typeISE_T_EE5valueEiE4typeELi0EEERKSE_OSK_
000000000029a020 W _ZNK8nlohmann16json_abi_v3_12_010basic_jsonINS0_11ordered_mapENSt6__ndk16vectorENS3_12basic_stringIcNS3_11char_traitsIcEENS3_9allocatorIcEEEEblmdS8_NS0_14adl_serializerENS4_IhNS8_IhEEEEvE2atIRA3_KcTnNS3_9enable_ifIXsr6detail32is_usable_as_basic_json_key_typeISE_T_EE5valueEiE4typeELi0EEERKSE_OSK_
00000000002485b0 W _ZNK8nlohmann16json_abi_v3_12_010basic_jsonINS0_11ordered_mapENSt6__ndk16vectorENS3_12basic_stringIcNS3_11char_traitsIcEENS3_9allocatorIcEEEEblmdS8_NS0_14adl_serializerENS4_IhNS8_IhEEEEvE2atIRA5_KcTnNS3_9enable_ifIXsr6detail32is_usable_as_basic_json_key_typeISE_T_EE5valueEiE4typeELi0EEERKSE_OSK_
0000000000299aec W _ZNK8nlohmann16json_abi_v3_12_010basic_jsonINS0_11ordered_mapENSt6__ndk16vectorENS3_12basic_stringIcNS3_11char_traitsIcEENS3_9allocatorIcEEEEblmdS8_NS0_14adl_serializerENS4_IhNS8_IhEEEEvE2atIRA8_KcTnNS3_9enable_ifIXsr6detail32is_usable_as_basic_json_key_typeISE_T_EE5valueEiE4typeELi0EEERKSE_OSK_
000000000024a4f4 W _ZNK8nlohmann16json_abi_v3_12_010basic_jsonINS0_11ordered_mapENSt6__ndk16vectorENS3_12basic_stringIcNS3_11char_traitsIcEENS3_9allocatorIcEEEEblmdS8_NS0_14adl_serializerENS4_IhNS8_IhEEEEvE2atIRA9_KcTnNS3_9enable_ifIXsr6detail32is_usable_as_basic_json_key_typeISE_T_EE5valueEiE4typeELi0EEERKSE_OSK_
0000000000323c9c W _ZNK8nlohmann16json_abi_v3_12_010basic_jsonINS0_11ordered_mapENSt6__ndk16vectorENS3_12basic_stringIcNS3_11char_traitsIcEENS3_9allocatorIcEEEEblmdS8_NS0_14adl_serializerENS4_IhNS8_IhEEEEvE3getISA_SA_EEDTcldtclL_ZNS3_7declvalB8ne210000IRKSE_EEDTclsr3stdE9__declvalIT_ELi0EEEvEE8get_implIT0_EtlNS0_6detail12priority_tagILj4EEEEEEv
0000000000237c54 W _ZNK8nlohmann16json_abi_v3_12_010basic_jsonINS0_11ordered_mapENSt6__ndk16vectorENS3_12basic_stringIcNS3_11char_traitsIcEENS3_9allocatorIcEEEEblmdS8_NS0_14adl_serializerENS4_IhNS8_IhEEEEvE4dumpEicbNS0_6detail15error_handler_tE
00000000002cf32c W _ZNK8nlohmann16json_abi_v3_12_010basic_jsonINS0_11ordered_mapENSt6__ndk16vectorENS3_12basic_stringIcNS3_11char_traitsIcEENS3_9allocatorIcEEEEblmdS8_NS0_14adl_serializerENS4_IhNS8_IhEEEEvE4findIRA10_KcTnNS3_9enable_ifIXsr6detail32is_usable_as_basic_json_key_typeISE_T_EE5valueEiE4typeELi0EEENS0_6detail9iter_implIKSE_EEOSK_
00000000002d0410 W _ZNK8nlohmann16json_abi_v3_12_010basic_jsonINS0_11ordered_mapENSt6__ndk16vectorENS3_12basic_stringIcNS3_11char_traitsIcEENS3_9allocatorIcEEEEblmdS8_NS0_14adl_serializerENS4_IhNS8_IhEEEEvE4findIRA11_KcTnNS3_9enable_ifIXsr6detail32is_usable_as_basic_json_key_typeISE_T_EE5valueEiE4typeELi0EEENS0_6detail9iter_implIKSE_EEOSK_
00000000002d0300 W _ZNK8nlohmann16json_abi_v3_12_010basic_jsonINS0_11ordered_mapENSt6__ndk16vectorENS3_12basic_stringIcNS3_11char_traitsIcEENS3_9allocatorIcEEEEblmdS8_NS0_14adl_serializerENS4_IhNS8_IhEEEEvE4findIRA12_KcTnNS3_9enable_ifIXsr6detail32is_usable_as_basic_json_key_typeISE_T_EE5valueEiE4typeELi0EEENS0_6detail9iter_implIKSE_EEOSK_
00000000002c50fc W _ZNK8nlohmann16json_abi_v3_12_010basic_jsonINS0_11ordered_mapENSt6__ndk16vectorENS3_12basic_stringIcNS3_11char_traitsIcEENS3_9allocatorIcEEEEblmdS8_NS0_14adl_serializerENS4_IhNS8_IhEEEEvE4findIRA13_KcTnNS3_9enable_ifIXsr6detail32is_usable_as_basic_json_key_typeISE_T_EE5valueEiE4typeELi0EEENS0_6detail9iter_implIKSE_EEOSK_
00000000002b65fc W _ZNK8nlohmann16json_abi_v3_12_010basic_jsonINS0_11ordered_mapENSt6__ndk16vectorENS3_12basic_stringIcNS3_11char_traitsIcEENS3_9allocatorIcEEEEblmdS8_NS0_14adl_serializerENS4_IhNS8_IhEEEEvE4findIRA5_KcTnNS3_9enable_ifIXsr6detail32is_usable_as_basic_json_key_typeISE_T_EE5valueEiE4typeELi0EEENS0_6detail9iter_implIKSE_EEOSK_
000000000032ffa0 W _ZNK8nlohmann16json_abi_v3_12_010basic_jsonINS0_11ordered_mapENSt6__ndk16vectorENS3_12basic_stringIcNS3_11char_traitsIcEENS3_9allocatorIcEEEEblmdS8_NS0_14adl_serializerENS4_IhNS8_IhEEEEvE5emptyEv
000000000029bfbc W _ZNK8nlohmann16json_abi_v3_12_010basic_jsonINS0_11ordered_mapENSt6__ndk16vectorENS3_12basic_stringIcNS3_11char_traitsIcEENS3_9allocatorIcEEEEblmdS8_NS0_14adl_serializerENS4_IhNS8_IhEEEEvE5valueIRA1_KcRA12_SG_SA_TnNS3_9enable_ifIXaaaaaaaaL_ZNS3_17integral_constantIbLb1EE5valueEEntsr6detail15is_json_pointerIT0_EE5valuesr29is_comparable_with_object_keyISO_EE5valuesr6detail10is_getableISE_T1_EE5valuentsr3std7is_sameINS0_6detail7value_tENS3_9remove_cvINS3_16remove_referenceIT_E4typeEE4typeEEE5valueEiE4typeELi0EEESP_OSO_OSU_
00000000002c4e9c W _ZNK8nlohmann16json_abi_v3_12_010basic_jsonINS0_11ordered_mapENSt6__ndk16vectorENS3_12basic_stringIcNS3_11char_traitsIcEENS3_9allocatorIcEEEEblmdS8_NS0_14adl_serializerENS4_IhNS8_IhEEEEvE5valueIRA1_KcRA13_SG_SA_TnNS3_9enable_ifIXaaaaaaaaL_ZNS3_17integral_constantIbLb1EE5valueEEntsr6detail15is_json_pointerIT0_EE5valuesr29is_comparable_with_object_keyISO_EE5valuesr6detail10is_getableISE_T1_EE5valuentsr3std7is_sameINS0_6detail7value_tENS3_9remove_cvINS3_16remove_referenceIT_E4typeEE4typeEEE5valueEiE4typeELi0EEESP_OSO_OSU_
00000000002b60bc W _ZNK8nlohmann16json_abi_v3_12_010basic_jsonINS0_11ordered_mapENSt6__ndk16vectorENS3_12basic_stringIcNS3_11char_traitsIcEENS3_9allocatorIcEEEEblmdS8_NS0_14adl_serializerENS4_IhNS8_IhEEEEvE5valueIRA1_KcRA5_SG_SA_TnNS3_9enable_ifIXaaaaaaaaL_ZNS3_17integral_constantIbLb1EE5valueEEntsr6detail15is_json_pointerIT0_EE5valuesr29is_comparable_with_object_keyISO_EE5valuesr6detail10is_getableISE_T1_EE5valuentsr3std7is_sameINS0_6detail7value_tENS3_9remove_cvINS3_16remove_referenceIT_E4typeEE4typeEEE5valueEiE4typeELi0EEESP_OSO_OSU_
0000000000292ac8 W _ZNK8nlohmann16json_abi_v3_12_010basic_jsonINS0_11ordered_mapENSt6__ndk16vectorENS3_12basic_stringIcNS3_11char_traitsIcEENS3_9allocatorIcEEEEblmdS8_NS0_14adl_serializerENS4_IhNS8_IhEEEEvE5valueISA_RA10_KcSA_TnNS3_9enable_ifIXaaaaaaaaL_ZNS3_17integral_constantIbLb1EE5valueEEntsr6detail15is_json_pointerIT0_EE5valuesr29is_comparable_with_object_keyISM_EE5valuesr6detail10is_getableISE_T1_EE5valuentsr3std7is_sameINS0_6detail7value_tENS3_9remove_cvINS3_16remove_referenceIT_E4typeEE4typeEEE5valueEiE4typeELi0EEESN_OSM_OSS_
00000000002928d4 W _ZNK8nlohmann16json_abi_v3_12_010basic_jsonINS0_11ordered_mapENSt6__ndk16vectorENS3_12basic_stringIcNS3_11char_traitsIcEENS3_9allocatorIcEEEEblmdS8_NS0_14adl_serializerENS4_IhNS8_IhEEEEvE5valueISA_RA5_KcSA_TnNS3_9enable_ifIXaaaaaaaaL_ZNS3_17integral_constantIbLb1EE5valueEEntsr6detail15is_json_pointerIT0_EE5valuesr29is_comparable_with_object_keyISM_EE5valuesr6detail10is_getableISE_T1_EE5valuentsr3std7is_sameINS0_6detail7value_tENS3_9remove_cvINS3_16remove_referenceIT_E4typeEE4typeEEE5valueEiE4typeELi0EEESN_OSM_OSS_
000000000029c21c W _ZNK8nlohmann16json_abi_v3_12_010basic_jsonINS0_11ordered_mapENSt6__ndk16vectorENS3_12basic_stringIcNS3_11char_traitsIcEENS3_9allocatorIcEEEEblmdS8_NS0_14adl_serializerENS4_IhNS8_IhEEEEvE5valueISE_RA11_KcSE_TnNS3_9enable_ifIXaaaaaaaaL_ZNS3_17integral_constantIbLb1EE5valueEEntsr6detail15is_json_pointerIT0_EE5valuesr29is_comparable_with_object_keyISM_EE5valuesr6detail10is_getableISE_T1_EE5valuentsr3std7is_sameINS0_6detail7value_tENS3_9remove_cvINS3_16remove_referenceIT_E4typeEE4typeEEE5valueEiE4typeELi0EEESN_OSM_OSS_
0000000000326d5c W _ZNK8nlohmann16json_abi_v3_12_010basic_jsonINS0_11ordered_mapENSt6__ndk16vectorENS3_12basic_stringIcNS3_11char_traitsIcEENS3_9allocatorIcEEEEblmdS8_NS0_14adl_serializerENS4_IhNS8_IhEEEEvE8containsIRA10_KcTnNS3_9enable_ifIXsr6detail32is_usable_as_basic_json_key_typeISE_T_EE5valueEiE4typeELi0EEEbOSK_
000000000032b904 W _ZNK8nlohmann16json_abi_v3_12_010basic_jsonINS0_11ordered_mapENSt6__ndk16vectorENS3_12basic_stringIcNS3_11char_traitsIcEENS3_9allocatorIcEEEEblmdS8_NS0_14adl_serializerENS4_IhNS8_IhEEEEvE8containsIRA11_KcTnNS3_9enable_ifIXsr6detail32is_usable_as_basic_json_key_typeISE_T_EE5valueEiE4typeELi0EEEbOSK_
000000000032dca4 W _ZNK8nlohmann16json_abi_v3_12_010basic_jsonINS0_11ordered_mapENSt6__ndk16vectorENS3_12basic_stringIcNS3_11char_traitsIcEENS3_9allocatorIcEEEEblmdS8_NS0_14adl_serializerENS4_IhNS8_IhEEEEvE8containsIRA12_KcTnNS3_9enable_ifIXsr6detail32is_usable_as_basic_json_key_typeISE_T_EE5valueEiE4typeELi0EEEbOSK_
000000000032f304 W _ZNK8nlohmann16json_abi_v3_12_010basic_jsonINS0_11ordered_mapENSt6__ndk16vectorENS3_12basic_stringIcNS3_11char_traitsIcEENS3_9allocatorIcEEEEblmdS8_NS0_14adl_serializerENS4_IhNS8_IhEEEEvE8containsIRA17_KcTnNS3_9enable_ifIXsr6detail32is_usable_as_basic_json_key_typeISE_T_EE5valueEiE4typeELi0EEEbOSK_
000000000032b9cc W _ZNK8nlohmann16json_abi_v3_12_010basic_jsonINS0_11ordered_mapENSt6__ndk16vectorENS3_12basic_stringIcNS3_11char_traitsIcEENS3_9allocatorIcEEEEblmdS8_NS0_14adl_serializerENS4_IhNS8_IhEEEEvE8containsIRA21_KcTnNS3_9enable_ifIXsr6detail32is_usable_as_basic_json_key_typeISE_T_EE5valueEiE4typeELi0EEEbOSK_
0000000000326bcc W _ZNK8nlohmann16json_abi_v3_12_010basic_jsonINS0_11ordered_mapENSt6__ndk16vectorENS3_12basic_stringIcNS3_11char_traitsIcEENS3_9allocatorIcEEEEblmdS8_NS0_14adl_serializerENS4_IhNS8_IhEEEEvE8containsIRA6_KcTnNS3_9enable_ifIXsr6detail32is_usable_as_basic_json_key_typeISE_T_EE5valueEiE4typeELi0EEEbOSK_
0000000000326c94 W _ZNK8nlohmann16json_abi_v3_12_010basic_jsonINS0_11ordered_mapENSt6__ndk16vectorENS3_12basic_stringIcNS3_11char_traitsIcEENS3_9allocatorIcEEEEblmdS8_NS0_14adl_serializerENS4_IhNS8_IhEEEEvE8containsIRA8_KcTnNS3_9enable_ifIXsr6detail32is_usable_as_basic_json_key_typeISE_T_EE5valueEiE4typeELi0EEEbOSK_
000000000032bb24 W _ZNK8nlohmann16json_abi_v3_12_010basic_jsonINS0_11ordered_mapENSt6__ndk16vectorENS3_12basic_stringIcNS3_11char_traitsIcEENS3_9allocatorIcEEEEblmdS8_NS0_14adl_serializerENS4_IhNS8_IhEEEEvE8containsIRA9_KcTnNS3_9enable_ifIXsr6detail32is_usable_as_basic_json_key_typeISE_T_EE5valueEiE4typeELi0EEEbOSK_
000000000021d800 W _ZNK8nlohmann16json_abi_v3_12_010basic_jsonINS0_11ordered_mapENSt6__ndk16vectorENS3_12basic_stringIcNS3_11char_traitsIcEENS3_9allocatorIcEEEEblmdS8_NS0_14adl_serializerENS4_IhNS8_IhEEEEvE9type_nameEv
0000000000323ab8 W _ZNK8nlohmann16json_abi_v3_12_010basic_jsonINS0_11ordered_mapENSt6__ndk16vectorENS3_12basic_stringIcNS3_11char_traitsIcEENS3_9allocatorIcEEEEblmdS8_NS0_14adl_serializerENS4_IhNS8_IhEEEEvEcvT_ISA_TnNS3_9enable_ifIXsr6detail11conjunctionINS0_6detail8negationINS3_10is_pointerISF_EEEENSJ_INS3_7is_sameISF_DnEEEENSJ_INSN_ISF_NSI_8json_refISE_EEEEEENSJ_INSN_ISF_cEEEENSJ_INSI_13is_basic_jsonISF_EEEENSJ_INSN_ISF_St16initializer_listIcEEEEENSJ_INSN_ISF_NS3_17basic_string_viewIcS7_EEEEEENSJ_INSN_ISF_NS3_3anyEEEEENSI_16is_detected_lazyINSI_21get_template_functionEJRKSE_SF_EEEEE5valueEiE4typeELi0EEEv
000000000028d2a0 W _ZNK8nlohmann16json_abi_v3_12_010basic_jsonINS0_11ordered_mapENSt6__ndk16vectorENS3_12basic_stringIcNS3_11char_traitsIcEENS3_9allocatorIcEEEEblmdS8_NS0_14adl_serializerENS4_IhNS8_IhEEEEvEixERKSA_
000000000024ac8c W _ZNK8nlohmann16json_abi_v3_12_010basic_jsonINS0_11ordered_mapENSt6__ndk16vectorENS3_12basic_stringIcNS3_11char_traitsIcEENS3_9allocatorIcEEEEblmdS8_NS0_14adl_serializerENS4_IhNS8_IhEEEEvEixEm
0000000000284a8c W _ZNK8nlohmann16json_abi_v3_12_010basic_jsonINS0_11ordered_mapENSt6__ndk16vectorENS3_12basic_stringIcNS3_11char_traitsIcEENS3_9allocatorIcEEEEblmdS8_NS0_14adl_serializerENS4_IhNS8_IhEEEEvEixIKcEERKSE_PT_
00000000003596cc W _ZNK8nlohmann16json_abi_v3_12_010basic_jsonINSt6__ndk13mapENS2_6vectorENS2_12basic_stringIcNS2_11char_traitsIcEENS2_9allocatorIcEEEEblmdS8_NS0_14adl_serializerENS4_IhNS8_IhEEEEvE3getINS4_ISA_NS8_ISA_EEEESH_EEDTcldtclL_ZNS2_7declvalB8ne210000IRKSE_EEDTclsr3stdE9__declvalIT_ELi0EEEvEE8get_implIT0_EtlNS0_6detail12priority_tagILj4EEEEEEv
0000000000304d14 W _ZNK8nlohmann16json_abi_v3_12_010basic_jsonINSt6__ndk13mapENS2_6vectorENS2_12basic_stringIcNS2_11char_traitsIcEENS2_9allocatorIcEEEEblmdS8_NS0_14adl_serializerENS4_IhNS8_IhEEEEvE3getISA_SA_EEDTcldtclL_ZNS2_7declvalB8ne210000IRKSE_EEDTclsr3stdE9__declvalIT_ELi0EEEvEE8get_implIT0_EtlNS0_6detail12priority_tagILj4EEEEEEv
0000000000349e6c W _ZNK8nlohmann16json_abi_v3_12_010basic_jsonINSt6__ndk13mapENS2_6vectorENS2_12basic_stringIcNS2_11char_traitsIcEENS2_9allocatorIcEEEEblmdS8_NS0_14adl_serializerENS4_IhNS8_IhEEEEvE4dumpEicbNS0_6detail15error_handler_tE
0000000000359628 W _ZNK8nlohmann16json_abi_v3_12_010basic_jsonINSt6__ndk13mapENS2_6vectorENS2_12basic_stringIcNS2_11char_traitsIcEENS2_9allocatorIcEEEEblmdS8_NS0_14adl_serializerENS4_IhNS8_IhEEEEvE8containsIRA11_KcTnNS2_9enable_ifIXsr6detail32is_usable_as_basic_json_key_typeISE_T_EE5valueEiE4typeELi0EEEbOSK_
000000000030512c W _ZNK8nlohmann16json_abi_v3_12_010basic_jsonINSt6__ndk13mapENS2_6vectorENS2_12basic_stringIcNS2_11char_traitsIcEENS2_9allocatorIcEEEEblmdS8_NS0_14adl_serializerENS4_IhNS8_IhEEEEvE8containsIRA4_KcTnNS2_9enable_ifIXsr6detail32is_usable_as_basic_json_key_typeISE_T_EE5valueEiE4typeELi0EEEbOSK_
0000000000349948 W _ZNK8nlohmann16json_abi_v3_12_010basic_jsonINSt6__ndk13mapENS2_6vectorENS2_12basic_stringIcNS2_11char_traitsIcEENS2_9allocatorIcEEEEblmdS8_NS0_14adl_serializerENS4_IhNS8_IhEEEEvE8containsIRA5_KcTnNS2_9enable_ifIXsr6detail32is_usable_as_basic_json_key_typeISE_T_EE5valueEiE4typeELi0EEEbOSK_
00000000003498a4 W _ZNK8nlohmann16json_abi_v3_12_010basic_jsonINSt6__ndk13mapENS2_6vectorENS2_12basic_stringIcNS2_11char_traitsIcEENS2_9allocatorIcEEEEblmdS8_NS0_14adl_serializerENS4_IhNS8_IhEEEEvE8containsIRA6_KcTnNS2_9enable_ifIXsr6detail32is_usable_as_basic_json_key_typeISE_T_EE5valueEiE4typeELi0EEEbOSK_
0000000000349800 W _ZNK8nlohmann16json_abi_v3_12_010basic_jsonINSt6__ndk13mapENS2_6vectorENS2_12basic_stringIcNS2_11char_traitsIcEENS2_9allocatorIcEEEEblmdS8_NS0_14adl_serializerENS4_IhNS8_IhEEEEvE8containsIRA8_KcTnNS2_9enable_ifIXsr6detail32is_usable_as_basic_json_key_typeISE_T_EE5valueEiE4typeELi0EEEbOSK_
0000000000308b78 W _ZNK8nlohmann16json_abi_v3_12_010basic_jsonINSt6__ndk13mapENS2_6vectorENS2_12basic_stringIcNS2_11char_traitsIcEENS2_9allocatorIcEEEEblmdS8_NS0_14adl_serializerENS4_IhNS8_IhEEEEvE9type_nameEv
00000000003595d8 W _ZNK8nlohmann16json_abi_v3_12_010basic_jsonINSt6__ndk13mapENS2_6vectorENS2_12basic_stringIcNS2_11char_traitsIcEENS2_9allocatorIcEEEEblmdS8_NS0_14adl_serializerENS4_IhNS8_IhEEEEvEcvT_ISA_TnNS2_9enable_ifIXsr6detail11conjunctionINS0_6detail8negationINS2_10is_pointerISF_EEEENSJ_INS2_7is_sameISF_DnEEEENSJ_INSN_ISF_NSI_8json_refISE_EEEEEENSJ_INSN_ISF_cEEEENSJ_INSI_13is_basic_jsonISF_EEEENSJ_INSN_ISF_St16initializer_listIcEEEEENSJ_INSN_ISF_NS2_17basic_string_viewIcS7_EEEEEENSJ_INSN_ISF_NS2_3anyEEEEENSI_16is_detected_lazyINSI_21get_template_functionEJRKSE_SF_EEEEE5valueEiE4typeELi0EEEv
00000000003195c0 W _ZNK8nlohmann16json_abi_v3_12_010basic_jsonINSt6__ndk13mapENS2_6vectorENS2_12basic_stringIcNS2_11char_traitsIcEENS2_9allocatorIcEEEEblmdS8_NS0_14adl_serializerENS4_IhNS8_IhEEEEvEixERKSA_
00000000003591d4 W _ZNK8nlohmann16json_abi_v3_12_010basic_jsonINSt6__ndk13mapENS2_6vectorENS2_12basic_stringIcNS2_11char_traitsIcEENS2_9allocatorIcEEEEblmdS8_NS0_14adl_serializerENS4_IhNS8_IhEEEEvEixEm
0000000000304978 W _ZNK8nlohmann16json_abi_v3_12_010basic_jsonINSt6__ndk13mapENS2_6vectorENS2_12basic_stringIcNS2_11char_traitsIcEENS2_9allocatorIcEEEEblmdS8_NS0_14adl_serializerENS4_IhNS8_IhEEEEvEixIKcEERKSE_PT_
000000000032bd00 W _ZNK8nlohmann16json_abi_v3_12_06detail15iteration_proxyINS1_9iter_implIKNS0_10basic_jsonINS0_11ordered_mapENSt6__ndk16vectorENS6_12basic_stringIcNS6_11char_traitsIcEENS6_9allocatorIcEEEEblmdSB_NS0_14adl_serializerENS7_IhNSB_IhEEEEvEEEEE3endEv
000000000032bbec W _ZNK8nlohmann16json_abi_v3_12_06detail15iteration_proxyINS1_9iter_implIKNS0_10basic_jsonINS0_11ordered_mapENSt6__ndk16vectorENS6_12basic_stringIcNS6_11char_traitsIcEENS6_9allocatorIcEEEEblmdSB_NS0_14adl_serializerENS7_IhNSB_IhEEEEvEEEEE5beginEv
0000000000237b34 W _ZNK8nlohmann16json_abi_v3_12_06detail21iteration_proxy_valueINS1_9iter_implINS0_10basic_jsonINS0_11ordered_mapENSt6__ndk16vectorENS6_12basic_stringIcNS6_11char_traitsIcEENS6_9allocatorIcEEEEblmdSB_NS0_14adl_serializerENS7_IhNSB_IhEEEEvEEEEE3keyEv
0000000000216d18 W _ZNK8nlohmann16json_abi_v3_12_06detail5lexerINS0_10basic_jsonINS0_11ordered_mapENSt6__ndk16vectorENS5_12basic_stringIcNS5_11char_traitsIcEENS5_9allocatorIcEEEEblmdSA_NS0_14adl_serializerENS6_IhNSA_IhEEEEvEENS1_22iterator_input_adapterINS5_11__wrap_iterIPKcEEEEE16get_token_stringEv
000000000030d138 W _ZNK8nlohmann16json_abi_v3_12_06detail5lexerINS0_10basic_jsonINSt6__ndk13mapENS4_6vectorENS4_12basic_stringIcNS4_11char_traitsIcEENS4_9allocatorIcEEEEblmdSA_NS0_14adl_serializerENS6_IhNSA_IhEEEEvEENS1_22iterator_input_adapterINS4_11__wrap_iterIPKcEEEEE16get_token_stringEv
0000000000213bb8 W _ZNK8nlohmann16json_abi_v3_12_06detail9exception4whatEv
000000000024f070 W _ZNK8nlohmann16json_abi_v3_12_06detail9iter_implIKNS0_10basic_jsonINS0_11ordered_mapENSt6__ndk16vectorENS5_12basic_stringIcNS5_11char_traitsIcEENS5_9allocatorIcEEEEblmdSA_NS0_14adl_serializerENS6_IhNSA_IhEEEEvEEE3keyEv
00000000002482d4 W _ZNK8nlohmann16json_abi_v3_12_06detail9iter_implIKNS0_10basic_jsonINS0_11ordered_mapENSt6__ndk16vectorENS5_12basic_stringIcNS5_11char_traitsIcEENS5_9allocatorIcEEEEblmdSA_NS0_14adl_serializerENS6_IhNSA_IhEEEEvEEEdeEv
0000000000248820 W _ZNK8nlohmann16json_abi_v3_12_06detail9iter_implIKNS0_10basic_jsonINS0_11ordered_mapENSt6__ndk16vectorENS5_12basic_stringIcNS5_11char_traitsIcEENS5_9allocatorIcEEEEblmdSA_NS0_14adl_serializerENS6_IhNSA_IhEEEEvEEEeqISI_TnNS5_9enable_ifIXoosr3std7is_sameIT_SI_EE5valuesr3std7is_sameISL_NS2_ISG_EEEE5valueEDnE4typeELDn0EEEbRKSL_
00000000002b670c W _ZNK8nlohmann16json_abi_v3_12_06detail9iter_implIKNS0_10basic_jsonINS0_11ordered_mapENSt6__ndk16vectorENS5_12basic_stringIcNS5_11char_traitsIcEENS5_9allocatorIcEEEEblmdSA_NS0_14adl_serializerENS6_IhNSA_IhEEEEvEEEptEv
0000000000349b98 W _ZNK8nlohmann16json_abi_v3_12_06detail9iter_implIKNS0_10basic_jsonINSt6__ndk13mapENS4_6vectorENS4_12basic_stringIcNS4_11char_traitsIcEENS4_9allocatorIcEEEEblmdSA_NS0_14adl_serializerENS6_IhNSA_IhEEEEvEEEdeEv
00000000003689f0 W _ZNK8nlohmann16json_abi_v3_12_06detail9iter_implIKNS0_10basic_jsonINSt6__ndk13mapENS4_6vectorENS4_12basic_stringIcNS4_11char_traitsIcEENS4_9allocatorIcEEEEblmdSA_NS0_14adl_serializerENS6_IhNSA_IhEEEEvEEEeqISI_TnNS4_9enable_ifIXoosr3std7is_sameIT_SI_EE5valuesr3std7is_sameISL_NS2_ISG_EEEE5valueEDnE4typeELDn0EEEbRKSL_
0000000000237f90 W _ZNK8nlohmann16json_abi_v3_12_06detail9iter_implINS0_10basic_jsonINS0_11ordered_mapENSt6__ndk16vectorENS5_12basic_stringIcNS5_11char_traitsIcEENS5_9allocatorIcEEEEblmdSA_NS0_14adl_serializerENS6_IhNSA_IhEEEEvEEE3keyEv
00000000002380d4 W _ZNK8nlohmann16json_abi_v3_12_06detail9iter_implINS0_10basic_jsonINS0_11ordered_mapENSt6__ndk16vectorENS5_12basic_stringIcNS5_11char_traitsIcEENS5_9allocatorIcEEEEblmdSA_NS0_14adl_serializerENS6_IhNSA_IhEEEEvEEEdeEv
000000000021cf64 W _ZNK8nlohmann16json_abi_v3_12_06detail9iter_implINS0_10basic_jsonINS0_11ordered_mapENSt6__ndk16vectorENS5_12basic_stringIcNS5_11char_traitsIcEENS5_9allocatorIcEEEEblmdSA_NS0_14adl_serializerENS6_IhNSA_IhEEEEvEEEeqISH_TnNS5_9enable_ifIXoosr3std7is_sameIT_SH_EE5valuesr3std7is_sameISK_NS2_IKSG_EEEE5valueEDnE4typeELDn0EEEbRKSK_
000000000021ba6c W _ZNK8nlohmann16json_abi_v3_12_06detail9iter_implINS0_10basic_jsonINS0_11ordered_mapENSt6__ndk16vectorENS5_12basic_stringIcNS5_11char_traitsIcEENS5_9allocatorIcEEEEblmdSA_NS0_14adl_serializerENS6_IhNSA_IhEEEEvEEEptEv
0000000000304720 W _ZNK8nlohmann16json_abi_v3_12_06detail9iter_implINS0_10basic_jsonINSt6__ndk13mapENS4_6vectorENS4_12basic_stringIcNS4_11char_traitsIcEENS4_9allocatorIcEEEEblmdSA_NS0_14adl_serializerENS6_IhNSA_IhEEEEvEEEdeEv
000000000031946c W _ZNK8nlohmann16json_abi_v3_12_06detail9iter_implINS0_10basic_jsonINSt6__ndk13mapENS4_6vectorENS4_12basic_stringIcNS4_11char_traitsIcEENS4_9allocatorIcEEEEblmdSA_NS0_14adl_serializerENS6_IhNSA_IhEEEEvEEEeqISH_TnNS4_9enable_ifIXoosr3std7is_sameIT_SH_EE5valuesr3std7is_sameISK_NS2_IKSG_EEEE5valueEDnE4typeELDn0EEEbRKSK_
0000000000311010 W _ZNK8nlohmann16json_abi_v3_12_06detail9iter_implINS0_10basic_jsonINSt6__ndk13mapENS4_6vectorENS4_12basic_stringIcNS4_11char_traitsIcEENS4_9allocatorIcEEEEblmdSA_NS0_14adl_serializerENS6_IhNSA_IhEEEEvEEEptEv
0000000000582f28 T _ZNKSt18bad_variant_access4whatEv
0000000000582ee0 T _ZNKSt19bad_optional_access4whatEv
000000000045bc30 W _ZNKSt6__ndk111__move_implINS_17_ClassicAlgPolicyEEclB8ne210000IPN7httplib6Server15MountPointEntryES7_S7_EENS_4pairIT_T1_EES9_T0_SA_
000000000021dd88 W _ZNKSt6__ndk111__move_implINS_17_ClassicAlgPolicyEEclB8ne210000IPN8nlohmann16json_abi_v3_12_010basic_jsonINS5_11ordered_mapENS_6vectorENS_12basic_stringIcNS_11char_traitsIcEENS_9allocatorIcEEEEblmdSC_NS5_14adl_serializerENS8_IhNSC_IhEEEEvEESJ_SJ_EENS_4pairIT_T1_EESL_T0_SM_
0000000000312c84 W _ZNKSt6__ndk111__move_implINS_17_ClassicAlgPolicyEEclB8ne210000IPN8nlohmann16json_abi_v3_12_010basic_jsonINS_3mapENS_6vectorENS_12basic_stringIcNS_11char_traitsIcEENS_9allocatorIcEEEEblmdSC_NS5_14adl_serializerENS8_IhNSC_IhEEEEvEESJ_SJ_EENS_4pairIT_T1_EESL_T0_SM_
0000000000228c34 W _ZNKSt6__ndk111basic_regexIcNS_12regex_traitsIcEEE21__match_at_start_ecmaINS_9allocatorINS_9sub_matchIPKcEEEEEEbS8_S8_RNS_13match_resultsIS8_T_EENS_15regex_constants15match_flag_typeEb
00000000002309b4 W _ZNKSt6__ndk111basic_regexIcNS_12regex_traitsIcEEE27__match_at_start_posix_subsINS_9allocatorINS_9sub_matchIPKcEEEEEEbS8_S8_RNS_13match_resultsIS8_T_EENS_15regex_constants15match_flag_typeEb
0000000000230070 W _ZNKSt6__ndk111basic_regexIcNS_12regex_traitsIcEEE29__match_at_start_posix_nosubsINS_9allocatorINS_9sub_matchIPKcEEEEEEbS8_S8_RNS_13match_resultsIS8_T_EENS_15regex_constants15match_flag_typeEb
000000000022fbdc W _ZNKSt6__ndk111basic_regexIcNS_12regex_traitsIcEEE8__searchINS_9allocatorINS_9sub_matchIPKcEEEEEEbS8_S8_RNS_13match_resultsIS8_T_EENS_15regex_constants15match_flag_typeE
000000000033019c W _ZNKSt6__ndk112__hash_tableINS_12basic_stringIcNS_11char_traitsIcEENS_9allocatorIcEEEENS_4hashIS6_EENS_8equal_toIS6_EENS4_IS6_EEE4findIS6_EENS_21__hash_const_iteratorIPNS_11__hash_nodeIS6_PvEEEERKT_
000000000037d874 W _ZNKSt6__ndk112__hash_tableINS_17__hash_value_typeINS_12basic_stringIcNS_11char_traitsIcEENS_9allocatorIcEEEE19common_sampler_typeEENS_22__unordered_map_hasherIS7_S9_NS_4hashIS7_EENS_8equal_toIS7_EELb1EEENS_21__unordered_map_equalIS7_S9_SE_SC_Lb1EEENS5_IS9_EEE4findIS7_EENS_21__hash_const_iteratorIPNS_11__hash_nodeIS9_PvEEEERKT_
00000000004511c4 W _ZNKSt6__ndk112__hash_tableINS_17__hash_value_typeINS_12basic_stringIcNS_11char_traitsIcEENS_9allocatorIcEEEES7_EENS_22__unordered_map_hasherIS7_S8_N7httplib6detail11case_ignore4hashENSC_8equal_toELb1EEENS_21__unordered_map_equalIS7_S8_SE_SD_Lb1EEENS5_IS8_EEE4findIS7_EENS_21__hash_const_iteratorIPNS_11__hash_nodeIS8_PvEEEERKT_
000000000035c280 W _ZNKSt6__ndk112__hash_tableINS_17__hash_value_typeINS_12basic_stringIcNS_11char_traitsIcEENS_9allocatorIcEEEEmEENS_22__unordered_map_hasherIS7_S8_NS_4hashIS7_EENS_8equal_toIS7_EELb1EEENS_21__unordered_map_equalIS7_S8_SD_SB_Lb1EEENS5_IS8_EEE4findIS7_EENS_21__hash_const_iteratorIPNS_11__hash_nodeIS8_PvEEEERKT_
00000000002e67a4 W _ZNKSt6__ndk112regex_traitsIcE18__lookup_classnameINS_11__wrap_iterIPKcEEEEtT_S7_bc
000000000022deb4 W _ZNKSt6__ndk112regex_traitsIcE18__lookup_classnameIPKcEEtT_S5_bc
000000000022dc94 W _ZNKSt6__ndk112regex_traitsIcE19__transform_primaryINS_11__wrap_iterIPcEEEENS_12basic_stringIcNS_11char_traitsIcEENS_9allocatorIcEEEET_SC_c
000000000022c2ec W _ZNKSt6__ndk112regex_traitsIcE19__transform_primaryIPcEENS_12basic_stringIcNS_11char_traitsIcEENS_9allocatorIcEEEET_SA_c
00000000002e6518 W _ZNKSt6__ndk112regex_traitsIcE20__lookup_collatenameINS_11__wrap_iterIPKcEEEENS_12basic_stringIcNS_11char_traitsIcEENS_9allocatorIcEEEET_SD_c
000000000022da08 W _ZNKSt6__ndk112regex_traitsIcE20__lookup_collatenameIPKcEENS_12basic_stringIcNS_11char_traitsIcEENS_9allocatorIcEEEET_SB_c
000000000022c060 W _ZNKSt6__ndk112regex_traitsIcE20__lookup_collatenameIPcEENS_12basic_stringIcNS_11char_traitsIcEENS_9allocatorIcEEEET_SA_c
000000000022e320 W _ZNKSt6__ndk112regex_traitsIcE9transformINS_11__wrap_iterIPcEEEENS_12basic_stringIcNS_11char_traitsIcEENS_9allocatorIcEEEET_SC_
000000000022bef0 W _ZNKSt6__ndk112regex_traitsIcE9transformIPcEENS_12basic_stringIcNS_11char_traitsIcEENS_9allocatorIcEEEET_SA_
00000000002ddb8c W _ZNKSt6__ndk113match_resultsINS_11__wrap_iterIPKcEENS_9allocatorINS_9sub_matchIS4_EEEEE6formatINS_20back_insert_iteratorINS_12basic_stringIcNS_11char_traitsIcEENS5_IcEEEEEEEET_SI_S3_S3_NS_15regex_constants15match_flag_typeE
0000000000373af4 W _ZNKSt6__ndk16__treeINS_12__value_typeINS_12basic_stringIcNS_11char_traitsIcEENS_9allocatorIcEEEE10common_argEENS_19__map_value_compareIS7_S9_NS_4lessIS7_EELb1EEENS5_IS9_EEE4findIS7_EENS_21__tree_const_iteratorIS9_PNS_11__tree_nodeIS9_PvEElEERKT_
0000000000384d94 W _ZNKSt6__ndk16__treeINS_12__value_typeINS_12basic_stringIcNS_11char_traitsIcEENS_9allocatorIcEEEE23common_speculative_typeEENS_19__map_value_compareIS7_S9_NS_4lessIS7_EELb1EEENS5_IS9_EEE4findIS7_EENS_21__tree_const_iteratorIS9_PNS_11__tree_nodeIS9_PvEElEERKT_
0000000000459308 W _ZNKSt6__ndk16__treeINS_12__value_typeINS_12basic_stringIcNS_11char_traitsIcEENS_9allocatorIcEEEEN7httplib8FormDataEEENS_19__map_value_compareIS7_SA_NS_4lessIS7_EELb1EEENS5_ISA_EEE19__equal_range_multiIS7_EENS_4pairINS_21__tree_const_iteratorISA_PNS_11__tree_nodeISA_PvEElEESO_EERKT_
0000000000459860 W _ZNKSt6__ndk16__treeINS_12__value_typeINS_12basic_stringIcNS_11char_traitsIcEENS_9allocatorIcEEEEN7httplib8FormDataEEENS_19__map_value_compareIS7_SA_NS_4lessIS7_EELb1EEENS5_ISA_EEE4findIS7_EENS_21__tree_const_iteratorISA_PNS_11__tree_nodeISA_PvEElEERKT_
0000000000458fa0 W _ZNKSt6__ndk16__treeINS_12__value_typeINS_12basic_stringIcNS_11char_traitsIcEENS_9allocatorIcEEEEN7httplib9FormFieldEEENS_19__map_value_compareIS7_SA_NS_4lessIS7_EELb1EEENS5_ISA_EEE19__equal_range_multiIS7_EENS_4pairINS_21__tree_const_iteratorISA_PNS_11__tree_nodeISA_PvEElEESO_EERKT_
0000000000459160 W _ZNKSt6__ndk16__treeINS_12__value_typeINS_12basic_stringIcNS_11char_traitsIcEENS_9allocatorIcEEEEN7httplib9FormFieldEEENS_19__map_value_compareIS7_SA_NS_4lessIS7_EELb1EEENS5_ISA_EEE4findIS7_EENS_21__tree_const_iteratorISA_PNS_11__tree_nodeISA_PvEElEERKT_
00000000003b2b3c W _ZNKSt6__ndk16__treeINS_12__value_typeINS_12basic_stringIcNS_11char_traitsIcEENS_9allocatorIcEEEENS_8functionIFNS_10shared_ptrIN5jinja7value_tEEERKNSA_9func_argsEEEEEENS_19__map_value_compareIS7_SI_NS_4lessIS7_EELb1EEENS5_ISI_EEE4findIS7_EENS_21__tree_const_iteratorISI_PNS_11__tree_nodeISI_PvEElEERKT_
0000000000458de0 W _ZNKSt6__ndk16__treeINS_12__value_typeINS_12basic_stringIcNS_11char_traitsIcEENS_9allocatorIcEEEES7_EENS_19__map_value_compareIS7_S8_NS_4lessIS7_EELb1EEENS5_IS8_EEE19__equal_range_multiIS7_EENS_4pairINS_21__tree_const_iteratorIS8_PNS_11__tree_nodeIS8_PvEElEESM_EERKT_
000000000028bdc8 W _ZNKSt6__ndk16__treeINS_12__value_typeINS_12basic_stringIcNS_11char_traitsIcEENS_9allocatorIcEEEES7_EENS_19__map_value_compareIS7_S8_NS_4lessIS7_EELb1EEENS5_IS8_EEE4findIS7_EENS_21__tree_const_iteratorIS8_PNS_11__tree_nodeIS8_PvEElEERKT_
0000000000373bf8 W _ZNKSt6__ndk16__treeINS_12basic_stringIcNS_11char_traitsIcEENS_9allocatorIcEEEENS_4lessIS6_EENS4_IS6_EEE4findIS6_EENS_21__tree_const_iteratorIS6_PNS_11__tree_nodeIS6_PvEElEERKT_
0000000000582ef8 T _ZNSt12experimental19bad_optional_accessD0Ev
0000000000582ef0 T _ZNSt12experimental19bad_optional_accessD1Ev
0000000000582ef0 T _ZNSt12experimental19bad_optional_accessD2Ev
0000000000582eb0 T _ZNSt19bad_optional_accessD0Ev
0000000000582ea8 T _ZNSt19bad_optional_accessD1Ev
0000000000582ea8 T _ZNSt19bad_optional_accessD2Ev
000000000022af9c W _ZNSt6__ndk110__back_refIcED0Ev
0000000000459bc4 W _ZNSt6__ndk110__function6__funcIN7httplib6detail22ContentProviderAdapterENS_9allocatorIS4_EEFbmmRNS2_8DataSinkEEED0Ev
0000000000459b78 W _ZNSt6__ndk110__function6__funcIN7httplib6detail22ContentProviderAdapterENS_9allocatorIS4_EEFbmmRNS2_8DataSinkEEED2Ev
000000000044f518 W _ZNSt6__ndk110__function6__funcIN7httplib7Request20is_connection_closedMUlvE_ENS_9allocatorIS5_EEFbvEED0Ev
00000000003c68fc W _ZNSt6__ndk110__function6__funcIPFNS_10shared_ptrIN5jinja7value_tEEERKNS3_9func_argsEENS_9allocatorISA_EES9_ED0Ev
00000000003928f4 W _ZNSt6__ndk110__function6__funcIPFbcENS_9allocatorIS3_EES2_ED0Ev
000000000045a888 W _ZNSt6__ndk110__function6__funcIPFlRN7httplib6StreamERKNS_18unordered_multimapINS_12basic_stringIcNS_11char_traitsIcEENS_9allocatorIcEEEESB_NS2_6detail11case_ignore4hashENSD_8equal_toENS9_INS_4pairIKSB_SB_EEEEEEENS9_ISO_EEFlS4_RSK_EED0Ev
000000000045a7e8 W _ZNSt6__ndk110__function6__funcIPFviENS_9allocatorIS3_EES2_ED0Ev
0000000000331798 W _ZNSt6__ndk110__function6__funcIZN23common_schema_converter12_not_stringsERKNS_6vectorINS_12basic_stringIcNS_11char_traitsIcEENS_9allocatorIcEEEENS7_IS9_EEEEEUlRKZNS2_12_not_stringsESD_E8TrieNodeE_NS7_ISH_EEFvSG_EED0Ev
000000000032263c W _ZNSt6__ndk110__function6__funcIZN23common_schema_converter12resolve_refsERN8nlohmann16json_abi_v3_12_010basic_jsonINS4_11ordered_mapENS_6vectorENS_12basic_stringIcNS_11char_traitsIcEENS_9allocatorIcEEEEblmdSB_NS4_14adl_serializerENS7_IhNSB_IhEEEEvEERKSD_EUlSI_E_NSB_ISL_EEFvSI_EED0Ev
0000000000334510 W _ZNSt6__ndk110__function6__funcIZN23common_schema_converter14_visit_patternERKNS_12basic_stringIcNS_11char_traitsIcEENS_9allocatorIcEEEESA_EUlvE_NS6_ISB_EEFNS_4pairIS8_bEEvEED0Ev
000000000033210c W _ZNSt6__ndk110__function6__funcIZN23common_schema_converter18_build_object_ruleERKNS_6vectorINS_4pairINS_12basic_stringIcNS_11char_traitsIcEENS_9allocatorIcEEEEN8nlohmann16json_abi_v3_12_010basic_jsonINSC_11ordered_mapES3_SA_blmdS8_NSC_14adl_serializerENS3_IhNS8_IhEEEEvEEEENS8_ISJ_EEEERKNS_13unordered_setISA_NS_4hashISA_EENS_8equal_toISA_EENS8_ISA_EEEERKSA_RKSI_EUlRKNS3_ISA_ST_EEbE_NS8_IS14_EEFSA_S13_bEED0Ev
0000000000332fac W _ZNSt6__ndk110__function6__funcIZN23common_schema_converter5visitERKN8nlohmann16json_abi_v3_12_010basic_jsonINS4_11ordered_mapENS_6vectorENS_12basic_stringIcNS_11char_traitsIcEENS_9allocatorIcEEEEblmdSB_NS4_14adl_serializerENS7_IhNSB_IhEEEEvEERKSD_EUlSJ_bE_NSB_ISM_EEFvSJ_bEED0Ev
0000000000461db0 W _ZNSt6__ndk110__function6__funcIZN7httplib6detail24prepare_content_receiverINS2_7RequestEZNS3_12read_contentIS5_EEbRNS2_6StreamERT_mRiNS_8functionIFbmmEEENSC_IFbPKcmmmEEEbEUlRKSI_E_EEbSA_SB_SI_bmRbT0_EUlSG_mmmE0_NS_9allocatorISO_EESH_ED0Ev
0000000000461838 W _ZNSt6__ndk110__function6__funcIZN7httplib6detail24prepare_content_receiverINS2_7RequestEZNS3_12read_contentIS5_EEbRNS2_6StreamERT_mRiNS_8functionIFbmmEEENSC_IFbPKcmmmEEEbEUlRKSI_E_EEbSA_SB_SI_bmRbT0_EUlSG_mmmE_NS_9allocatorISO_EESH_ED0Ev
0000000000467400 W _ZNSt6__ndk110__function6__funcIZN7httplib6detail24prepare_content_receiverINS2_8ResponseEZNS3_12read_contentIS5_EEbRNS2_6StreamERT_mRiNS_8functionIFbmmEEENSC_IFbPKcmmmEEEbEUlRKSI_E_EEbSA_SB_SI_bmRbT0_EUlSG_mmmE0_NS_9allocatorISO_EESH_ED0Ev
0000000000466e84 W _ZNSt6__ndk110__function6__funcIZN7httplib6detail24prepare_content_receiverINS2_8ResponseEZNS3_12read_contentIS5_EEbRNS2_6StreamERT_mRiNS_8functionIFbmmEEENSC_IFbPKcmmmEEEbEUlRKSI_E_EEbSA_SB_SI_bmRbT0_EUlSG_mmmE_NS_9allocatorISO_EESH_ED0Ev
0000000000461a28 W _ZNSt6__ndk110__function6__funcIZZN7httplib6detail24prepare_content_receiverINS2_7RequestEZNS3_12read_contentIS5_EEbRNS2_6StreamERT_mRiNS_8functionIFbmmEEENSC_IFbPKcmmmEEEbEUlRKSI_E_EEbSA_SB_SI_bmRbT0_ENKUlSG_mmmE_clESG_mmmEUlSG_mE_NS_9allocatorISP_EEFbSG_mEED0Ev
0000000000467074 W _ZNSt6__ndk110__function6__funcIZZN7httplib6detail24prepare_content_receiverINS2_8ResponseEZNS3_12read_contentIS5_EEbRNS2_6StreamERT_mRiNS_8functionIFbmmEEENSC_IFbPKcmmmEEEbEUlRKSI_E_EEbSA_SB_SI_bmRbT0_ENKUlSG_mmmE_clESG_mmmEUlSG_mE_NS_9allocatorISP_EEFbSG_mEED0Ev
00000000003a30f4 W _ZNSt6__ndk110shared_ptrIN5jinja7value_tEEaSB8ne210000INS1_14value_string_tETnNS_9enable_ifIXsr17__compatible_withIT_S2_EE5valueEiE4typeELi0EEERS3_ONS0_IS7_EE
000000000022ed90 W _ZNSt6__ndk111__alternateIcED0Ev
0000000000227698 W _ZNSt6__ndk111__end_stateIcED0Ev
0000000000366908 W _ZNSt6__ndk111__introsortINS_17_ClassicAlgPolicyERNS_6__lessIvvEEPNS_12basic_stringIcNS_11char_traitsIcEENS_9allocatorIcEEEELb0EEEvT1_SC_T0_NS_15iterator_traitsISC_E15difference_typeEb
0000000000273904 W _ZNSt6__ndk111__introsortINS_17_ClassicAlgPolicyERNS_6__lessIvvEEPNS_4pairImNS_12basic_stringIcNS_11char_traitsIcEENS_9allocatorIcEEEEEELb0EEEvT1_SE_T0_NS_15iterator_traitsISE_E15difference_typeEb
00000000002289dc W _ZNSt6__ndk111__lookaheadIcNS_12regex_traitsIcEEED0Ev
000000000022894c W _ZNSt6__ndk111__lookaheadIcNS_12regex_traitsIcEEED2Ev
000000000022f5a8 W _ZNSt6__ndk111__match_anyIcED0Ev
000000000022a75c W _ZNSt6__ndk111basic_regexIcNS_12regex_traitsIcEEE11__push_charEc
000000000022e7fc W _ZNSt6__ndk111basic_regexIcNS_12regex_traitsIcEEE11__push_loopEmmPNS_16__owns_one_stateIcEEmmb
00000000002e44cc W _ZNSt6__ndk111basic_regexIcNS_12regex_traitsIcEEE12__parse_atomINS_11__wrap_iterIPKcEEEET_S9_S9_
0000000000227c38 W _ZNSt6__ndk111basic_regexIcNS_12regex_traitsIcEEE12__parse_atomIPKcEET_S7_S7_
00000000002e3e90 W _ZNSt6__ndk111basic_regexIcNS_12regex_traitsIcEEE12__parse_grepINS_11__wrap_iterIPKcEEEET_S9_S9_
0000000000227304 W _ZNSt6__ndk111basic_regexIcNS_12regex_traitsIcEEE12__parse_grepIPKcEET_S7_S7_
0000000000227864 W _ZNSt6__ndk111basic_regexIcNS_12regex_traitsIcEEE12__parse_termIPKcEET_S7_S7_
00000000002e4034 W _ZNSt6__ndk111basic_regexIcNS_12regex_traitsIcEEE13__parse_egrepINS_11__wrap_iterIPKcEEEET_S9_S9_
00000000002274a8 W _ZNSt6__ndk111basic_regexIcNS_12regex_traitsIcEEE13__parse_egrepIPKcEET_S7_S7_
000000000022a908 W _ZNSt6__ndk111basic_regexIcNS_12regex_traitsIcEEE15__push_back_refEi
000000000022f634 W _ZNSt6__ndk111basic_regexIcNS_12regex_traitsIcEEE15__test_back_refEc
00000000002e3950 W _ZNSt6__ndk111basic_regexIcNS_12regex_traitsIcEEE16__parse_ecma_expINS_11__wrap_iterIPKcEEEET_S9_S9_
0000000000226e78 W _ZNSt6__ndk111basic_regexIcNS_12regex_traitsIcEEE16__parse_ecma_expIPKcEET_S7_S7_
000000000022852c W _ZNSt6__ndk111basic_regexIcNS_12regex_traitsIcEEE16__push_lookaheadERKS3_bj
00000000002e41d8 W _ZNSt6__ndk111basic_regexIcNS_12regex_traitsIcEEE17__parse_assertionINS_11__wrap_iterIPKcEEEET_S9_S9_
00000000002278f8 W _ZNSt6__ndk111basic_regexIcNS_12regex_traitsIcEEE17__parse_assertionIPKcEET_S7_S7_
00000000002e6230 W _ZNSt6__ndk111basic_regexIcNS_12regex_traitsIcEEE18__parse_awk_escapeINS_11__wrap_iterIPKcEEEET_S9_S9_PNS_12basic_stringIcNS_11char_traitsIcEENS_9allocatorIcEEEE
000000000022d080 W _ZNSt6__ndk111basic_regexIcNS_12regex_traitsIcEEE18__parse_awk_escapeIPKcEET_S7_S7_PNS_12basic_stringIcNS_11char_traitsIcEENS_9allocatorIcEEEE
00000000002e6938 W _ZNSt6__ndk111basic_regexIcNS_12regex_traitsIcEEE18__parse_nondupl_REINS_11__wrap_iterIPKcEEEET_S9_S9_
000000000022ee98 W _ZNSt6__ndk111basic_regexIcNS_12regex_traitsIcEEE18__parse_nondupl_REIPKcEET_S7_S7_
00000000002277c4 W _ZNSt6__ndk111basic_regexIcNS_12regex_traitsIcEEE19__parse_alternativeIPKcEET_S7_S7_
00000000002e4d70 W _ZNSt6__ndk111basic_regexIcNS_12regex_traitsIcEEE19__parse_atom_escapeINS_11__wrap_iterIPKcEEEET_S9_S9_
0000000000229c8c W _ZNSt6__ndk111basic_regexIcNS_12regex_traitsIcEEE19__parse_atom_escapeIPKcEET_S7_S7_
00000000002e60b0 W _ZNSt6__ndk111basic_regexIcNS_12regex_traitsIcEEE20__parse_class_escapeINS_11__wrap_iterIPKcEEEET_S9_S9_RNS_12basic_stringIcNS_11char_traitsIcEENS_9allocatorIcEEEEPNS_20__bracket_expressionIcS2_EE
000000000022cf04 W _ZNSt6__ndk111basic_regexIcNS_12regex_traitsIcEEE20__parse_class_escapeIPKcEET_S7_S7_RNS_12basic_stringIcNS_11char_traitsIcEENS_9allocatorIcEEEEPNS_20__bracket_expressionIcS2_EE
00000000002e4d04 W _ZNSt6__ndk111basic_regexIcNS_12regex_traitsIcEEE20__push_word_boundaryEb
00000000002e3ba0 W _ZNSt6__ndk111basic_regexIcNS_12regex_traitsIcEEE21__parse_basic_reg_expINS_11__wrap_iterIPKcEEEET_S9_S9_
000000000022702c W _ZNSt6__ndk111basic_regexIcNS_12regex_traitsIcEEE21__parse_basic_reg_expIPKcEET_S7_S7_
00000000002e70d8 W _ZNSt6__ndk111basic_regexIcNS_12regex_traitsIcEEE22__parse_ERE_expressionINS_11__wrap_iterIPKcEEEET_S9_S9_
000000000022f694 W _ZNSt6__ndk111basic_regexIcNS_12regex_traitsIcEEE22__parse_ERE_expressionIPKcEET_S7_S7_
00000000002e6b5c W _ZNSt6__ndk111basic_regexIcNS_12regex_traitsIcEEE22__parse_RE_dupl_symbolINS_11__wrap_iterIPKcEEEET_S9_S9_PNS_16__owns_one_stateIcEEjj
000000000022f190 W _ZNSt6__ndk111basic_regexIcNS_12regex_traitsIcEEE22__parse_RE_dupl_symbolIPKcEET_S7_S7_PNS_16__owns_one_stateIcEEjj
00000000002e4734 W _ZNSt6__ndk111basic_regexIcNS_12regex_traitsIcEEE23__parse_ERE_dupl_symbolINS_11__wrap_iterIPKcEEEET_S9_S9_PNS_16__owns_one_stateIcEEjj
0000000000227e68 W _ZNSt6__ndk111basic_regexIcNS_12regex_traitsIcEEE23__parse_ERE_dupl_symbolIPKcEET_S7_S7_PNS_16__owns_one_stateIcEEjj
00000000002e73e4 W _ZNSt6__ndk111basic_regexIcNS_12regex_traitsIcEEE23__parse_QUOTED_CHAR_EREINS_11__wrap_iterIPKcEEEET_S9_S9_
000000000022f9a8 W _ZNSt6__ndk111basic_regexIcNS_12regex_traitsIcEEE23__parse_QUOTED_CHAR_EREIPKcEET_S7_S7_
00000000002e5ed0 W _ZNSt6__ndk111basic_regexIcNS_12regex_traitsIcEEE23__parse_character_classINS_11__wrap_iterIPKcEEEET_S9_S9_PNS_20__bracket_expressionIcS2_EE
00000000002e571c W _ZNSt6__ndk111basic_regexIcNS_12regex_traitsIcEEE23__parse_expression_termINS_11__wrap_iterIPKcEEEET_S9_S9_PNS_20__bracket_expressionIcS2_EE
000000000022c50c W _ZNSt6__ndk111basic_regexIcNS_12regex_traitsIcEEE23__parse_expression_termIPKcEET_S7_S7_PNS_20__bracket_expressionIcS2_EE
00000000002e5310 W _ZNSt6__ndk111basic_regexIcNS_12regex_traitsIcEEE24__parse_character_escapeINS_11__wrap_iterIPKcEEEET_S9_S9_PNS_12basic_stringIcNS_11char_traitsIcEENS_9allocatorIcEEEE
000000000022a344 W _ZNSt6__ndk111basic_regexIcNS_12regex_traitsIcEEE24__parse_character_escapeIPKcEET_S7_S7_PNS_12basic_stringIcNS_11char_traitsIcEENS_9allocatorIcEEEE
00000000002e5f80 W _ZNSt6__ndk111basic_regexIcNS_12regex_traitsIcEEE24__parse_collating_symbolINS_11__wrap_iterIPKcEEEET_S9_S9_RNS_12basic_stringIcNS_11char_traitsIcEENS_9allocatorIcEEEE
000000000022cde4 W _ZNSt6__ndk111basic_regexIcNS_12regex_traitsIcEEE24__parse_collating_symbolIPKcEET_S7_S7_RNS_12basic_stringIcNS_11char_traitsIcEENS_9allocatorIcEEEE
00000000002e3d28 W _ZNSt6__ndk111basic_regexIcNS_12regex_traitsIcEEE24__parse_extended_reg_expINS_11__wrap_iterIPKcEEEET_S9_S9_
00000000002271a4 W _ZNSt6__ndk111basic_regexIcNS_12regex_traitsIcEEE24__parse_extended_reg_expIPKcEET_S7_S7_
00000000002e5bc8 W _ZNSt6__ndk111basic_regexIcNS_12regex_traitsIcEEE25__parse_equivalence_classINS_11__wrap_iterIPKcEEEET_S9_S9_PNS_20__bracket_expressionIcS2_EE
000000000022caf8 W _ZNSt6__ndk111basic_regexIcNS_12regex_traitsIcEEE25__parse_equivalence_classIPKcEET_S7_S7_PNS_20__bracket_expressionIcS2_EE
00000000002e5028 W _ZNSt6__ndk111basic_regexIcNS_12regex_traitsIcEEE25__parse_pattern_characterINS_11__wrap_iterIPKcEEEET_S9_S9_
0000000000229fc4 W _ZNSt6__ndk111basic_regexIcNS_12regex_traitsIcEEE25__parse_pattern_characterIPKcEET_S7_S7_
00000000002e4ecc W _ZNSt6__ndk111basic_regexIcNS_12regex_traitsIcEEE26__parse_bracket_expressionINS_11__wrap_iterIPKcEEEET_S9_S9_
0000000000229e14 W _ZNSt6__ndk111basic_regexIcNS_12regex_traitsIcEEE26__parse_bracket_expressionIPKcEET_S7_S7_
00000000002e50a0 W _ZNSt6__ndk111basic_regexIcNS_12regex_traitsIcEEE30__parse_character_class_escapeINS_11__wrap_iterIPKcEEEET_S9_S9_
000000000022a0d4 W _ZNSt6__ndk111basic_regexIcNS_12regex_traitsIcEEE30__parse_character_class_escapeIPKcEET_S7_S7_
00000000002e6f64 W _ZNSt6__ndk111basic_regexIcNS_12regex_traitsIcEEE32__parse_one_char_or_coll_elem_REINS_11__wrap_iterIPKcEEEET_S9_S9_
00000000002e72b4 W _ZNSt6__ndk111basic_regexIcNS_12regex_traitsIcEEE33__parse_one_char_or_coll_elem_EREINS_11__wrap_iterIPKcEEEET_S9_S9_
000000000022f870 W _ZNSt6__ndk111basic_regexIcNS_12regex_traitsIcEEE33__parse_one_char_or_coll_elem_EREIPKcEET_S7_S7_
00000000002e3768 W _ZNSt6__ndk111basic_regexIcNS_12regex_traitsIcEEE7__parseINS_11__wrap_iterIPKcEEEET_S9_S9_
0000000000226afc W _ZNSt6__ndk111basic_regexIcNS_12regex_traitsIcEEE7__parseIPKcEET_S7_S7_
000000000011a340 V _ZNSt6__ndk111basic_regexIcNS_12regex_traitsIcEEE8optimizeE
00000000002e3698 W _ZNSt6__ndk111basic_regexIcNS_12regex_traitsIcEEEC2B8ne210000INS_11char_traitsIcEENS_9allocatorIcEEEERKNS_12basic_stringIcT_T0_EENS_15regex_constants18syntax_option_typeE
0000000000226a4c W _ZNSt6__ndk111basic_regexIcNS_12regex_traitsIcEEED2Ev
00000000004521d0 W _ZNSt6__ndk112__hash_tableINS_12basic_stringIcNS_11char_traitsIcEENS_9allocatorIcEEEEN7httplib6detail11case_ignore4hashENS9_8equal_toENS4_IS6_EEE11__do_rehashILb1EEEvm
0000000000451d30 W _ZNSt6__ndk112__hash_tableINS_12basic_stringIcNS_11char_traitsIcEENS_9allocatorIcEEEEN7httplib6detail11case_ignore4hashENS9_8equal_toENS4_IS6_EEE25__emplace_unique_key_argsIS6_JRKS6_EEENS_4pairINS_15__hash_iteratorIPNS_11__hash_nodeIS6_PvEEEEbEERKT_DpOT0_
00000000004525d4 W _ZNSt6__ndk112__hash_tableINS_12basic_stringIcNS_11char_traitsIcEENS_9allocatorIcEEEEN7httplib6detail11case_ignore4hashENS9_8equal_toENS4_IS6_EEE4findIS6_EENS_15__hash_iteratorIPNS_11__hash_nodeIS6_PvEEEERKT_
00000000002dd6d0 W _ZNSt6__ndk112__hash_tableINS_12basic_stringIcNS_11char_traitsIcEENS_9allocatorIcEEEENS_4hashIS6_EENS_8equal_toIS6_EENS4_IS6_EEE11__do_rehashILb1EEEvm
00000000002dd224 W _ZNSt6__ndk112__hash_tableINS_12basic_stringIcNS_11char_traitsIcEENS_9allocatorIcEEEENS_4hashIS6_EENS_8equal_toIS6_EENS4_IS6_EEE25__emplace_unique_key_argsIS6_JRKS6_EEENS_4pairINS_15__hash_iteratorIPNS_11__hash_nodeIS6_PvEEEEbEERKT_DpOT0_
00000000002f6c04 W _ZNSt6__ndk112__hash_tableINS_12basic_stringIcNS_11char_traitsIcEENS_9allocatorIcEEEENS_4hashIS6_EENS_8equal_toIS6_EENS4_IS6_EEE25__emplace_unique_key_argsIS6_JS6_EEENS_4pairINS_15__hash_iteratorIPNS_11__hash_nodeIS6_PvEEEEbEERKT_DpOT0_
00000000002f75e4 W _ZNSt6__ndk112__hash_tableINS_12basic_stringIcNS_11char_traitsIcEENS_9allocatorIcEEEENS_4hashIS6_EENS_8equal_toIS6_EENS4_IS6_EEE4findIS6_EENS_15__hash_iteratorIPNS_11__hash_nodeIS6_PvEEEERKT_
0000000000383dcc W _ZNSt6__ndk112__hash_tableINS_17__hash_value_typeI12common_ngramNS_13unordered_mapIiiNS_4hashIiEENS_8equal_toIiEENS_9allocatorINS_4pairIKiiEEEEEEEENS_22__unordered_map_hasherIS2_SE_26common_ngram_hash_functionNS6_IS2_EELb1EEENS_21__unordered_map_equalIS2_SE_SH_SG_Lb1EEENS8_ISE_EEE11__do_rehashILb0EEEvm
000000000033c4f8 W _ZNSt6__ndk112__hash_tableINS_17__hash_value_typeI12common_ngramNS_13unordered_mapIiiNS_4hashIiEENS_8equal_toIiEENS_9allocatorINS_4pairIKiiEEEEEEEENS_22__unordered_map_hasherIS2_SE_26common_ngram_hash_functionNS6_IS2_EELb1EEENS_21__unordered_map_equalIS2_SE_SH_SG_Lb1EEENS8_ISE_EEE11__do_rehashILb1EEEvm
00000000003837d0 W _ZNSt6__ndk112__hash_tableINS_17__hash_value_typeI12common_ngramNS_13unordered_mapIiiNS_4hashIiEENS_8equal_toIiEENS_9allocatorINS_4pairIKiiEEEEEEEENS_22__unordered_map_hasherIS2_SE_26common_ngram_hash_functionNS6_IS2_EELb1EEENS_21__unordered_map_equalIS2_SE_SH_SG_Lb1EEENS8_ISE_EEE14__assign_multiINS_21__hash_const_iteratorIPNS_11__hash_nodeISE_PvEEEEEEvT_SU_
0000000000383ff4 W _ZNSt6__ndk112__hash_tableINS_17__hash_value_typeI12common_ngramNS_13unordered_mapIiiNS_4hashIiEENS_8equal_toIiEENS_9allocatorINS_4pairIKiiEEEEEEEENS_22__unordered_map_hasherIS2_SE_26common_ngram_hash_functionNS6_IS2_EELb1EEENS_21__unordered_map_equalIS2_SE_SH_SG_Lb1EEENS8_ISE_EEE15__emplace_multiIJRKNS9_IKS2_SD_EEEEENS_15__hash_iteratorIPNS_11__hash_nodeISE_PvEEEEDpOT_
000000000038ed88 W _ZNSt6__ndk112__hash_tableINS_17__hash_value_typeI12common_ngramNS_13unordered_mapIiiNS_4hashIiEENS_8equal_toIiEENS_9allocatorINS_4pairIKiiEEEEEEEENS_22__unordered_map_hasherIS2_SE_26common_ngram_hash_functionNS6_IS2_EELb1EEENS_21__unordered_map_equalIS2_SE_SH_SG_Lb1EEENS8_ISE_EEE25__emplace_unique_key_argsIS2_JRKNS9_IKS2_SD_EEEEENS9_INS_15__hash_iteratorIPNS_11__hash_nodeISE_PvEEEEbEERKT_DpOT0_
000000000033d398 W _ZNSt6__ndk112__hash_tableINS_17__hash_value_typeI12common_ngramNS_13unordered_mapIiiNS_4hashIiEENS_8equal_toIiEENS_9allocatorINS_4pairIKiiEEEEEEEENS_22__unordered_map_hasherIS2_SE_26common_ngram_hash_functionNS6_IS2_EELb1EEENS_21__unordered_map_equalIS2_SE_SH_SG_Lb1EEENS8_ISE_EEE25__emplace_unique_key_argsIS2_JRKS2_RSD_EEENS9_INS_15__hash_iteratorIPNS_11__hash_nodeISE_PvEEEEbEERKT_DpOT0_
000000000033c07c W _ZNSt6__ndk112__hash_tableINS_17__hash_value_typeI12common_ngramNS_13unordered_mapIiiNS_4hashIiEENS_8equal_toIiEENS_9allocatorINS_4pairIKiiEEEEEEEENS_22__unordered_map_hasherIS2_SE_26common_ngram_hash_functionNS6_IS2_EELb1EEENS_21__unordered_map_equalIS2_SE_SH_SG_Lb1EEENS8_ISE_EEE25__emplace_unique_key_argsIS2_JRS2_RSD_EEENS9_INS_15__hash_iteratorIPNS_11__hash_nodeISE_PvEEEEbEERKT_DpOT0_
000000000033ba00 W _ZNSt6__ndk112__hash_tableINS_17__hash_value_typeI12common_ngramNS_13unordered_mapIiiNS_4hashIiEENS_8equal_toIiEENS_9allocatorINS_4pairIKiiEEEEEEEENS_22__unordered_map_hasherIS2_SE_26common_ngram_hash_functionNS6_IS2_EELb1EEENS_21__unordered_map_equalIS2_SE_SH_SG_Lb1EEENS8_ISE_EEE4findIS2_EENS_15__hash_iteratorIPNS_11__hash_nodeISE_PvEEEERKT_
00000000003da158 W _ZNSt6__ndk112__hash_tableINS_17__hash_value_typeINS_10shared_ptrIN5jinja7value_tEEES5_EENS_22__unordered_map_hasherIS5_S6_NS3_12value_hasherENS3_17value_equivalenceELb1EEENS_21__unordered_map_equalIS5_S6_S9_S8_Lb1EEENS_9allocatorIS6_EEE11__do_rehashILb1EEEvm
00000000003d9c94 W _ZNSt6__ndk112__hash_tableINS_17__hash_value_typeINS_10shared_ptrIN5jinja7value_tEEES5_EENS_22__unordered_map_hasherIS5_S6_NS3_12value_hasherENS3_17value_equivalenceELb1EEENS_21__unordered_map_equalIS5_S6_S9_S8_Lb1EEENS_9allocatorIS6_EEE25__emplace_unique_key_argsIS5_JRKNS_21piecewise_construct_tENS_5tupleIJRKS5_EEENSK_IJEEEEEENS_4pairINS_15__hash_iteratorIPNS_11__hash_nodeIS6_PvEEEEbEERKT_DpOT0_
00000000003dc998 W _ZNSt6__ndk112__hash_tableINS_17__hash_value_typeINS_10shared_ptrIN5jinja7value_tEEES5_EENS_22__unordered_map_hasherIS5_S6_NS3_12value_hasherENS3_17value_equivalenceELb1EEENS_21__unordered_map_equalIS5_S6_S9_S8_Lb1EEENS_9allocatorIS6_EEE4findIS5_EENS_15__hash_iteratorIPNS_11__hash_nodeIS6_PvEEEERKT_
0000000000324bb8 W _ZNSt6__ndk112__hash_tableINS_17__hash_value_typeINS_12basic_stringIcNS_11char_traitsIcEENS_9allocatorIcEEEE11BuiltinRuleEENS_22__unordered_map_hasherIS7_S9_NS_4hashIS7_EENS_8equal_toIS7_EELb1EEENS_21__unordered_map_equalIS7_S9_SE_SC_Lb1EEENS5_IS9_EEE11__do_rehashILb1EEEvm
0000000000324640 W _ZNSt6__ndk112__hash_tableINS_17__hash_value_typeINS_12basic_stringIcNS_11char_traitsIcEENS_9allocatorIcEEEE11BuiltinRuleEENS_22__unordered_map_hasherIS7_S9_NS_4hashIS7_EENS_8equal_toIS7_EELb1EEENS_21__unordered_map_equalIS7_S9_SE_SC_Lb1EEENS5_IS9_EEE25__emplace_unique_key_argsIS7_JRKNS_4pairIKS7_S8_EEEEENSL_INS_15__hash_iteratorIPNS_11__hash_nodeIS9_PvEEEEbEERKT_DpOT0_
00000000003372f4 W _ZNSt6__ndk112__hash_tableINS_17__hash_value_typeINS_12basic_stringIcNS_11char_traitsIcEENS_9allocatorIcEEEE11BuiltinRuleEENS_22__unordered_map_hasherIS7_S9_NS_4hashIS7_EENS_8equal_toIS7_EELb1EEENS_21__unordered_map_equalIS7_S9_SE_SC_Lb1EEENS5_IS9_EEE4findIS7_EENS_15__hash_iteratorIPNS_11__hash_nodeIS9_PvEEEERKT_
000000000037b5cc W _ZNSt6__ndk112__hash_tableINS_17__hash_value_typeINS_12basic_stringIcNS_11char_traitsIcEENS_9allocatorIcEEEE19common_sampler_typeEENS_22__unordered_map_hasherIS7_S9_NS_4hashIS7_EENS_8equal_toIS7_EELb1EEENS_21__unordered_map_equalIS7_S9_SE_SC_Lb1EEENS5_IS9_EEE11__do_rehashILb1EEEvm
000000000037b774 W _ZNSt6__ndk112__hash_tableINS_17__hash_value_typeINS_12basic_stringIcNS_11char_traitsIcEENS_9allocatorIcEEEE19common_sampler_typeEENS_22__unordered_map_hasherIS7_S9_NS_4hashIS7_EENS_8equal_toIS7_EELb1EEENS_21__unordered_map_equalIS7_S9_SE_SC_Lb1EEENS5_IS9_EEE25__emplace_unique_key_argsIS7_JNS_4pairIKS7_S8_EEEEENSL_INS_15__hash_iteratorIPNS_11__hash_nodeIS9_PvEEEEbEERKT_DpOT0_
000000000037b114 W _ZNSt6__ndk112__hash_tableINS_17__hash_value_typeINS_12basic_stringIcNS_11char_traitsIcEENS_9allocatorIcEEEE19common_sampler_typeEENS_22__unordered_map_hasherIS7_S9_NS_4hashIS7_EENS_8equal_toIS7_EELb1EEENS_21__unordered_map_equalIS7_S9_SE_SC_Lb1EEENS5_IS9_EEE25__emplace_unique_key_argsIS7_JRKNS_4pairIKS7_S8_EEEEENSL_INS_15__hash_iteratorIPNS_11__hash_nodeIS9_PvEEEEbEERKT_DpOT0_
000000000037bbcc W _ZNSt6__ndk112__hash_tableINS_17__hash_value_typeINS_12basic_stringIcNS_11char_traitsIcEENS_9allocatorIcEEEE19common_sampler_typeEENS_22__unordered_map_hasherIS7_S9_NS_4hashIS7_EENS_8equal_toIS7_EELb1EEENS_21__unordered_map_equalIS7_S9_SE_SC_Lb1EEENS5_IS9_EEE26__node_handle_merge_uniqueB8ne210000ISJ_EEvRT_
0000000000324394 W _ZNSt6__ndk112__hash_tableINS_17__hash_value_typeINS_12basic_stringIcNS_11char_traitsIcEENS_9allocatorIcEEEEN8nlohmann16json_abi_v3_12_010basic_jsonINS9_11ordered_mapENS_6vectorES7_blmdS5_NS9_14adl_serializerENSC_IhNS5_IhEEEEvEEEENS_22__unordered_map_hasherIS7_SH_NS_4hashIS7_EENS_8equal_toIS7_EELb1EEENS_21__unordered_map_equalIS7_SH_SM_SK_Lb1EEENS5_ISH_EEE11__do_rehashILb1EEEvm
0000000000333a34 W _ZNSt6__ndk112__hash_tableINS_17__hash_value_typeINS_12basic_stringIcNS_11char_traitsIcEENS_9allocatorIcEEEEN8nlohmann16json_abi_v3_12_010basic_jsonINS9_11ordered_mapENS_6vectorES7_blmdS5_NS9_14adl_serializerENSC_IhNS5_IhEEEEvEEEENS_22__unordered_map_hasherIS7_SH_NS_4hashIS7_EENS_8equal_toIS7_EELb1EEENS_21__unordered_map_equalIS7_SH_SM_SK_Lb1EEENS5_ISH_EEE25__emplace_unique_key_argsIS7_JRKNS_21piecewise_construct_tENS_5tupleIJOS7_EEENSW_IJEEEEEENS_4pairINS_15__hash_iteratorIPNS_11__hash_nodeISH_PvEEEEbEERKT_DpOT0_
0000000000323ecc W _ZNSt6__ndk112__hash_tableINS_17__hash_value_typeINS_12basic_stringIcNS_11char_traitsIcEENS_9allocatorIcEEEEN8nlohmann16json_abi_v3_12_010basic_jsonINS9_11ordered_mapENS_6vectorES7_blmdS5_NS9_14adl_serializerENSC_IhNS5_IhEEEEvEEEENS_22__unordered_map_hasherIS7_SH_NS_4hashIS7_EENS_8equal_toIS7_EELb1EEENS_21__unordered_map_equalIS7_SH_SM_SK_Lb1EEENS5_ISH_EEE25__emplace_unique_key_argsIS7_JRKNS_21piecewise_construct_tENS_5tupleIJRKS7_EEENSW_IJEEEEEENS_4pairINS_15__hash_iteratorIPNS_11__hash_nodeISH_PvEEEEbEERKT_DpOT0_
0000000000323cec W _ZNSt6__ndk112__hash_tableINS_17__hash_value_typeINS_12basic_stringIcNS_11char_traitsIcEENS_9allocatorIcEEEEN8nlohmann16json_abi_v3_12_010basic_jsonINS9_11ordered_mapENS_6vectorES7_blmdS5_NS9_14adl_serializerENSC_IhNS5_IhEEEEvEEEENS_22__unordered_map_hasherIS7_SH_NS_4hashIS7_EENS_8equal_toIS7_EELb1EEENS_21__unordered_map_equalIS7_SH_SM_SK_Lb1EEENS5_ISH_EEE4findIS7_EENS_15__hash_iteratorIPNS_11__hash_nodeISH_PvEEEERKT_
000000000020c070 W _ZNSt6__ndk112__hash_tableINS_17__hash_value_typeINS_12basic_stringIcNS_11char_traitsIcEENS_9allocatorIcEEEENS_4pairIP10common_argbEEEENS_22__unordered_map_hasherIS7_SC_NS_4hashIS7_EENS_8equal_toIS7_EELb1EEENS_21__unordered_map_equalIS7_SC_SH_SF_Lb1EEENS5_ISC_EEE11__do_rehashILb1EEEvm
000000000020b790 W _ZNSt6__ndk112__hash_tableINS_17__hash_value_typeINS_12basic_stringIcNS_11char_traitsIcEENS_9allocatorIcEEEENS_4pairIP10common_argbEEEENS_22__unordered_map_hasherIS7_SC_NS_4hashIS7_EENS_8equal_toIS7_EELb1EEENS_21__unordered_map_equalIS7_SC_SH_SF_Lb1EEENS5_ISC_EEE25__emplace_unique_key_argsIS7_JRKNS_21piecewise_construct_tENS_5tupleIJOS7_EEENSR_IJEEEEEENS8_INS_15__hash_iteratorIPNS_11__hash_nodeISC_PvEEEEbEERKT_DpOT0_
000000000020c3f8 W _ZNSt6__ndk112__hash_tableINS_17__hash_value_typeINS_12basic_stringIcNS_11char_traitsIcEENS_9allocatorIcEEEENS_4pairIP10common_argbEEEENS_22__unordered_map_hasherIS7_SC_NS_4hashIS7_EENS_8equal_toIS7_EELb1EEENS_21__unordered_map_equalIS7_SC_SH_SF_Lb1EEENS5_ISC_EEE25__emplace_unique_key_argsIS7_JRKNS_21piecewise_construct_tENS_5tupleIJRKS7_EEENSR_IJEEEEEENS8_INS_15__hash_iteratorIPNS_11__hash_nodeISC_PvEEEEbEERKT_DpOT0_
000000000020c218 W _ZNSt6__ndk112__hash_tableINS_17__hash_value_typeINS_12basic_stringIcNS_11char_traitsIcEENS_9allocatorIcEEEENS_4pairIP10common_argbEEEENS_22__unordered_map_hasherIS7_SC_NS_4hashIS7_EENS_8equal_toIS7_EELb1EEENS_21__unordered_map_equalIS7_SC_SH_SF_Lb1EEENS5_ISC_EEE4findIS7_EENS_15__hash_iteratorIPNS_11__hash_nodeISC_PvEEEERKT_
000000000024194c W _ZNSt6__ndk112__hash_tableINS_17__hash_value_typeINS_12basic_stringIcNS_11char_traitsIcEENS_9allocatorIcEEEEP10common_argEENS_22__unordered_map_hasherIS7_SA_NS_4hashIS7_EENS_8equal_toIS7_EELb1EEENS_21__unordered_map_equalIS7_SA_SF_SD_Lb1EEENS5_ISA_EEE11__do_rehashILb1EEEvm
00000000002414bc W _ZNSt6__ndk112__hash_tableINS_17__hash_value_typeINS_12basic_stringIcNS_11char_traitsIcEENS_9allocatorIcEEEEP10common_argEENS_22__unordered_map_hasherIS7_SA_NS_4hashIS7_EENS_8equal_toIS7_EELb1EEENS_21__unordered_map_equalIS7_SA_SF_SD_Lb1EEENS5_ISA_EEE25__emplace_unique_key_argsIS7_JRKNS_21piecewise_construct_tENS_5tupleIJOS7_EEENSP_IJEEEEEENS_4pairINS_15__hash_iteratorIPNS_11__hash_nodeISA_PvEEEEbEERKT_DpOT0_
0000000000241cd4 W _ZNSt6__ndk112__hash_tableINS_17__hash_value_typeINS_12basic_stringIcNS_11char_traitsIcEENS_9allocatorIcEEEEP10common_argEENS_22__unordered_map_hasherIS7_SA_NS_4hashIS7_EENS_8equal_toIS7_EELb1EEENS_21__unordered_map_equalIS7_SA_SF_SD_Lb1EEENS5_ISA_EEE25__emplace_unique_key_argsIS7_JRKNS_21piecewise_construct_tENS_5tupleIJRKS7_EEENSP_IJEEEEEENS_4pairINS_15__hash_iteratorIPNS_11__hash_nodeISA_PvEEEEbEERKT_DpOT0_
0000000000241af4 W _ZNSt6__ndk112__hash_tableINS_17__hash_value_typeINS_12basic_stringIcNS_11char_traitsIcEENS_9allocatorIcEEEEP10common_argEENS_22__unordered_map_hasherIS7_SA_NS_4hashIS7_EENS_8equal_toIS7_EELb1EEENS_21__unordered_map_equalIS7_SA_SF_SD_Lb1EEENS5_ISA_EEE4findIS7_EENS_15__hash_iteratorIPNS_11__hash_nodeISA_PvEEEERKT_
000000000024112c W _ZNSt6__ndk112__hash_tableINS_17__hash_value_typeINS_12basic_stringIcNS_11char_traitsIcEENS_9allocatorIcEEEEP20common_download_taskEENS_22__unordered_map_hasherIS7_SA_NS_4hashIS7_EENS_8equal_toIS7_EELb1EEENS_21__unordered_map_equalIS7_SA_SF_SD_Lb1EEENS5_ISA_EEE11__do_rehashILb1EEEvm
0000000000240c74 W _ZNSt6__ndk112__hash_tableINS_17__hash_value_typeINS_12basic_stringIcNS_11char_traitsIcEENS_9allocatorIcEEEEP20common_download_taskEENS_22__unordered_map_hasherIS7_SA_NS_4hashIS7_EENS_8equal_toIS7_EELb1EEENS_21__unordered_map_equalIS7_SA_SF_SD_Lb1EEENS5_ISA_EEE25__emplace_unique_key_argsIS7_JRKNS_21piecewise_construct_tENS_5tupleIJRKS7_EEENSP_IJEEEEEENS_4pairINS_15__hash_iteratorIPNS_11__hash_nodeISA_PvEEEEbEERKT_DpOT0_
0000000000240a94 W _ZNSt6__ndk112__hash_tableINS_17__hash_value_typeINS_12basic_stringIcNS_11char_traitsIcEENS_9allocatorIcEEEEP20common_download_taskEENS_22__unordered_map_hasherIS7_SA_NS_4hashIS7_EENS_8equal_toIS7_EELb1EEENS_21__unordered_map_equalIS7_SA_SF_SD_Lb1EEENS5_ISA_EEE4findIS7_EENS_15__hash_iteratorIPNS_11__hash_nodeISA_PvEEEERKT_
00000000002f4384 W _ZNSt6__ndk112__hash_tableINS_17__hash_value_typeINS_12basic_stringIcNS_11char_traitsIcEENS_9allocatorIcEEEES7_EENS_22__unordered_map_hasherIS7_S8_N7httplib6detail11case_ignore4hashENSC_8equal_toELb1EEENS_21__unordered_map_equalIS7_S8_SE_SD_Lb1EEENS5_IS8_EEE11__do_rehashILb0EEEvm
0000000000464b8c W _ZNSt6__ndk112__hash_tableINS_17__hash_value_typeINS_12basic_stringIcNS_11char_traitsIcEENS_9allocatorIcEEEES7_EENS_22__unordered_map_hasherIS7_S8_N7httplib6detail11case_ignore4hashENSC_8equal_toELb1EEENS_21__unordered_map_equalIS7_S8_SE_SD_Lb1EEENS5_IS8_EEE13__erase_multiIS7_EEmRKT_
00000000004516d8 W _ZNSt6__ndk112__hash_tableINS_17__hash_value_typeINS_12basic_stringIcNS_11char_traitsIcEENS_9allocatorIcEEEES7_EENS_22__unordered_map_hasherIS7_S8_N7httplib6detail11case_ignore4hashENSC_8equal_toELb1EEENS_21__unordered_map_equalIS7_S8_SE_SD_Lb1EEENS5_IS8_EEE14__assign_multiINS_21__hash_const_iteratorIPNS_11__hash_nodeIS8_PvEEEEEEvT_SR_
000000000046473c W _ZNSt6__ndk112__hash_tableINS_17__hash_value_typeINS_12basic_stringIcNS_11char_traitsIcEENS_9allocatorIcEEEES7_EENS_22__unordered_map_hasherIS7_S8_N7httplib6detail11case_ignore4hashENSC_8equal_toELb1EEENS_21__unordered_map_equalIS7_S8_SE_SD_Lb1EEENS5_IS8_EEE15__emplace_multiIJRA13_KcRKS7_EEENS_15__hash_iteratorIPNS_11__hash_nodeIS8_PvEEEEDpOT_
000000000045198c W _ZNSt6__ndk112__hash_tableINS_17__hash_value_typeINS_12basic_stringIcNS_11char_traitsIcEENS_9allocatorIcEEEES7_EENS_22__unordered_map_hasherIS7_S8_N7httplib6detail11case_ignore4hashENSC_8equal_toELb1EEENS_21__unordered_map_equalIS7_S8_SE_SD_Lb1EEENS5_IS8_EEE15__emplace_multiIJRA14_KcRS7_EEENS_15__hash_iteratorIPNS_11__hash_nodeIS8_PvEEEEDpOT_
0000000000464120 W _ZNSt6__ndk112__hash_tableINS_17__hash_value_typeINS_12basic_stringIcNS_11char_traitsIcEENS_9allocatorIcEEEES7_EENS_22__unordered_map_hasherIS7_S8_N7httplib6detail11case_ignore4hashENSC_8equal_toELb1EEENS_21__unordered_map_equalIS7_S8_SE_SD_Lb1EEENS5_IS8_EEE15__emplace_multiIJRA5_KcRA10_SL_EEENS_15__hash_iteratorIPNS_11__hash_nodeIS8_PvEEEEDpOT_
00000000004644dc W _ZNSt6__ndk112__hash_tableINS_17__hash_value_typeINS_12basic_stringIcNS_11char_traitsIcEENS_9allocatorIcEEEES7_EENS_22__unordered_map_hasherIS7_S8_N7httplib6detail11case_ignore4hashENSC_8equal_toELb1EEENS_21__unordered_map_equalIS7_S8_SE_SD_Lb1EEENS5_IS8_EEE15__emplace_multiIJRA7_KcRA4_SL_EEENS_15__hash_iteratorIPNS_11__hash_nodeIS8_PvEEEEDpOT_
00000000002f61d4 W _ZNSt6__ndk112__hash_tableINS_17__hash_value_typeINS_12basic_stringIcNS_11char_traitsIcEENS_9allocatorIcEEEES7_EENS_22__unordered_map_hasherIS7_S8_N7httplib6detail11case_ignore4hashENSC_8equal_toELb1EEENS_21__unordered_map_equalIS7_S8_SE_SD_Lb1EEENS5_IS8_EEE16__construct_nodeIJRA11_KcS7_EEENS_10unique_ptrINS_11__hash_nodeIS8_PvEENS_22__hash_node_destructorINS5_ISR_EEEEEEDpOT_
00000000002f3ce0 W _ZNSt6__ndk112__hash_tableINS_17__hash_value_typeINS_12basic_stringIcNS_11char_traitsIcEENS_9allocatorIcEEEES7_EENS_22__unordered_map_hasherIS7_S8_N7httplib6detail11case_ignore4hashENSC_8equal_toELb1EEENS_21__unordered_map_equalIS7_S8_SE_SD_Lb1EEENS5_IS8_EEE16__construct_nodeIJRA14_KcS7_EEENS_10unique_ptrINS_11__hash_nodeIS8_PvEENS_22__hash_node_destructorINS5_ISR_EEEEEEDpOT_
0000000000464958 W _ZNSt6__ndk112__hash_tableINS_17__hash_value_typeINS_12basic_stringIcNS_11char_traitsIcEENS_9allocatorIcEEEES7_EENS_22__unordered_map_hasherIS7_S8_N7httplib6detail11case_ignore4hashENSC_8equal_toELb1EEENS_21__unordered_map_equalIS7_S8_SE_SD_Lb1EEENS5_IS8_EEE16__construct_nodeIJRA15_KcS7_EEENS_10unique_ptrINS_11__hash_nodeIS8_PvEENS_22__hash_node_destructorINS5_ISR_EEEEEEDpOT_
0000000000464380 W _ZNSt6__ndk112__hash_tableINS_17__hash_value_typeINS_12basic_stringIcNS_11char_traitsIcEENS_9allocatorIcEEEES7_EENS_22__unordered_map_hasherIS7_S8_N7httplib6detail11case_ignore4hashENSC_8equal_toELb1EEENS_21__unordered_map_equalIS7_S8_SE_SD_Lb1EEENS5_IS8_EEE16__construct_nodeIJRA5_KcS7_EEENS_10unique_ptrINS_11__hash_nodeIS8_PvEENS_22__hash_node_destructorINS5_ISR_EEEEEEDpOT_
00000000002f492c W _ZNSt6__ndk112__hash_tableINS_17__hash_value_typeINS_12basic_stringIcNS_11char_traitsIcEENS_9allocatorIcEEEES7_EENS_22__unordered_map_hasherIS7_S8_N7httplib6detail11case_ignore4hashENSC_8equal_toELb1EEENS_21__unordered_map_equalIS7_S8_SE_SD_Lb1EEENS5_IS8_EEE16__construct_nodeIJRA6_KcS7_EEENS_10unique_ptrINS_11__hash_nodeIS8_PvEENS_22__hash_node_destructorINS5_ISR_EEEEEEDpOT_
00000000002f4688 W _ZNSt6__ndk112__hash_tableINS_17__hash_value_typeINS_12basic_stringIcNS_11char_traitsIcEENS_9allocatorIcEEEES7_EENS_22__unordered_map_hasherIS7_S8_N7httplib6detail11case_ignore4hashENSC_8equal_toELb1EEENS_21__unordered_map_equalIS7_S8_SE_SD_Lb1EEENS5_IS8_EEE16__construct_nodeIJRKNS_4pairIKS7_S7_EEEEENS_10unique_ptrINS_11__hash_nodeIS8_PvEENS_22__hash_node_destructorINS5_IST_EEEEEEDpOT_
00000000002f5e84 W _ZNSt6__ndk112__hash_tableINS_17__hash_value_typeINS_12basic_stringIcNS_11char_traitsIcEENS_9allocatorIcEEEES7_EENS_22__unordered_map_hasherIS7_S8_N7httplib6detail11case_ignore4hashENSC_8equal_toELb1EEENS_21__unordered_map_equalIS7_S8_SE_SD_Lb1EEENS5_IS8_EEE16__construct_nodeIJRKS7_SM_EEENS_10unique_ptrINS_11__hash_nodeIS8_PvEENS_22__hash_node_destructorINS5_ISQ_EEEEEEDpOT_
00000000002f5fc0 W _ZNSt6__ndk112__hash_tableINS_17__hash_value_typeINS_12basic_stringIcNS_11char_traitsIcEENS_9allocatorIcEEEES7_EENS_22__unordered_map_hasherIS7_S8_N7httplib6detail11case_ignore4hashENSC_8equal_toELb1EEENS_21__unordered_map_equalIS7_S8_SE_SD_Lb1EEENS5_IS8_EEE4findIS7_EENS_15__hash_iteratorIPNS_11__hash_nodeIS8_PvEEEERKT_
00000000003314d4 W _ZNSt6__ndk112__hash_tableINS_17__hash_value_typeINS_12basic_stringIcNS_11char_traitsIcEENS_9allocatorIcEEEES7_EENS_22__unordered_map_hasherIS7_S8_NS_4hashIS7_EENS_8equal_toIS7_EELb1EEENS_21__unordered_map_equalIS7_S8_SD_SB_Lb1EEENS5_IS8_EEE11__do_rehashILb1EEEvm
0000000000450bf4 W _ZNSt6__ndk112__hash_tableINS_17__hash_value_typeINS_12basic_stringIcNS_11char_traitsIcEENS_9allocatorIcEEEES7_EENS_22__unordered_map_hasherIS7_S8_NS_4hashIS7_EENS_8equal_toIS7_EELb1EEENS_21__unordered_map_equalIS7_S8_SD_SB_Lb1EEENS5_IS8_EEE21__construct_node_hashIRKNS_4pairIKS7_S7_EEJEEENS_10unique_ptrINS_11__hash_nodeIS8_PvEENS_22__hash_node_destructorINS5_ISS_EEEEEEmOT_DpOT0_
0000000000331cd4 W _ZNSt6__ndk112__hash_tableINS_17__hash_value_typeINS_12basic_stringIcNS_11char_traitsIcEENS_9allocatorIcEEEES7_EENS_22__unordered_map_hasherIS7_S8_NS_4hashIS7_EENS_8equal_toIS7_EELb1EEENS_21__unordered_map_equalIS7_S8_SD_SB_Lb1EEENS5_IS8_EEE25__emplace_unique_key_argsIS7_JRKNS_21piecewise_construct_tENS_5tupleIJOS7_EEENSN_IJEEEEEENS_4pairINS_15__hash_iteratorIPNS_11__hash_nodeIS8_PvEEEEbEERKT_DpOT0_
0000000000331078 W _ZNSt6__ndk112__hash_tableINS_17__hash_value_typeINS_12basic_stringIcNS_11char_traitsIcEENS_9allocatorIcEEEES7_EENS_22__unordered_map_hasherIS7_S8_NS_4hashIS7_EENS_8equal_toIS7_EELb1EEENS_21__unordered_map_equalIS7_S8_SD_SB_Lb1EEENS5_IS8_EEE25__emplace_unique_key_argsIS7_JRKNS_21piecewise_construct_tENS_5tupleIJRKS7_EEENSN_IJEEEEEENS_4pairINS_15__hash_iteratorIPNS_11__hash_nodeIS8_PvEEEEbEERKT_DpOT0_
00000000004507e4 W _ZNSt6__ndk112__hash_tableINS_17__hash_value_typeINS_12basic_stringIcNS_11char_traitsIcEENS_9allocatorIcEEEES7_EENS_22__unordered_map_hasherIS7_S8_NS_4hashIS7_EENS_8equal_toIS7_EELb1EEENS_21__unordered_map_equalIS7_S8_SD_SB_Lb1EEENS5_IS8_EEE25__emplace_unique_key_argsIS7_JRKNS_4pairIKS7_S7_EEEEENSK_INS_15__hash_iteratorIPNS_11__hash_nodeIS8_PvEEEEbEERKT_DpOT0_
000000000045a24c W _ZNSt6__ndk112__hash_tableINS_17__hash_value_typeINS_12basic_stringIcNS_11char_traitsIcEENS_9allocatorIcEEEES7_EENS_22__unordered_map_hasherIS7_S8_NS_4hashIS7_EENS_8equal_toIS7_EELb1EEENS_21__unordered_map_equalIS7_S8_SD_SB_Lb1EEENS5_IS8_EEE25__emplace_unique_key_argsIS7_JRKS7_S7_EEENS_4pairINS_15__hash_iteratorIPNS_11__hash_nodeIS8_PvEEEEbEERKT_DpOT0_
00000000002ce2f0 W _ZNSt6__ndk112__hash_tableINS_17__hash_value_typeINS_12basic_stringIcNS_11char_traitsIcEENS_9allocatorIcEEEEmEENS_22__unordered_map_hasherIS7_S8_NS_4hashIS7_EENS_8equal_toIS7_EELb1EEENS_21__unordered_map_equalIS7_S8_SD_SB_Lb1EEENS5_IS8_EEE11__do_rehashILb1EEEvm
000000000035bcb4 W _ZNSt6__ndk112__hash_tableINS_17__hash_value_typeINS_12basic_stringIcNS_11char_traitsIcEENS_9allocatorIcEEEEmEENS_22__unordered_map_hasherIS7_S8_NS_4hashIS7_EENS_8equal_toIS7_EELb1EEENS_21__unordered_map_equalIS7_S8_SD_SB_Lb1EEENS5_IS8_EEE25__emplace_unique_key_argsIS7_JNS_4pairIKS7_mEEEEENSK_INS_15__hash_iteratorIPNS_11__hash_nodeIS8_PvEEEEbEERKT_DpOT0_
000000000035c908 W _ZNSt6__ndk112__hash_tableINS_17__hash_value_typeINS_12basic_stringIcNS_11char_traitsIcEENS_9allocatorIcEEEEmEENS_22__unordered_map_hasherIS7_S8_NS_4hashIS7_EENS_8equal_toIS7_EELb1EEENS_21__unordered_map_equalIS7_S8_SD_SB_Lb1EEENS5_IS8_EEE25__emplace_unique_key_argsIS7_JRKNS_21piecewise_construct_tENS_5tupleIJRKS7_EEENSN_IJEEEEEENS_4pairINS_15__hash_iteratorIPNS_11__hash_nodeIS8_PvEEEEbEERKT_DpOT0_
00000000002ce498 W _ZNSt6__ndk112__hash_tableINS_17__hash_value_typeINS_12basic_stringIcNS_11char_traitsIcEENS_9allocatorIcEEEEmEENS_22__unordered_map_hasherIS7_S8_NS_4hashIS7_EENS_8equal_toIS7_EELb1EEENS_21__unordered_map_equalIS7_S8_SD_SB_Lb1EEENS5_IS8_EEE25__emplace_unique_key_argsIS7_JRKNS_4pairIKS7_mEEEEENSK_INS_15__hash_iteratorIPNS_11__hash_nodeIS8_PvEEEEbEERKT_DpOT0_
000000000037ddb8 W _ZNSt6__ndk112__hash_tableINS_17__hash_value_typeIc19common_sampler_typeEENS_22__unordered_map_hasherIcS3_NS_4hashIcEENS_8equal_toIcEELb1EEENS_21__unordered_map_equalIcS3_S8_S6_Lb1EEENS_9allocatorIS3_EEE11__do_rehashILb1EEEvm
000000000037daac W _ZNSt6__ndk112__hash_tableINS_17__hash_value_typeIc19common_sampler_typeEENS_22__unordered_map_hasherIcS3_NS_4hashIcEENS_8equal_toIcEELb1EEENS_21__unordered_map_equalIcS3_S8_S6_Lb1EEENS_9allocatorIS3_EEE25__emplace_unique_key_argsIcJRKNS_4pairIKcS2_EEEEENSG_INS_15__hash_iteratorIPNS_11__hash_nodeIS3_PvEEEEbEERKT_DpOT0_
00000000003252b0 W _ZNSt6__ndk112__hash_tableINS_17__hash_value_typeIcNS_12basic_stringIcNS_11char_traitsIcEENS_9allocatorIcEEEEEENS_22__unordered_map_hasherIcS8_NS_4hashIcEENS_8equal_toIcEELb1EEENS_21__unordered_map_equalIcS8_SD_SB_Lb1EEENS5_IS8_EEE11__do_rehashILb1EEEvm
0000000000324ea0 W _ZNSt6__ndk112__hash_tableINS_17__hash_value_typeIcNS_12basic_stringIcNS_11char_traitsIcEENS_9allocatorIcEEEEEENS_22__unordered_map_hasherIcS8_NS_4hashIcEENS_8equal_toIcEELb1EEENS_21__unordered_map_equalIcS8_SD_SB_Lb1EEENS5_IS8_EEE25__emplace_unique_key_argsIcJRKNS_4pairIKcS7_EEEEENSK_INS_15__hash_iteratorIPNS_11__hash_nodeIS8_PvEEEEbEERKT_DpOT0_
000000000033ce98 W _ZNSt6__ndk112__hash_tableINS_17__hash_value_typeIiiEENS_22__unordered_map_hasherIiS2_NS_4hashIiEENS_8equal_toIiEELb1EEENS_21__unordered_map_equalIiS2_S7_S5_Lb1EEENS_9allocatorIS2_EEE11__do_rehashILb0EEEvm
000000000033bed4 W _ZNSt6__ndk112__hash_tableINS_17__hash_value_typeIiiEENS_22__unordered_map_hasherIiS2_NS_4hashIiEENS_8equal_toIiEELb1EEENS_21__unordered_map_equalIiS2_S7_S5_Lb1EEENS_9allocatorIS2_EEE11__do_rehashILb1EEEvm
000000000033c9c8 W _ZNSt6__ndk112__hash_tableINS_17__hash_value_typeIiiEENS_22__unordered_map_hasherIiS2_NS_4hashIiEENS_8equal_toIiEELb1EEENS_21__unordered_map_equalIiS2_S7_S5_Lb1EEENS_9allocatorIS2_EEE14__assign_multiINS_21__hash_const_iteratorIPNS_11__hash_nodeIS2_PvEEEEEEvT_SL_
000000000033c6a0 W _ZNSt6__ndk112__hash_tableINS_17__hash_value_typeIiiEENS_22__unordered_map_hasherIiS2_NS_4hashIiEENS_8equal_toIiEELb1EEENS_21__unordered_map_equalIiS2_S7_S5_Lb1EEENS_9allocatorIS2_EEE25__emplace_unique_key_argsIiJRKNS_4pairIKiiEEEEENSF_INS_15__hash_iteratorIPNS_11__hash_nodeIS2_PvEEEEbEERKT_DpOT0_
000000000033d79c W _ZNSt6__ndk112__hash_tableINS_17__hash_value_typeIiiEENS_22__unordered_map_hasherIiS2_NS_4hashIiEENS_8equal_toIiEELb1EEENS_21__unordered_map_equalIiS2_S7_S5_Lb1EEENS_9allocatorIS2_EEE25__emplace_unique_key_argsIiJRKiSG_EEENS_4pairINS_15__hash_iteratorIPNS_11__hash_nodeIS2_PvEEEEbEERKT_DpOT0_
000000000033bbb0 W _ZNSt6__ndk112__hash_tableINS_17__hash_value_typeIiiEENS_22__unordered_map_hasherIiS2_NS_4hashIiEENS_8equal_toIiEELb1EEENS_21__unordered_map_equalIiS2_S7_S5_Lb1EEENS_9allocatorIS2_EEE25__emplace_unique_key_argsIiJRKiiEEENS_4pairINS_15__hash_iteratorIPNS_11__hash_nodeIS2_PvEEEEbEERKT_DpOT0_
000000000033d074 W _ZNSt6__ndk112__hash_tableINS_17__hash_value_typeIiiEENS_22__unordered_map_hasherIiS2_NS_4hashIiEENS_8equal_toIiEELb1EEENS_21__unordered_map_equalIiS2_S7_S5_Lb1EEENS_9allocatorIS2_EEE25__emplace_unique_key_argsIiJRiSF_EEENS_4pairINS_15__hash_iteratorIPNS_11__hash_nodeIS2_PvEEEEbEERKT_DpOT0_
00000000003257bc W _ZNSt6__ndk112__hash_tableIcNS_4hashIcEENS_8equal_toIcEENS_9allocatorIcEEE11__do_rehashILb1EEEvm
00000000003254b0 W _ZNSt6__ndk112__hash_tableIcNS_4hashIcEENS_8equal_toIcEENS_9allocatorIcEEE25__emplace_unique_key_argsIcJRKcEEENS_4pairINS_15__hash_iteratorIPNS_11__hash_nodeIcPvEEEEbEERKT_DpOT0_
000000000022ac10 W _ZNSt6__ndk112__match_charIcED0Ev
0000000000210770 W _ZNSt6__ndk112basic_stringIcNS_11char_traitsIcEENS_9allocatorIcEEE20__init_with_sentinelB8ne210000INS_19istreambuf_iteratorIcS2_EES8_EEvT_T0_
000000000023ea18 W _ZNSt6__ndk112basic_stringIcNS_11char_traitsIcEENS_9allocatorIcEEE25__init_copy_ctor_externalEPKcm
0000000000322128 W _ZNSt6__ndk112basic_stringIcNS_11char_traitsIcEENS_9allocatorIcEEE6appendB8ne210000INS_11__wrap_iterIPKcEETnNS_9enable_ifIXsr31__has_forward_iterator_categoryIT_EE5valueEiE4typeELi0EEERS5_SC_SC_
000000000023c330 W _ZNSt6__ndk112basic_stringIcNS_11char_traitsIcEENS_9allocatorIcEEE6appendB8ne210000IPKcTnNS_9enable_ifIXsr31__has_forward_iterator_categoryIT_EE5valueEiE4typeELi0EEERS5_SA_SA_
00000000001c6c24 W _ZNSt6__ndk112basic_stringIcNS_11char_traitsIcEENS_9allocatorIcEEEC2B8ne210000ILi0EEEPKc
00000000002818f8 W _ZNSt6__ndk112basic_stringIcNS_11char_traitsIcEENS_9allocatorIcEEEC2INS_17basic_string_viewIcS2_EETnNS_9enable_ifIXaasr33__can_be_converted_to_string_viewIcS2_T_EE5valuentsr17__is_same_uncvrefISA_S5_EE5valueEiE4typeELi0EEERKSA_
0000000000227718 W _ZNSt6__ndk113__empty_stateIcED0Ev
000000000022fee4 W _ZNSt6__ndk113match_resultsINS_11__wrap_iterIPKcEENS_9allocatorINS_9sub_matchIS4_EEEEE8__assignB8ne210000IS3_NS5_INS6_IS3_EEEEEEvS4_S4_RKNS0_IT_T0_EEb
00000000003dcb44 W _ZNSt6__ndk114__split_bufferINS_10shared_ptrIN5jinja7value_tEEERNS_9allocatorIS4_EEE12emplace_backIJRKS4_EEEvDpOT_
000000000035a778 W _ZNSt6__ndk114__split_bufferINS_12basic_stringIcNS_11char_traitsIcEENS_9allocatorIcEEEERNS4_IS6_EEE12emplace_backIJS6_EEEvDpOT_
00000000002315cc W _ZNSt6__ndk114__split_bufferIPNS_7__stateIcEENS_9allocatorIS3_EEE12emplace_backIJRS3_EEEvDpOT_
000000000023174c W _ZNSt6__ndk114__split_bufferIPNS_7__stateIcEENS_9allocatorIS3_EEE12emplace_backIJS3_EEEvDpOT_
0000000000231e74 W _ZNSt6__ndk114__split_bufferIPNS_7__stateIcEENS_9allocatorIS3_EEE13emplace_frontIJRS3_EEEvDpOT_
00000000002318cc W _ZNSt6__ndk114__split_bufferIPNS_7__stateIcEENS_9allocatorIS3_EEE13emplace_frontIJS3_EEEvDpOT_
0000000000364ad8 W _ZNSt6__ndk114__split_bufferIPmNS_9allocatorIS1_EEE12emplace_backIJRS1_EEEvDpOT_
0000000000364c58 W _ZNSt6__ndk114__split_bufferIPmNS_9allocatorIS1_EEE12emplace_backIJS1_EEEvDpOT_
0000000000364dd8 W _ZNSt6__ndk114__split_bufferIPmNS_9allocatorIS1_EEE13emplace_frontIJS1_EEEvDpOT_
0000000000210720 W _ZNSt6__ndk114basic_ifstreamIcNS_11char_traitsIcEEED1Ev
00000000002f48dc W _ZNSt6__ndk114basic_ofstreamIcNS_11char_traitsIcEEED1Ev
000000000022fa7c W _ZNSt6__ndk114regex_iteratorINS_11__wrap_iterIPKcEEcNS_12regex_traitsIcEEEC2ES4_S4_RKNS_11basic_regexIcS6_EENS_15regex_constants15match_flag_typeE
0000000000232f28 W _ZNSt6__ndk114regex_iteratorINS_11__wrap_iterIPKcEEcNS_12regex_traitsIcEEEppEv
00000000002287e0 W _ZNSt6__ndk115__word_boundaryIcNS_12regex_traitsIcEEED0Ev
0000000000228784 W _ZNSt6__ndk115__word_boundaryIcNS_12regex_traitsIcEEED2Ev
000000000022ad00 W _ZNSt6__ndk116__back_ref_icaseIcNS_12regex_traitsIcEEED0Ev
000000000022aca4 W _ZNSt6__ndk116__back_ref_icaseIcNS_12regex_traitsIcEEED2Ev
0000000000227778 W _ZNSt6__ndk116__owns_one_stateIcED0Ev
000000000022f57c W _ZNSt6__ndk116__owns_one_stateIcED2Ev
000000000034a6a8 W _ZNSt6__ndk116__variant_detail12__visitation6__base12__dispatcherIJLm0EEE10__dispatchB8ne210000IONS1_9__variant15__value_visitorIR15parser_executorEEJRKNS0_6__baseILNS0_6_TraitE1EJ25common_peg_epsilon_parser23common_peg_start_parser21common_peg_end_parser25common_peg_literal_parser26common_peg_sequence_parser24common_peg_choice_parser28common_peg_repetition_parser21common_peg_and_parser21common_peg_not_parser21common_peg_any_parser23common_peg_space_parser23common_peg_chars_parser24common_peg_string_parser23common_peg_until_parser24common_peg_schema_parser22common_peg_rule_parser21common_peg_ref_parser24common_peg_atomic_parser21common_peg_tag_parser22common_peg_gbnf_parser20common_peg_ac_parserEEEEEEDcT_DpT0_
000000000035c6b0 W _ZNSt6__ndk116__variant_detail12__visitation6__base12__dispatcherIJLm0EEE10__dispatchB8ne210000IOZNS0_6__ctorINS0_8__traitsIJ25common_peg_epsilon_parser23common_peg_start_parser21common_peg_end_parser25common_peg_literal_parser26common_peg_sequence_parser24common_peg_choice_parser28common_peg_repetition_parser21common_peg_and_parser21common_peg_not_parser21common_peg_any_parser23common_peg_space_parser23common_peg_chars_parser24common_peg_string_parser23common_peg_until_parser24common_peg_schema_parser22common_peg_rule_parser21common_peg_ref_parser24common_peg_atomic_parser21common_peg_tag_parser22common_peg_gbnf_parser20common_peg_ac_parserEEEE19__generic_constructB8ne210000INS0_18__move_constructorIST_LNS0_6_TraitE1EEEEEvRSU_OT_EUlS11_E_JONS0_6__baseILSX_1EJS8_S9_SA_SB_SC_SD_SE_SF_SG_SH_SI_SJ_SK_SL_SM_SN_SO_SP_SQ_SR_SS_EEEEEEDcS10_DpT0_
00000000002b7b6c W _ZNSt6__ndk116__variant_detail12__visitation6__base12__dispatcherIJLm0EEE10__dispatchB8ne210000IOZNS0_6__ctorINS0_8__traitsIJ25common_peg_epsilon_parser23common_peg_start_parser21common_peg_end_parser25common_peg_literal_parser26common_peg_sequence_parser24common_peg_choice_parser28common_peg_repetition_parser21common_peg_and_parser21common_peg_not_parser21common_peg_any_parser23common_peg_space_parser23common_peg_chars_parser24common_peg_string_parser23common_peg_until_parser24common_peg_schema_parser22common_peg_rule_parser21common_peg_ref_parser24common_peg_atomic_parser21common_peg_tag_parser22common_peg_gbnf_parser20common_peg_ac_parserEEEE19__generic_constructB8ne210000IRKNS0_18__copy_constructorIST_LNS0_6_TraitE1EEEEEvRSU_OT_EUlS13_E_JRKNS0_6__baseILSX_1EJS8_S9_SA_SB_SC_SD_SE_SF_SG_SH_SI_SJ_SK_SL_SM_SN_SO_SP_SQ_SR_SS_EEEEEEDcS12_DpT0_
000000000034a918 W _ZNSt6__ndk116__variant_detail12__visitation6__base12__dispatcherIJLm10EEE10__dispatchB8ne210000IONS1_9__variant15__value_visitorIR15parser_executorEEJRKNS0_6__baseILNS0_6_TraitE1EJ25common_peg_epsilon_parser23common_peg_start_parser21common_peg_end_parser25common_peg_literal_parser26common_peg_sequence_parser24common_peg_choice_parser28common_peg_repetition_parser21common_peg_and_parser21common_peg_not_parser21common_peg_any_parser23common_peg_space_parser23common_peg_chars_parser24common_peg_string_parser23common_peg_until_parser24common_peg_schema_parser22common_peg_rule_parser21common_peg_ref_parser24common_peg_atomic_parser21common_peg_tag_parser22common_peg_gbnf_parser20common_peg_ac_parserEEEEEEDcT_DpT0_
000000000035c760 W _ZNSt6__ndk116__variant_detail12__visitation6__base12__dispatcherIJLm10EEE10__dispatchB8ne210000IOZNS0_6__ctorINS0_8__traitsIJ25common_peg_epsilon_parser23common_peg_start_parser21common_peg_end_parser25common_peg_literal_parser26common_peg_sequence_parser24common_peg_choice_parser28common_peg_repetition_parser21common_peg_and_parser21common_peg_not_parser21common_peg_any_parser23common_peg_space_parser23common_peg_chars_parser24common_peg_string_parser23common_peg_until_parser24common_peg_schema_parser22common_peg_rule_parser21common_peg_ref_parser24common_peg_atomic_parser21common_peg_tag_parser22common_peg_gbnf_parser20common_peg_ac_parserEEEE19__generic_constructB8ne210000INS0_18__move_constructorIST_LNS0_6_TraitE1EEEEEvRSU_OT_EUlS11_E_JONS0_6__baseILSX_1EJS8_S9_SA_SB_SC_SD_SE_SF_SG_SH_SI_SJ_SK_SL_SM_SN_SO_SP_SQ_SR_SS_EEEEEEDcS10_DpT0_
00000000002b7cf0 W _ZNSt6__ndk116__variant_detail12__visitation6__base12__dispatcherIJLm10EEE10__dispatchB8ne210000IOZNS0_6__ctorINS0_8__traitsIJ25common_peg_epsilon_parser23common_peg_start_parser21common_peg_end_parser25common_peg_literal_parser26common_peg_sequence_parser24common_peg_choice_parser28common_peg_repetition_parser21common_peg_and_parser21common_peg_not_parser21common_peg_any_parser23common_peg_space_parser23common_peg_chars_parser24common_peg_string_parser23common_peg_until_parser24common_peg_schema_parser22common_peg_rule_parser21common_peg_ref_parser24common_peg_atomic_parser21common_peg_tag_parser22common_peg_gbnf_parser20common_peg_ac_parserEEEE19__generic_constructB8ne210000IRKNS0_18__copy_constructorIST_LNS0_6_TraitE1EEEEEvRSU_OT_EUlS13_E_JRKNS0_6__baseILSX_1EJS8_S9_SA_SB_SC_SD_SE_SF_SG_SH_SI_SJ_SK_SL_SM_SN_SO_SP_SQ_SR_SS_EEEEEEDcS12_DpT0_
000000000034a9ac W _ZNSt6__ndk116__variant_detail12__visitation6__base12__dispatcherIJLm11EEE10__dispatchB8ne210000IONS1_9__variant15__value_visitorIR15parser_executorEEJRKNS0_6__baseILNS0_6_TraitE1EJ25common_peg_epsilon_parser23common_peg_start_parser21common_peg_end_parser25common_peg_literal_parser26common_peg_sequence_parser24common_peg_choice_parser28common_peg_repetition_parser21common_peg_and_parser21common_peg_not_parser21common_peg_any_parser23common_peg_space_parser23common_peg_chars_parser24common_peg_string_parser23common_peg_until_parser24common_peg_schema_parser22common_peg_rule_parser21common_peg_ref_parser24common_peg_atomic_parser21common_peg_tag_parser22common_peg_gbnf_parser20common_peg_ac_parserEEEEEEDcT_DpT0_
000000000035c764 W _ZNSt6__ndk116__variant_detail12__visitation6__base12__dispatcherIJLm11EEE10__dispatchB8ne210000IOZNS0_6__ctorINS0_8__traitsIJ25common_peg_epsilon_parser23common_peg_start_parser21common_peg_end_parser25common_peg_literal_parser26common_peg_sequence_parser24common_peg_choice_parser28common_peg_repetition_parser21common_peg_and_parser21common_peg_not_parser21common_peg_any_parser23common_peg_space_parser23common_peg_chars_parser24common_peg_string_parser23common_peg_until_parser24common_peg_schema_parser22common_peg_rule_parser21common_peg_ref_parser24common_peg_atomic_parser21common_peg_tag_parser22common_peg_gbnf_parser20common_peg_ac_parserEEEE19__generic_constructB8ne210000INS0_18__move_constructorIST_LNS0_6_TraitE1EEEEEvRSU_OT_EUlS11_E_JONS0_6__baseILSX_1EJS8_S9_SA_SB_SC_SD_SE_SF_SG_SH_SI_SJ_SK_SL_SM_SN_SO_SP_SQ_SR_SS_EEEEEEDcS10_DpT0_
00000000002b7cf4 W _ZNSt6__ndk116__variant_detail12__visitation6__base12__dispatcherIJLm11EEE10__dispatchB8ne210000IOZNS0_6__ctorINS0_8__traitsIJ25common_peg_epsilon_parser23common_peg_start_parser21common_peg_end_parser25common_peg_literal_parser26common_peg_sequence_parser24common_peg_choice_parser28common_peg_repetition_parser21common_peg_and_parser21common_peg_not_parser21common_peg_any_parser23common_peg_space_parser23common_peg_chars_parser24common_peg_string_parser23common_peg_until_parser24common_peg_schema_parser22common_peg_rule_parser21common_peg_ref_parser24common_peg_atomic_parser21common_peg_tag_parser22common_peg_gbnf_parser20common_peg_ac_parserEEEE19__generic_constructB8ne210000IRKNS0_18__copy_constructorIST_LNS0_6_TraitE1EEEEEvRSU_OT_EUlS13_E_JRKNS0_6__baseILSX_1EJS8_S9_SA_SB_SC_SD_SE_SF_SG_SH_SI_SJ_SK_SL_SM_SN_SO_SP_SQ_SR_SS_EEEEEEDcS12_DpT0_
000000000034a9b4 W _ZNSt6__ndk116__variant_detail12__visitation6__base12__dispatcherIJLm12EEE10__dispatchB8ne210000IONS1_9__variant15__value_visitorIR15parser_executorEEJRKNS0_6__baseILNS0_6_TraitE1EJ25common_peg_epsilon_parser23common_peg_start_parser21common_peg_end_parser25common_peg_literal_parser26common_peg_sequence_parser24common_peg_choice_parser28common_peg_repetition_parser21common_peg_and_parser21common_peg_not_parser21common_peg_any_parser23common_peg_space_parser23common_peg_chars_parser24common_peg_string_parser23common_peg_until_parser24common_peg_schema_parser22common_peg_rule_parser21common_peg_ref_parser24common_peg_atomic_parser21common_peg_tag_parser22common_peg_gbnf_parser20common_peg_ac_parserEEEEEEDcT_DpT0_
000000000035c7b4 W _ZNSt6__ndk116__variant_detail12__visitation6__base12__dispatcherIJLm12EEE10__dispatchB8ne210000IOZNS0_6__ctorINS0_8__traitsIJ25common_peg_epsilon_parser23common_peg_start_parser21common_peg_end_parser25common_peg_literal_parser26common_peg_sequence_parser24common_peg_choice_parser28common_peg_repetition_parser21common_peg_and_parser21common_peg_not_parser21common_peg_any_parser23common_peg_space_parser23common_peg_chars_parser24common_peg_string_parser23common_peg_until_parser24common_peg_schema_parser22common_peg_rule_parser21common_peg_ref_parser24common_peg_atomic_parser21common_peg_tag_parser22common_peg_gbnf_parser20common_peg_ac_parserEEEE19__generic_constructB8ne210000INS0_18__move_constructorIST_LNS0_6_TraitE1EEEEEvRSU_OT_EUlS11_E_JONS0_6__baseILSX_1EJS8_S9_SA_SB_SC_SD_SE_SF_SG_SH_SI_SJ_SK_SL_SM_SN_SO_SP_SQ_SR_SS_EEEEEEDcS10_DpT0_
00000000002b7cfc W _ZNSt6__ndk116__variant_detail12__visitation6__base12__dispatcherIJLm12EEE10__dispatchB8ne210000IOZNS0_6__ctorINS0_8__traitsIJ25common_peg_epsilon_parser23common_peg_start_parser21common_peg_end_parser25common_peg_literal_parser26common_peg_sequence_parser24common_peg_choice_parser28common_peg_repetition_parser21common_peg_and_parser21common_peg_not_parser21common_peg_any_parser23common_peg_space_parser23common_peg_chars_parser24common_peg_string_parser23common_peg_until_parser24common_peg_schema_parser22common_peg_rule_parser21common_peg_ref_parser24common_peg_atomic_parser21common_peg_tag_parser22common_peg_gbnf_parser20common_peg_ac_parserEEEE19__generic_constructB8ne210000IRKNS0_18__copy_constructorIST_LNS0_6_TraitE1EEEEEvRSU_OT_EUlS13_E_JRKNS0_6__baseILSX_1EJS8_S9_SA_SB_SC_SD_SE_SF_SG_SH_SI_SJ_SK_SL_SM_SN_SO_SP_SQ_SR_SS_EEEEEEDcS12_DpT0_
000000000034a9bc W _ZNSt6__ndk116__variant_detail12__visitation6__base12__dispatcherIJLm13EEE10__dispatchB8ne210000IONS1_9__variant15__value_visitorIR15parser_executorEEJRKNS0_6__baseILNS0_6_TraitE1EJ25common_peg_epsilon_parser23common_peg_start_parser21common_peg_end_parser25common_peg_literal_parser26common_peg_sequence_parser24common_peg_choice_parser28common_peg_repetition_parser21common_peg_and_parser21common_peg_not_parser21common_peg_any_parser23common_peg_space_parser23common_peg_chars_parser24common_peg_string_parser23common_peg_until_parser24common_peg_schema_parser22common_peg_rule_parser21common_peg_ref_parser24common_peg_atomic_parser21common_peg_tag_parser22common_peg_gbnf_parser20common_peg_ac_parserEEEEEEDcT_DpT0_
000000000035c7c4 W _ZNSt6__ndk116__variant_detail12__visitation6__base12__dispatcherIJLm13EEE10__dispatchB8ne210000IOZNS0_6__ctorINS0_8__traitsIJ25common_peg_epsilon_parser23common_peg_start_parser21common_peg_end_parser25common_peg_literal_parser26common_peg_sequence_parser24common_peg_choice_parser28common_peg_repetition_parser21common_peg_and_parser21common_peg_not_parser21common_peg_any_parser23common_peg_space_parser23common_peg_chars_parser24common_peg_string_parser23common_peg_until_parser24common_peg_schema_parser22common_peg_rule_parser21common_peg_ref_parser24common_peg_atomic_parser21common_peg_tag_parser22common_peg_gbnf_parser20common_peg_ac_parserEEEE19__generic_constructB8ne210000INS0_18__move_constructorIST_LNS0_6_TraitE1EEEEEvRSU_OT_EUlS11_E_JONS0_6__baseILSX_1EJS8_S9_SA_SB_SC_SD_SE_SF_SG_SH_SI_SJ_SK_SL_SM_SN_SO_SP_SQ_SR_SS_EEEEEEDcS10_DpT0_
00000000002b7d0c W _ZNSt6__ndk116__variant_detail12__visitation6__base12__dispatcherIJLm13EEE10__dispatchB8ne210000IOZNS0_6__ctorINS0_8__traitsIJ25common_peg_epsilon_parser23common_peg_start_parser21common_peg_end_parser25common_peg_literal_parser26common_peg_sequence_parser24common_peg_choice_parser28common_peg_repetition_parser21common_peg_and_parser21common_peg_not_parser21common_peg_any_parser23common_peg_space_parser23common_peg_chars_parser24common_peg_string_parser23common_peg_until_parser24common_peg_schema_parser22common_peg_rule_parser21common_peg_ref_parser24common_peg_atomic_parser21common_peg_tag_parser22common_peg_gbnf_parser20common_peg_ac_parserEEEE19__generic_constructB8ne210000IRKNS0_18__copy_constructorIST_LNS0_6_TraitE1EEEEEvRSU_OT_EUlS13_E_JRKNS0_6__baseILSX_1EJS8_S9_SA_SB_SC_SD_SE_SF_SG_SH_SI_SJ_SK_SL_SM_SN_SO_SP_SQ_SR_SS_EEEEEEDcS12_DpT0_
000000000034a9c4 W _ZNSt6__ndk116__variant_detail12__visitation6__base12__dispatcherIJLm14EEE10__dispatchB8ne210000IONS1_9__variant15__value_visitorIR15parser_executorEEJRKNS0_6__baseILNS0_6_TraitE1EJ25common_peg_epsilon_parser23common_peg_start_parser21common_peg_end_parser25common_peg_literal_parser26common_peg_sequence_parser24common_peg_choice_parser28common_peg_repetition_parser21common_peg_and_parser21common_peg_not_parser21common_peg_any_parser23common_peg_space_parser23common_peg_chars_parser24common_peg_string_parser23common_peg_until_parser24common_peg_schema_parser22common_peg_rule_parser21common_peg_ref_parser24common_peg_atomic_parser21common_peg_tag_parser22common_peg_gbnf_parser20common_peg_ac_parserEEEEEEDcT_DpT0_
000000000035c7ec W _ZNSt6__ndk116__variant_detail12__visitation6__base12__dispatcherIJLm14EEE10__dispatchB8ne210000IOZNS0_6__ctorINS0_8__traitsIJ25common_peg_epsilon_parser23common_peg_start_parser21common_peg_end_parser25common_peg_literal_parser26common_peg_sequence_parser24common_peg_choice_parser28common_peg_repetition_parser21common_peg_and_parser21common_peg_not_parser21common_peg_any_parser23common_peg_space_parser23common_peg_chars_parser24common_peg_string_parser23common_peg_until_parser24common_peg_schema_parser22common_peg_rule_parser21common_peg_ref_parser24common_peg_atomic_parser21common_peg_tag_parser22common_peg_gbnf_parser20common_peg_ac_parserEEEE19__generic_constructB8ne210000INS0_18__move_constructorIST_LNS0_6_TraitE1EEEEEvRSU_OT_EUlS11_E_JONS0_6__baseILSX_1EJS8_S9_SA_SB_SC_SD_SE_SF_SG_SH_SI_SJ_SK_SL_SM_SN_SO_SP_SQ_SR_SS_EEEEEEDcS10_DpT0_
00000000002b7d38 W _ZNSt6__ndk116__variant_detail12__visitation6__base12__dispatcherIJLm14EEE10__dispatchB8ne210000IOZNS0_6__ctorINS0_8__traitsIJ25common_peg_epsilon_parser23common_peg_start_parser21common_peg_end_parser25common_peg_literal_parser26common_peg_sequence_parser24common_peg_choice_parser28common_peg_repetition_parser21common_peg_and_parser21common_peg_not_parser21common_peg_any_parser23common_peg_space_parser23common_peg_chars_parser24common_peg_string_parser23common_peg_until_parser24common_peg_schema_parser22common_peg_rule_parser21common_peg_ref_parser24common_peg_atomic_parser21common_peg_tag_parser22common_peg_gbnf_parser20common_peg_ac_parserEEEE19__generic_constructB8ne210000IRKNS0_18__copy_constructorIST_LNS0_6_TraitE1EEEEEvRSU_OT_EUlS13_E_JRKNS0_6__baseILSX_1EJS8_S9_SA_SB_SC_SD_SE_SF_SG_SH_SI_SJ_SK_SL_SM_SN_SO_SP_SQ_SR_SS_EEEEEEDcS12_DpT0_
000000000034aa9c W _ZNSt6__ndk116__variant_detail12__visitation6__base12__dispatcherIJLm15EEE10__dispatchB8ne210000IONS1_9__variant15__value_visitorIR15parser_executorEEJRKNS0_6__baseILNS0_6_TraitE1EJ25common_peg_epsilon_parser23common_peg_start_parser21common_peg_end_parser25common_peg_literal_parser26common_peg_sequence_parser24common_peg_choice_parser28common_peg_repetition_parser21common_peg_and_parser21common_peg_not_parser21common_peg_any_parser23common_peg_space_parser23common_peg_chars_parser24common_peg_string_parser23common_peg_until_parser24common_peg_schema_parser22common_peg_rule_parser21common_peg_ref_parser24common_peg_atomic_parser21common_peg_tag_parser22common_peg_gbnf_parser20common_peg_ac_parserEEEEEEDcT_DpT0_
000000000035c828 W _ZNSt6__ndk116__variant_detail12__visitation6__base12__dispatcherIJLm15EEE10__dispatchB8ne210000IOZNS0_6__ctorINS0_8__traitsIJ25common_peg_epsilon_parser23common_peg_start_parser21common_peg_end_parser25common_peg_literal_parser26common_peg_sequence_parser24common_peg_choice_parser28common_peg_repetition_parser21common_peg_and_parser21common_peg_not_parser21common_peg_any_parser23common_peg_space_parser23common_peg_chars_parser24common_peg_string_parser23common_peg_until_parser24common_peg_schema_parser22common_peg_rule_parser21common_peg_ref_parser24common_peg_atomic_parser21common_peg_tag_parser22common_peg_gbnf_parser20common_peg_ac_parserEEEE19__generic_constructB8ne210000INS0_18__move_constructorIST_LNS0_6_TraitE1EEEEEvRSU_OT_EUlS11_E_JONS0_6__baseILSX_1EJS8_S9_SA_SB_SC_SD_SE_SF_SG_SH_SI_SJ_SK_SL_SM_SN_SO_SP_SQ_SR_SS_EEEEEEDcS10_DpT0_
00000000002b7dc0 W _ZNSt6__ndk116__variant_detail12__visitation6__base12__dispatcherIJLm15EEE10__dispatchB8ne210000IOZNS0_6__ctorINS0_8__traitsIJ25common_peg_epsilon_parser23common_peg_start_parser21common_peg_end_parser25common_peg_literal_parser26common_peg_sequence_parser24common_peg_choice_parser28common_peg_repetition_parser21common_peg_and_parser21common_peg_not_parser21common_peg_any_parser23common_peg_space_parser23common_peg_chars_parser24common_peg_string_parser23common_peg_until_parser24common_peg_schema_parser22common_peg_rule_parser21common_peg_ref_parser24common_peg_atomic_parser21common_peg_tag_parser22common_peg_gbnf_parser20common_peg_ac_parserEEEE19__generic_constructB8ne210000IRKNS0_18__copy_constructorIST_LNS0_6_TraitE1EEEEEvRSU_OT_EUlS13_E_JRKNS0_6__baseILSX_1EJS8_S9_SA_SB_SC_SD_SE_SF_SG_SH_SI_SJ_SK_SL_SM_SN_SO_SP_SQ_SR_SS_EEEEEEDcS12_DpT0_
000000000034aaa4 W _ZNSt6__ndk116__variant_detail12__visitation6__base12__dispatcherIJLm16EEE10__dispatchB8ne210000IONS1_9__variant15__value_visitorIR15parser_executorEEJRKNS0_6__baseILNS0_6_TraitE1EJ25common_peg_epsilon_parser23common_peg_start_parser21common_peg_end_parser25common_peg_literal_parser26common_peg_sequence_parser24common_peg_choice_parser28common_peg_repetition_parser21common_peg_and_parser21common_peg_not_parser21common_peg_any_parser23common_peg_space_parser23common_peg_chars_parser24common_peg_string_parser23common_peg_until_parser24common_peg_schema_parser22common_peg_rule_parser21common_peg_ref_parser24common_peg_atomic_parser21common_peg_tag_parser22common_peg_gbnf_parser20common_peg_ac_parserEEEEEEDcT_DpT0_
000000000035c858 W _ZNSt6__ndk116__variant_detail12__visitation6__base12__dispatcherIJLm16EEE10__dispatchB8ne210000IOZNS0_6__ctorINS0_8__traitsIJ25common_peg_epsilon_parser23common_peg_start_parser21common_peg_end_parser25common_peg_literal_parser26common_peg_sequence_parser24common_peg_choice_parser28common_peg_repetition_parser21common_peg_and_parser21common_peg_not_parser21common_peg_any_parser23common_peg_space_parser23common_peg_chars_parser24common_peg_string_parser23common_peg_until_parser24common_peg_schema_parser22common_peg_rule_parser21common_peg_ref_parser24common_peg_atomic_parser21common_peg_tag_parser22common_peg_gbnf_parser20common_peg_ac_parserEEEE19__generic_constructB8ne210000INS0_18__move_constructorIST_LNS0_6_TraitE1EEEEEvRSU_OT_EUlS11_E_JONS0_6__baseILSX_1EJS8_S9_SA_SB_SC_SD_SE_SF_SG_SH_SI_SJ_SK_SL_SM_SN_SO_SP_SQ_SR_SS_EEEEEEDcS10_DpT0_
00000000002b7e18 W _ZNSt6__ndk116__variant_detail12__visitation6__base12__dispatcherIJLm16EEE10__dispatchB8ne210000IOZNS0_6__ctorINS0_8__traitsIJ25common_peg_epsilon_parser23common_peg_start_parser21common_peg_end_parser25common_peg_literal_parser26common_peg_sequence_parser24common_peg_choice_parser28common_peg_repetition_parser21common_peg_and_parser21common_peg_not_parser21common_peg_any_parser23common_peg_space_parser23common_peg_chars_parser24common_peg_string_parser23common_peg_until_parser24common_peg_schema_parser22common_peg_rule_parser21common_peg_ref_parser24common_peg_atomic_parser21common_peg_tag_parser22common_peg_gbnf_parser20common_peg_ac_parserEEEE19__generic_constructB8ne210000IRKNS0_18__copy_constructorIST_LNS0_6_TraitE1EEEEEvRSU_OT_EUlS13_E_JRKNS0_6__baseILSX_1EJS8_S9_SA_SB_SC_SD_SE_SF_SG_SH_SI_SJ_SK_SL_SM_SN_SO_SP_SQ_SR_SS_EEEEEEDcS12_DpT0_
000000000034ab90 W _ZNSt6__ndk116__variant_detail12__visitation6__base12__dispatcherIJLm17EEE10__dispatchB8ne210000IONS1_9__variant15__value_visitorIR15parser_executorEEJRKNS0_6__baseILNS0_6_TraitE1EJ25common_peg_epsilon_parser23common_peg_start_parser21common_peg_end_parser25common_peg_literal_parser26common_peg_sequence_parser24common_peg_choice_parser28common_peg_repetition_parser21common_peg_and_parser21common_peg_not_parser21common_peg_any_parser23common_peg_space_parser23common_peg_chars_parser24common_peg_string_parser23common_peg_until_parser24common_peg_schema_parser22common_peg_rule_parser21common_peg_ref_parser24common_peg_atomic_parser21common_peg_tag_parser22common_peg_gbnf_parser20common_peg_ac_parserEEEEEEDcT_DpT0_
000000000035c878 W _ZNSt6__ndk116__variant_detail12__visitation6__base12__dispatcherIJLm17EEE10__dispatchB8ne210000IOZNS0_6__ctorINS0_8__traitsIJ25common_peg_epsilon_parser23common_peg_start_parser21common_peg_end_parser25common_peg_literal_parser26common_peg_sequence_parser24common_peg_choice_parser28common_peg_repetition_parser21common_peg_and_parser21common_peg_not_parser21common_peg_any_parser23common_peg_space_parser23common_peg_chars_parser24common_peg_string_parser23common_peg_until_parser24common_peg_schema_parser22common_peg_rule_parser21common_peg_ref_parser24common_peg_atomic_parser21common_peg_tag_parser22common_peg_gbnf_parser20common_peg_ac_parserEEEE19__generic_constructB8ne210000INS0_18__move_constructorIST_LNS0_6_TraitE1EEEEEvRSU_OT_EUlS11_E_JONS0_6__baseILSX_1EJS8_S9_SA_SB_SC_SD_SE_SF_SG_SH_SI_SJ_SK_SL_SM_SN_SO_SP_SQ_SR_SS_EEEEEEDcS10_DpT0_
00000000002b7e44 W _ZNSt6__ndk116__variant_detail12__visitation6__base12__dispatcherIJLm17EEE10__dispatchB8ne210000IOZNS0_6__ctorINS0_8__traitsIJ25common_peg_epsilon_parser23common_peg_start_parser21common_peg_end_parser25common_peg_literal_parser26common_peg_sequence_parser24common_peg_choice_parser28common_peg_repetition_parser21common_peg_and_parser21common_peg_not_parser21common_peg_any_parser23common_peg_space_parser23common_peg_chars_parser24common_peg_string_parser23common_peg_until_parser24common_peg_schema_parser22common_peg_rule_parser21common_peg_ref_parser24common_peg_atomic_parser21common_peg_tag_parser22common_peg_gbnf_parser20common_peg_ac_parserEEEE19__generic_constructB8ne210000IRKNS0_18__copy_constructorIST_LNS0_6_TraitE1EEEEEvRSU_OT_EUlS13_E_JRKNS0_6__baseILSX_1EJS8_S9_SA_SB_SC_SD_SE_SF_SG_SH_SI_SJ_SK_SL_SM_SN_SO_SP_SQ_SR_SS_EEEEEEDcS12_DpT0_
000000000034ac84 W _ZNSt6__ndk116__variant_detail12__visitation6__base12__dispatcherIJLm18EEE10__dispatchB8ne210000IONS1_9__variant15__value_visitorIR15parser_executorEEJRKNS0_6__baseILNS0_6_TraitE1EJ25common_peg_epsilon_parser23common_peg_start_parser21common_peg_end_parser25common_peg_literal_parser26common_peg_sequence_parser24common_peg_choice_parser28common_peg_repetition_parser21common_peg_and_parser21common_peg_not_parser21common_peg_any_parser23common_peg_space_parser23common_peg_chars_parser24common_peg_string_parser23common_peg_until_parser24common_peg_schema_parser22common_peg_rule_parser21common_peg_ref_parser24common_peg_atomic_parser21common_peg_tag_parser22common_peg_gbnf_parser20common_peg_ac_parserEEEEEEDcT_DpT0_
000000000035c888 W _ZNSt6__ndk116__variant_detail12__visitation6__base12__dispatcherIJLm18EEE10__dispatchB8ne210000IOZNS0_6__ctorINS0_8__traitsIJ25common_peg_epsilon_parser23common_peg_start_parser21common_peg_end_parser25common_peg_literal_parser26common_peg_sequence_parser24common_peg_choice_parser28common_peg_repetition_parser21common_peg_and_parser21common_peg_not_parser21common_peg_any_parser23common_peg_space_parser23common_peg_chars_parser24common_peg_string_parser23common_peg_until_parser24common_peg_schema_parser22common_peg_rule_parser21common_peg_ref_parser24common_peg_atomic_parser21common_peg_tag_parser22common_peg_gbnf_parser20common_peg_ac_parserEEEE19__generic_constructB8ne210000INS0_18__move_constructorIST_LNS0_6_TraitE1EEEEEvRSU_OT_EUlS11_E_JONS0_6__baseILSX_1EJS8_S9_SA_SB_SC_SD_SE_SF_SG_SH_SI_SJ_SK_SL_SM_SN_SO_SP_SQ_SR_SS_EEEEEEDcS10_DpT0_
00000000002b7e54 W _ZNSt6__ndk116__variant_detail12__visitation6__base12__dispatcherIJLm18EEE10__dispatchB8ne210000IOZNS0_6__ctorINS0_8__traitsIJ25common_peg_epsilon_parser23common_peg_start_parser21common_peg_end_parser25common_peg_literal_parser26common_peg_sequence_parser24common_peg_choice_parser28common_peg_repetition_parser21common_peg_and_parser21common_peg_not_parser21common_peg_any_parser23common_peg_space_parser23common_peg_chars_parser24common_peg_string_parser23common_peg_until_parser24common_peg_schema_parser22common_peg_rule_parser21common_peg_ref_parser24common_peg_atomic_parser21common_peg_tag_parser22common_peg_gbnf_parser20common_peg_ac_parserEEEE19__generic_constructB8ne210000IRKNS0_18__copy_constructorIST_LNS0_6_TraitE1EEEEEvRSU_OT_EUlS13_E_JRKNS0_6__baseILSX_1EJS8_S9_SA_SB_SC_SD_SE_SF_SG_SH_SI_SJ_SK_SL_SM_SN_SO_SP_SQ_SR_SS_EEEEEEDcS12_DpT0_
000000000034ac8c W _ZNSt6__ndk116__variant_detail12__visitation6__base12__dispatcherIJLm19EEE10__dispatchB8ne210000IONS1_9__variant15__value_visitorIR15parser_executorEEJRKNS0_6__baseILNS0_6_TraitE1EJ25common_peg_epsilon_parser23common_peg_start_parser21common_peg_end_parser25common_peg_literal_parser26common_peg_sequence_parser24common_peg_choice_parser28common_peg_repetition_parser21common_peg_and_parser21common_peg_not_parser21common_peg_any_parser23common_peg_space_parser23common_peg_chars_parser24common_peg_string_parser23common_peg_until_parser24common_peg_schema_parser22common_peg_rule_parser21common_peg_ref_parser24common_peg_atomic_parser21common_peg_tag_parser22common_peg_gbnf_parser20common_peg_ac_parserEEEEEEDcT_DpT0_
000000000035c8b0 W _ZNSt6__ndk116__variant_detail12__visitation6__base12__dispatcherIJLm19EEE10__dispatchB8ne210000IOZNS0_6__ctorINS0_8__traitsIJ25common_peg_epsilon_parser23common_peg_start_parser21common_peg_end_parser25common_peg_literal_parser26common_peg_sequence_parser24common_peg_choice_parser28common_peg_repetition_parser21common_peg_and_parser21common_peg_not_parser21common_peg_any_parser23common_peg_space_parser23common_peg_chars_parser24common_peg_string_parser23common_peg_until_parser24common_peg_schema_parser22common_peg_rule_parser21common_peg_ref_parser24common_peg_atomic_parser21common_peg_tag_parser22common_peg_gbnf_parser20common_peg_ac_parserEEEE19__generic_constructB8ne210000INS0_18__move_constructorIST_LNS0_6_TraitE1EEEEEvRSU_OT_EUlS11_E_JONS0_6__baseILSX_1EJS8_S9_SA_SB_SC_SD_SE_SF_SG_SH_SI_SJ_SK_SL_SM_SN_SO_SP_SQ_SR_SS_EEEEEEDcS10_DpT0_
00000000002b7e8c W _ZNSt6__ndk116__variant_detail12__visitation6__base12__dispatcherIJLm19EEE10__dispatchB8ne210000IOZNS0_6__ctorINS0_8__traitsIJ25common_peg_epsilon_parser23common_peg_start_parser21common_peg_end_parser25common_peg_literal_parser26common_peg_sequence_parser24common_peg_choice_parser28common_peg_repetition_parser21common_peg_and_parser21common_peg_not_parser21common_peg_any_parser23common_peg_space_parser23common_peg_chars_parser24common_peg_string_parser23common_peg_until_parser24common_peg_schema_parser22common_peg_rule_parser21common_peg_ref_parser24common_peg_atomic_parser21common_peg_tag_parser22common_peg_gbnf_parser20common_peg_ac_parserEEEE19__generic_constructB8ne210000IRKNS0_18__copy_constructorIST_LNS0_6_TraitE1EEEEEvRSU_OT_EUlS13_E_JRKNS0_6__baseILSX_1EJS8_S9_SA_SB_SC_SD_SE_SF_SG_SH_SI_SJ_SK_SL_SM_SN_SO_SP_SQ_SR_SS_EEEEEEDcS12_DpT0_
000000000034a6c8 W _ZNSt6__ndk116__variant_detail12__visitation6__base12__dispatcherIJLm1EEE10__dispatchB8ne210000IONS1_9__variant15__value_visitorIR15parser_executorEEJRKNS0_6__baseILNS0_6_TraitE1EJ25common_peg_epsilon_parser23common_peg_start_parser21common_peg_end_parser25common_peg_literal_parser26common_peg_sequence_parser24common_peg_choice_parser28common_peg_repetition_parser21common_peg_and_parser21common_peg_not_parser21common_peg_any_parser23common_peg_space_parser23common_peg_chars_parser24common_peg_string_parser23common_peg_until_parser24common_peg_schema_parser22common_peg_rule_parser21common_peg_ref_parser24common_peg_atomic_parser21common_peg_tag_parser22common_peg_gbnf_parser20common_peg_ac_parserEEEEEEDcT_DpT0_
000000000035c6b4 W _ZNSt6__ndk116__variant_detail12__visitation6__base12__dispatcherIJLm1EEE10__dispatchB8ne210000IOZNS0_6__ctorINS0_8__traitsIJ25common_peg_epsilon_parser23common_peg_start_parser21common_peg_end_parser25common_peg_literal_parser26common_peg_sequence_parser24common_peg_choice_parser28common_peg_repetition_parser21common_peg_and_parser21common_peg_not_parser21common_peg_any_parser23common_peg_space_parser23common_peg_chars_parser24common_peg_string_parser23common_peg_until_parser24common_peg_schema_parser22common_peg_rule_parser21common_peg_ref_parser24common_peg_atomic_parser21common_peg_tag_parser22common_peg_gbnf_parser20common_peg_ac_parserEEEE19__generic_constructB8ne210000INS0_18__move_constructorIST_LNS0_6_TraitE1EEEEEvRSU_OT_EUlS11_E_JONS0_6__baseILSX_1EJS8_S9_SA_SB_SC_SD_SE_SF_SG_SH_SI_SJ_SK_SL_SM_SN_SO_SP_SQ_SR_SS_EEEEEEDcS10_DpT0_
00000000002b7b70 W _ZNSt6__ndk116__variant_detail12__visitation6__base12__dispatcherIJLm1EEE10__dispatchB8ne210000IOZNS0_6__ctorINS0_8__traitsIJ25common_peg_epsilon_parser23common_peg_start_parser21common_peg_end_parser25common_peg_literal_parser26common_peg_sequence_parser24common_peg_choice_parser28common_peg_repetition_parser21common_peg_and_parser21common_peg_not_parser21common_peg_any_parser23common_peg_space_parser23common_peg_chars_parser24common_peg_string_parser23common_peg_until_parser24common_peg_schema_parser22common_peg_rule_parser21common_peg_ref_parser24common_peg_atomic_parser21common_peg_tag_parser22common_peg_gbnf_parser20common_peg_ac_parserEEEE19__generic_constructB8ne210000IRKNS0_18__copy_constructorIST_LNS0_6_TraitE1EEEEEvRSU_OT_EUlS13_E_JRKNS0_6__baseILSX_1EJS8_S9_SA_SB_SC_SD_SE_SF_SG_SH_SI_SJ_SK_SL_SM_SN_SO_SP_SQ_SR_SS_EEEEEEDcS12_DpT0_
000000000034ad64 W _ZNSt6__ndk116__variant_detail12__visitation6__base12__dispatcherIJLm20EEE10__dispatchB8ne210000IONS1_9__variant15__value_visitorIR15parser_executorEEJRKNS0_6__baseILNS0_6_TraitE1EJ25common_peg_epsilon_parser23common_peg_start_parser21common_peg_end_parser25common_peg_literal_parser26common_peg_sequence_parser24common_peg_choice_parser28common_peg_repetition_parser21common_peg_and_parser21common_peg_not_parser21common_peg_any_parser23common_peg_space_parser23common_peg_chars_parser24common_peg_string_parser23common_peg_until_parser24common_peg_schema_parser22common_peg_rule_parser21common_peg_ref_parser24common_peg_atomic_parser21common_peg_tag_parser22common_peg_gbnf_parser20common_peg_ac_parserEEEEEEDcT_DpT0_
000000000035c8d8 W _ZNSt6__ndk116__variant_detail12__visitation6__base12__dispatcherIJLm20EEE10__dispatchB8ne210000IOZNS0_6__ctorINS0_8__traitsIJ25common_peg_epsilon_parser23common_peg_start_parser21common_peg_end_parser25common_peg_literal_parser26common_peg_sequence_parser24common_peg_choice_parser28common_peg_repetition_parser21common_peg_and_parser21common_peg_not_parser21common_peg_any_parser23common_peg_space_parser23common_peg_chars_parser24common_peg_string_parser23common_peg_until_parser24common_peg_schema_parser22common_peg_rule_parser21common_peg_ref_parser24common_peg_atomic_parser21common_peg_tag_parser22common_peg_gbnf_parser20common_peg_ac_parserEEEE19__generic_constructB8ne210000INS0_18__move_constructorIST_LNS0_6_TraitE1EEEEEvRSU_OT_EUlS11_E_JONS0_6__baseILSX_1EJS8_S9_SA_SB_SC_SD_SE_SF_SG_SH_SI_SJ_SK_SL_SM_SN_SO_SP_SQ_SR_SS_EEEEEEDcS10_DpT0_
00000000002b7ec4 W _ZNSt6__ndk116__variant_detail12__visitation6__base12__dispatcherIJLm20EEE10__dispatchB8ne210000IOZNS0_6__ctorINS0_8__traitsIJ25common_peg_epsilon_parser23common_peg_start_parser21common_peg_end_parser25common_peg_literal_parser26common_peg_sequence_parser24common_peg_choice_parser28common_peg_repetition_parser21common_peg_and_parser21common_peg_not_parser21common_peg_any_parser23common_peg_space_parser23common_peg_chars_parser24common_peg_string_parser23common_peg_until_parser24common_peg_schema_parser22common_peg_rule_parser21common_peg_ref_parser24common_peg_atomic_parser21common_peg_tag_parser22common_peg_gbnf_parser20common_peg_ac_parserEEEE19__generic_constructB8ne210000IRKNS0_18__copy_constructorIST_LNS0_6_TraitE1EEEEEvRSU_OT_EUlS13_E_JRKNS0_6__baseILSX_1EJS8_S9_SA_SB_SC_SD_SE_SF_SG_SH_SI_SJ_SK_SL_SM_SN_SO_SP_SQ_SR_SS_EEEEEEDcS12_DpT0_
000000000034a6ec W _ZNSt6__ndk116__variant_detail12__visitation6__base12__dispatcherIJLm2EEE10__dispatchB8ne210000IONS1_9__variant15__value_visitorIR15parser_executorEEJRKNS0_6__baseILNS0_6_TraitE1EJ25common_peg_epsilon_parser23common_peg_start_parser21common_peg_end_parser25common_peg_literal_parser26common_peg_sequence_parser24common_peg_choice_parser28common_peg_repetition_parser21common_peg_and_parser21common_peg_not_parser21common_peg_any_parser23common_peg_space_parser23common_peg_chars_parser24common_peg_string_parser23common_peg_until_parser24common_peg_schema_parser22common_peg_rule_parser21common_peg_ref_parser24common_peg_atomic_parser21common_peg_tag_parser22common_peg_gbnf_parser20common_peg_ac_parserEEEEEEDcT_DpT0_
000000000035c6b8 W _ZNSt6__ndk116__variant_detail12__visitation6__base12__dispatcherIJLm2EEE10__dispatchB8ne210000IOZNS0_6__ctorINS0_8__traitsIJ25common_peg_epsilon_parser23common_peg_start_parser21common_peg_end_parser25common_peg_literal_parser26common_peg_sequence_parser24common_peg_choice_parser28common_peg_repetition_parser21common_peg_and_parser21common_peg_not_parser21common_peg_any_parser23common_peg_space_parser23common_peg_chars_parser24common_peg_string_parser23common_peg_until_parser24common_peg_schema_parser22common_peg_rule_parser21common_peg_ref_parser24common_peg_atomic_parser21common_peg_tag_parser22common_peg_gbnf_parser20common_peg_ac_parserEEEE19__generic_constructB8ne210000INS0_18__move_constructorIST_LNS0_6_TraitE1EEEEEvRSU_OT_EUlS11_E_JONS0_6__baseILSX_1EJS8_S9_SA_SB_SC_SD_SE_SF_SG_SH_SI_SJ_SK_SL_SM_SN_SO_SP_SQ_SR_SS_EEEEEEDcS10_DpT0_
00000000002b7b74 W _ZNSt6__ndk116__variant_detail12__visitation6__base12__dispatcherIJLm2EEE10__dispatchB8ne210000IOZNS0_6__ctorINS0_8__traitsIJ25common_peg_epsilon_parser23common_peg_start_parser21common_peg_end_parser25common_peg_literal_parser26common_peg_sequence_parser24common_peg_choice_parser28common_peg_repetition_parser21common_peg_and_parser21common_peg_not_parser21common_peg_any_parser23common_peg_space_parser23common_peg_chars_parser24common_peg_string_parser23common_peg_until_parser24common_peg_schema_parser22common_peg_rule_parser21common_peg_ref_parser24common_peg_atomic_parser21common_peg_tag_parser22common_peg_gbnf_parser20common_peg_ac_parserEEEE19__generic_constructB8ne210000IRKNS0_18__copy_constructorIST_LNS0_6_TraitE1EEEEEvRSU_OT_EUlS13_E_JRKNS0_6__baseILSX_1EJS8_S9_SA_SB_SC_SD_SE_SF_SG_SH_SI_SJ_SK_SL_SM_SN_SO_SP_SQ_SR_SS_EEEEEEDcS12_DpT0_
000000000034a724 W _ZNSt6__ndk116__variant_detail12__visitation6__base12__dispatcherIJLm3EEE10__dispatchB8ne210000IONS1_9__variant15__value_visitorIR15parser_executorEEJRKNS0_6__baseILNS0_6_TraitE1EJ25common_peg_epsilon_parser23common_peg_start_parser21common_peg_end_parser25common_peg_literal_parser26common_peg_sequence_parser24common_peg_choice_parser28common_peg_repetition_parser21common_peg_and_parser21common_peg_not_parser21common_peg_any_parser23common_peg_space_parser23common_peg_chars_parser24common_peg_string_parser23common_peg_until_parser24common_peg_schema_parser22common_peg_rule_parser21common_peg_ref_parser24common_peg_atomic_parser21common_peg_tag_parser22common_peg_gbnf_parser20common_peg_ac_parserEEEEEEDcT_DpT0_
000000000035c6bc W _ZNSt6__ndk116__variant_detail12__visitation6__base12__dispatcherIJLm3EEE10__dispatchB8ne210000IOZNS0_6__ctorINS0_8__traitsIJ25common_peg_epsilon_parser23common_peg_start_parser21common_peg_end_parser25common_peg_literal_parser26common_peg_sequence_parser24common_peg_choice_parser28common_peg_repetition_parser21common_peg_and_parser21common_peg_not_parser21common_peg_any_parser23common_peg_space_parser23common_peg_chars_parser24common_peg_string_parser23common_peg_until_parser24common_peg_schema_parser22common_peg_rule_parser21common_peg_ref_parser24common_peg_atomic_parser21common_peg_tag_parser22common_peg_gbnf_parser20common_peg_ac_parserEEEE19__generic_constructB8ne210000INS0_18__move_constructorIST_LNS0_6_TraitE1EEEEEvRSU_OT_EUlS11_E_JONS0_6__baseILSX_1EJS8_S9_SA_SB_SC_SD_SE_SF_SG_SH_SI_SJ_SK_SL_SM_SN_SO_SP_SQ_SR_SS_EEEEEEDcS10_DpT0_
00000000002b7b78 W _ZNSt6__ndk116__variant_detail12__visitation6__base12__dispatcherIJLm3EEE10__dispatchB8ne210000IOZNS0_6__ctorINS0_8__traitsIJ25common_peg_epsilon_parser23common_peg_start_parser21common_peg_end_parser25common_peg_literal_parser26common_peg_sequence_parser24common_peg_choice_parser28common_peg_repetition_parser21common_peg_and_parser21common_peg_not_parser21common_peg_any_parser23common_peg_space_parser23common_peg_chars_parser24common_peg_string_parser23common_peg_until_parser24common_peg_schema_parser22common_peg_rule_parser21common_peg_ref_parser24common_peg_atomic_parser21common_peg_tag_parser22common_peg_gbnf_parser20common_peg_ac_parserEEEE19__generic_constructB8ne210000IRKNS0_18__copy_constructorIST_LNS0_6_TraitE1EEEEEvRSU_OT_EUlS13_E_JRKNS0_6__baseILSX_1EJS8_S9_SA_SB_SC_SD_SE_SF_SG_SH_SI_SJ_SK_SL_SM_SN_SO_SP_SQ_SR_SS_EEEEEEDcS12_DpT0_
000000000034a80c W _ZNSt6__ndk116__variant_detail12__visitation6__base12__dispatcherIJLm4EEE10__dispatchB8ne210000IONS1_9__variant15__value_visitorIR15parser_executorEEJRKNS0_6__baseILNS0_6_TraitE1EJ25common_peg_epsilon_parser23common_peg_start_parser21common_peg_end_parser25common_peg_literal_parser26common_peg_sequence_parser24common_peg_choice_parser28common_peg_repetition_parser21common_peg_and_parser21common_peg_not_parser21common_peg_any_parser23common_peg_space_parser23common_peg_chars_parser24common_peg_string_parser23common_peg_until_parser24common_peg_schema_parser22common_peg_rule_parser21common_peg_ref_parser24common_peg_atomic_parser21common_peg_tag_parser22common_peg_gbnf_parser20common_peg_ac_parserEEEEEEDcT_DpT0_
000000000035c6dc W _ZNSt6__ndk116__variant_detail12__visitation6__base12__dispatcherIJLm4EEE10__dispatchB8ne210000IOZNS0_6__ctorINS0_8__traitsIJ25common_peg_epsilon_parser23common_peg_start_parser21common_peg_end_parser25common_peg_literal_parser26common_peg_sequence_parser24common_peg_choice_parser28common_peg_repetition_parser21common_peg_and_parser21common_peg_not_parser21common_peg_any_parser23common_peg_space_parser23common_peg_chars_parser24common_peg_string_parser23common_peg_until_parser24common_peg_schema_parser22common_peg_rule_parser21common_peg_ref_parser24common_peg_atomic_parser21common_peg_tag_parser22common_peg_gbnf_parser20common_peg_ac_parserEEEE19__generic_constructB8ne210000INS0_18__move_constructorIST_LNS0_6_TraitE1EEEEEvRSU_OT_EUlS11_E_JONS0_6__baseILSX_1EJS8_S9_SA_SB_SC_SD_SE_SF_SG_SH_SI_SJ_SK_SL_SM_SN_SO_SP_SQ_SR_SS_EEEEEEDcS10_DpT0_
00000000002b7ba4 W _ZNSt6__ndk116__variant_detail12__visitation6__base12__dispatcherIJLm4EEE10__dispatchB8ne210000IOZNS0_6__ctorINS0_8__traitsIJ25common_peg_epsilon_parser23common_peg_start_parser21common_peg_end_parser25common_peg_literal_parser26common_peg_sequence_parser24common_peg_choice_parser28common_peg_repetition_parser21common_peg_and_parser21common_peg_not_parser21common_peg_any_parser23common_peg_space_parser23common_peg_chars_parser24common_peg_string_parser23common_peg_until_parser24common_peg_schema_parser22common_peg_rule_parser21common_peg_ref_parser24common_peg_atomic_parser21common_peg_tag_parser22common_peg_gbnf_parser20common_peg_ac_parserEEEE19__generic_constructB8ne210000IRKNS0_18__copy_constructorIST_LNS0_6_TraitE1EEEEEvRSU_OT_EUlS13_E_JRKNS0_6__baseILSX_1EJS8_S9_SA_SB_SC_SD_SE_SF_SG_SH_SI_SJ_SK_SL_SM_SN_SO_SP_SQ_SR_SS_EEEEEEDcS12_DpT0_
000000000034a814 W _ZNSt6__ndk116__variant_detail12__visitation6__base12__dispatcherIJLm5EEE10__dispatchB8ne210000IONS1_9__variant15__value_visitorIR15parser_executorEEJRKNS0_6__baseILNS0_6_TraitE1EJ25common_peg_epsilon_parser23common_peg_start_parser21common_peg_end_parser25common_peg_literal_parser26common_peg_sequence_parser24common_peg_choice_parser28common_peg_repetition_parser21common_peg_and_parser21common_peg_not_parser21common_peg_any_parser23common_peg_space_parser23common_peg_chars_parser24common_peg_string_parser23common_peg_until_parser24common_peg_schema_parser22common_peg_rule_parser21common_peg_ref_parser24common_peg_atomic_parser21common_peg_tag_parser22common_peg_gbnf_parser20common_peg_ac_parserEEEEEEDcT_DpT0_
000000000035c704 W _ZNSt6__ndk116__variant_detail12__visitation6__base12__dispatcherIJLm5EEE10__dispatchB8ne210000IOZNS0_6__ctorINS0_8__traitsIJ25common_peg_epsilon_parser23common_peg_start_parser21common_peg_end_parser25common_peg_literal_parser26common_peg_sequence_parser24common_peg_choice_parser28common_peg_repetition_parser21common_peg_and_parser21common_peg_not_parser21common_peg_any_parser23common_peg_space_parser23common_peg_chars_parser24common_peg_string_parser23common_peg_until_parser24common_peg_schema_parser22common_peg_rule_parser21common_peg_ref_parser24common_peg_atomic_parser21common_peg_tag_parser22common_peg_gbnf_parser20common_peg_ac_parserEEEE19__generic_constructB8ne210000INS0_18__move_constructorIST_LNS0_6_TraitE1EEEEEvRSU_OT_EUlS11_E_JONS0_6__baseILSX_1EJS8_S9_SA_SB_SC_SD_SE_SF_SG_SH_SI_SJ_SK_SL_SM_SN_SO_SP_SQ_SR_SS_EEEEEEDcS10_DpT0_
00000000002b7c30 W _ZNSt6__ndk116__variant_detail12__visitation6__base12__dispatcherIJLm5EEE10__dispatchB8ne210000IOZNS0_6__ctorINS0_8__traitsIJ25common_peg_epsilon_parser23common_peg_start_parser21common_peg_end_parser25common_peg_literal_parser26common_peg_sequence_parser24common_peg_choice_parser28common_peg_repetition_parser21common_peg_and_parser21common_peg_not_parser21common_peg_any_parser23common_peg_space_parser23common_peg_chars_parser24common_peg_string_parser23common_peg_until_parser24common_peg_schema_parser22common_peg_rule_parser21common_peg_ref_parser24common_peg_atomic_parser21common_peg_tag_parser22common_peg_gbnf_parser20common_peg_ac_parserEEEE19__generic_constructB8ne210000IRKNS0_18__copy_constructorIST_LNS0_6_TraitE1EEEEEvRSU_OT_EUlS13_E_JRKNS0_6__baseILSX_1EJS8_S9_SA_SB_SC_SD_SE_SF_SG_SH_SI_SJ_SK_SL_SM_SN_SO_SP_SQ_SR_SS_EEEEEEDcS12_DpT0_
000000000034a81c W _ZNSt6__ndk116__variant_detail12__visitation6__base12__dispatcherIJLm6EEE10__dispatchB8ne210000IONS1_9__variant15__value_visitorIR15parser_executorEEJRKNS0_6__baseILNS0_6_TraitE1EJ25common_peg_epsilon_parser23common_peg_start_parser21common_peg_end_parser25common_peg_literal_parser26common_peg_sequence_parser24common_peg_choice_parser28common_peg_repetition_parser21common_peg_and_parser21common_peg_not_parser21common_peg_any_parser23common_peg_space_parser23common_peg_chars_parser24common_peg_string_parser23common_peg_until_parser24common_peg_schema_parser22common_peg_rule_parser21common_peg_ref_parser24common_peg_atomic_parser21common_peg_tag_parser22common_peg_gbnf_parser20common_peg_ac_parserEEEEEEDcT_DpT0_
000000000035c72c W _ZNSt6__ndk116__variant_detail12__visitation6__base12__dispatcherIJLm6EEE10__dispatchB8ne210000IOZNS0_6__ctorINS0_8__traitsIJ25common_peg_epsilon_parser23common_peg_start_parser21common_peg_end_parser25common_peg_literal_parser26common_peg_sequence_parser24common_peg_choice_parser28common_peg_repetition_parser21common_peg_and_parser21common_peg_not_parser21common_peg_any_parser23common_peg_space_parser23common_peg_chars_parser24common_peg_string_parser23common_peg_until_parser24common_peg_schema_parser22common_peg_rule_parser21common_peg_ref_parser24common_peg_atomic_parser21common_peg_tag_parser22common_peg_gbnf_parser20common_peg_ac_parserEEEE19__generic_constructB8ne210000INS0_18__move_constructorIST_LNS0_6_TraitE1EEEEEvRSU_OT_EUlS11_E_JONS0_6__baseILSX_1EJS8_S9_SA_SB_SC_SD_SE_SF_SG_SH_SI_SJ_SK_SL_SM_SN_SO_SP_SQ_SR_SS_EEEEEEDcS10_DpT0_
00000000002b7cbc W _ZNSt6__ndk116__variant_detail12__visitation6__base12__dispatcherIJLm6EEE10__dispatchB8ne210000IOZNS0_6__ctorINS0_8__traitsIJ25common_peg_epsilon_parser23common_peg_start_parser21common_peg_end_parser25common_peg_literal_parser26common_peg_sequence_parser24common_peg_choice_parser28common_peg_repetition_parser21common_peg_and_parser21common_peg_not_parser21common_peg_any_parser23common_peg_space_parser23common_peg_chars_parser24common_peg_string_parser23common_peg_until_parser24common_peg_schema_parser22common_peg_rule_parser21common_peg_ref_parser24common_peg_atomic_parser21common_peg_tag_parser22common_peg_gbnf_parser20common_peg_ac_parserEEEE19__generic_constructB8ne210000IRKNS0_18__copy_constructorIST_LNS0_6_TraitE1EEEEEvRSU_OT_EUlS13_E_JRKNS0_6__baseILSX_1EJS8_S9_SA_SB_SC_SD_SE_SF_SG_SH_SI_SJ_SK_SL_SM_SN_SO_SP_SQ_SR_SS_EEEEEEDcS12_DpT0_
000000000034a824 W _ZNSt6__ndk116__variant_detail12__visitation6__base12__dispatcherIJLm7EEE10__dispatchB8ne210000IONS1_9__variant15__value_visitorIR15parser_executorEEJRKNS0_6__baseILNS0_6_TraitE1EJ25common_peg_epsilon_parser23common_peg_start_parser21common_peg_end_parser25common_peg_literal_parser26common_peg_sequence_parser24common_peg_choice_parser28common_peg_repetition_parser21common_peg_and_parser21common_peg_not_parser21common_peg_any_parser23common_peg_space_parser23common_peg_chars_parser24common_peg_string_parser23common_peg_until_parser24common_peg_schema_parser22common_peg_rule_parser21common_peg_ref_parser24common_peg_atomic_parser21common_peg_tag_parser22common_peg_gbnf_parser20common_peg_ac_parserEEEEEEDcT_DpT0_
000000000035c73c W _ZNSt6__ndk116__variant_detail12__visitation6__base12__dispatcherIJLm7EEE10__dispatchB8ne210000IOZNS0_6__ctorINS0_8__traitsIJ25common_peg_epsilon_parser23common_peg_start_parser21common_peg_end_parser25common_peg_literal_parser26common_peg_sequence_parser24common_peg_choice_parser28common_peg_repetition_parser21common_peg_and_parser21common_peg_not_parser21common_peg_any_parser23common_peg_space_parser23common_peg_chars_parser24common_peg_string_parser23common_peg_until_parser24common_peg_schema_parser22common_peg_rule_parser21common_peg_ref_parser24common_peg_atomic_parser21common_peg_tag_parser22common_peg_gbnf_parser20common_peg_ac_parserEEEE19__generic_constructB8ne210000INS0_18__move_constructorIST_LNS0_6_TraitE1EEEEEvRSU_OT_EUlS11_E_JONS0_6__baseILSX_1EJS8_S9_SA_SB_SC_SD_SE_SF_SG_SH_SI_SJ_SK_SL_SM_SN_SO_SP_SQ_SR_SS_EEEEEEDcS10_DpT0_
00000000002b7ccc W _ZNSt6__ndk116__variant_detail12__visitation6__base12__dispatcherIJLm7EEE10__dispatchB8ne210000IOZNS0_6__ctorINS0_8__traitsIJ25common_peg_epsilon_parser23common_peg_start_parser21common_peg_end_parser25common_peg_literal_parser26common_peg_sequence_parser24common_peg_choice_parser28common_peg_repetition_parser21common_peg_and_parser21common_peg_not_parser21common_peg_any_parser23common_peg_space_parser23common_peg_chars_parser24common_peg_string_parser23common_peg_until_parser24common_peg_schema_parser22common_peg_rule_parser21common_peg_ref_parser24common_peg_atomic_parser21common_peg_tag_parser22common_peg_gbnf_parser20common_peg_ac_parserEEEE19__generic_constructB8ne210000IRKNS0_18__copy_constructorIST_LNS0_6_TraitE1EEEEEvRSU_OT_EUlS13_E_JRKNS0_6__baseILSX_1EJS8_S9_SA_SB_SC_SD_SE_SF_SG_SH_SI_SJ_SK_SL_SM_SN_SO_SP_SQ_SR_SS_EEEEEEDcS12_DpT0_
000000000034a82c W _ZNSt6__ndk116__variant_detail12__visitation6__base12__dispatcherIJLm8EEE10__dispatchB8ne210000IONS1_9__variant15__value_visitorIR15parser_executorEEJRKNS0_6__baseILNS0_6_TraitE1EJ25common_peg_epsilon_parser23common_peg_start_parser21common_peg_end_parser25common_peg_literal_parser26common_peg_sequence_parser24common_peg_choice_parser28common_peg_repetition_parser21common_peg_and_parser21common_peg_not_parser21common_peg_any_parser23common_peg_space_parser23common_peg_chars_parser24common_peg_string_parser23common_peg_until_parser24common_peg_schema_parser22common_peg_rule_parser21common_peg_ref_parser24common_peg_atomic_parser21common_peg_tag_parser22common_peg_gbnf_parser20common_peg_ac_parserEEEEEEDcT_DpT0_
000000000035c74c W _ZNSt6__ndk116__variant_detail12__visitation6__base12__dispatcherIJLm8EEE10__dispatchB8ne210000IOZNS0_6__ctorINS0_8__traitsIJ25common_peg_epsilon_parser23common_peg_start_parser21common_peg_end_parser25common_peg_literal_parser26common_peg_sequence_parser24common_peg_choice_parser28common_peg_repetition_parser21common_peg_and_parser21common_peg_not_parser21common_peg_any_parser23common_peg_space_parser23common_peg_chars_parser24common_peg_string_parser23common_peg_until_parser24common_peg_schema_parser22common_peg_rule_parser21common_peg_ref_parser24common_peg_atomic_parser21common_peg_tag_parser22common_peg_gbnf_parser20common_peg_ac_parserEEEE19__generic_constructB8ne210000INS0_18__move_constructorIST_LNS0_6_TraitE1EEEEEvRSU_OT_EUlS11_E_JONS0_6__baseILSX_1EJS8_S9_SA_SB_SC_SD_SE_SF_SG_SH_SI_SJ_SK_SL_SM_SN_SO_SP_SQ_SR_SS_EEEEEEDcS10_DpT0_
00000000002b7cdc W _ZNSt6__ndk116__variant_detail12__visitation6__base12__dispatcherIJLm8EEE10__dispatchB8ne210000IOZNS0_6__ctorINS0_8__traitsIJ25common_peg_epsilon_parser23common_peg_start_parser21common_peg_end_parser25common_peg_literal_parser26common_peg_sequence_parser24common_peg_choice_parser28common_peg_repetition_parser21common_peg_and_parser21common_peg_not_parser21common_peg_any_parser23common_peg_space_parser23common_peg_chars_parser24common_peg_string_parser23common_peg_until_parser24common_peg_schema_parser22common_peg_rule_parser21common_peg_ref_parser24common_peg_atomic_parser21common_peg_tag_parser22common_peg_gbnf_parser20common_peg_ac_parserEEEE19__generic_constructB8ne210000IRKNS0_18__copy_constructorIST_LNS0_6_TraitE1EEEEEvRSU_OT_EUlS13_E_JRKNS0_6__baseILSX_1EJS8_S9_SA_SB_SC_SD_SE_SF_SG_SH_SI_SJ_SK_SL_SM_SN_SO_SP_SQ_SR_SS_EEEEEEDcS12_DpT0_
000000000034a834 W _ZNSt6__ndk116__variant_detail12__visitation6__base12__dispatcherIJLm9EEE10__dispatchB8ne210000IONS1_9__variant15__value_visitorIR15parser_executorEEJRKNS0_6__baseILNS0_6_TraitE1EJ25common_peg_epsilon_parser23common_peg_start_parser21common_peg_end_parser25common_peg_literal_parser26common_peg_sequence_parser24common_peg_choice_parser28common_peg_repetition_parser21common_peg_and_parser21common_peg_not_parser21common_peg_any_parser23common_peg_space_parser23common_peg_chars_parser24common_peg_string_parser23common_peg_until_parser24common_peg_schema_parser22common_peg_rule_parser21common_peg_ref_parser24common_peg_atomic_parser21common_peg_tag_parser22common_peg_gbnf_parser20common_peg_ac_parserEEEEEEDcT_DpT0_
000000000035c75c W _ZNSt6__ndk116__variant_detail12__visitation6__base12__dispatcherIJLm9EEE10__dispatchB8ne210000IOZNS0_6__ctorINS0_8__traitsIJ25common_peg_epsilon_parser23common_peg_start_parser21common_peg_end_parser25common_peg_literal_parser26common_peg_sequence_parser24common_peg_choice_parser28common_peg_repetition_parser21common_peg_and_parser21common_peg_not_parser21common_peg_any_parser23common_peg_space_parser23common_peg_chars_parser24common_peg_string_parser23common_peg_until_parser24common_peg_schema_parser22common_peg_rule_parser21common_peg_ref_parser24common_peg_atomic_parser21common_peg_tag_parser22common_peg_gbnf_parser20common_peg_ac_parserEEEE19__generic_constructB8ne210000INS0_18__move_constructorIST_LNS0_6_TraitE1EEEEEvRSU_OT_EUlS11_E_JONS0_6__baseILSX_1EJS8_S9_SA_SB_SC_SD_SE_SF_SG_SH_SI_SJ_SK_SL_SM_SN_SO_SP_SQ_SR_SS_EEEEEEDcS10_DpT0_
00000000002b7cec W _ZNSt6__ndk116__variant_detail12__visitation6__base12__dispatcherIJLm9EEE10__dispatchB8ne210000IOZNS0_6__ctorINS0_8__traitsIJ25common_peg_epsilon_parser23common_peg_start_parser21common_peg_end_parser25common_peg_literal_parser26common_peg_sequence_parser24common_peg_choice_parser28common_peg_repetition_parser21common_peg_and_parser21common_peg_not_parser21common_peg_any_parser23common_peg_space_parser23common_peg_chars_parser24common_peg_string_parser23common_peg_until_parser24common_peg_schema_parser22common_peg_rule_parser21common_peg_ref_parser24common_peg_atomic_parser21common_peg_tag_parser22common_peg_gbnf_parser20common_peg_ac_parserEEEE19__generic_constructB8ne210000IRKNS0_18__copy_constructorIST_LNS0_6_TraitE1EEEEEvRSU_OT_EUlS13_E_JRKNS0_6__baseILSX_1EJS8_S9_SA_SB_SC_SD_SE_SF_SG_SH_SI_SJ_SK_SL_SM_SN_SO_SP_SQ_SR_SS_EEEEEEDcS12_DpT0_
00000000002f6aa0 W _ZNSt6__ndk117__assoc_sub_stateD2Ev
000000000022ed08 W _ZNSt6__ndk117__repeat_one_loopIcED0Ev
000000000022aeb4 W _ZNSt6__ndk118__back_ref_collateIcNS_12regex_traitsIcEEED0Ev
000000000022ae58 W _ZNSt6__ndk118__back_ref_collateIcNS_12regex_traitsIcEEED2Ev
000000000022aa34 W _ZNSt6__ndk118__match_char_icaseIcNS_12regex_traitsIcEEED0Ev
000000000022a9d8 W _ZNSt6__ndk118__match_char_icaseIcNS_12regex_traitsIcEEED2Ev
00000000002124bc W _ZNSt6__ndk118basic_stringstreamIcNS_11char_traitsIcEENS_9allocatorIcEEED1Ev
00000000004281b0 W _ZNSt6__ndk118unordered_multimapINS_12basic_stringIcNS_11char_traitsIcEENS_9allocatorIcEEEES6_N7httplib6detail11case_ignore4hashENS9_8equal_toENS4_INS_4pairIKS6_S6_EEEEE6insertB8ne210000INSC_IS6_S6_EETnNS_9enable_ifIXsr16is_constructibleISE_T_EE5valueEiE4typeELi0EEENS_19__hash_map_iteratorINS_15__hash_iteratorIPNS_11__hash_nodeINS_17__hash_value_typeIS6_S6_EEPvEEEEEEOSK_
0000000000205c40 W _ZNSt6__ndk119basic_istringstreamIcNS_11char_traitsIcEENS_9allocatorIcEEED1Ev
00000000001c8508 W _ZNSt6__ndk119basic_ostringstreamIcNS_11char_traitsIcEENS_9allocatorIcEEED1Ev
000000000010f524 V _ZNSt6__ndk119piecewise_constructE
000000000022b5e4 W _ZNSt6__ndk120__bracket_expressionIcNS_12regex_traitsIcEEED0Ev
000000000022b450 W _ZNSt6__ndk120__bracket_expressionIcNS_12regex_traitsIcEEED2Ev
0000000000228628 W _ZNSt6__ndk120__l_anchor_multilineIcED0Ev
000000000022ab6c W _ZNSt6__ndk120__match_char_collateIcNS_12regex_traitsIcEEED0Ev
000000000022ab10 W _ZNSt6__ndk120__match_char_collateIcNS_12regex_traitsIcEEED2Ev
00000000002286e0 W _ZNSt6__ndk120__r_anchor_multilineIcED0Ev
00000000002b5848 W _ZNSt6__ndk120__shared_ptr_emplaceIN5jinja11value_int_tENS_9allocatorIS2_EEED0Ev
00000000002b5834 W _ZNSt6__ndk120__shared_ptr_emplaceIN5jinja11value_int_tENS_9allocatorIS2_EEED2Ev
00000000002b57e8 W _ZNSt6__ndk120__shared_ptr_emplaceIN5jinja12value_bool_tENS_9allocatorIS2_EEED0Ev
00000000002b57d4 W _ZNSt6__ndk120__shared_ptr_emplaceIN5jinja12value_bool_tENS_9allocatorIS2_EEED2Ev
00000000003b0ca4 W _ZNSt6__ndk120__shared_ptr_emplaceIN5jinja12value_func_tENS_9allocatorIS2_EEED0Ev
00000000003b0c90 W _ZNSt6__ndk120__shared_ptr_emplaceIN5jinja12value_func_tENS_9allocatorIS2_EEED2Ev
00000000002b58a8 W _ZNSt6__ndk120__shared_ptr_emplaceIN5jinja12value_none_tENS_9allocatorIS2_EEED0Ev
00000000002b5894 W _ZNSt6__ndk120__shared_ptr_emplaceIN5jinja12value_none_tENS_9allocatorIS2_EEED2Ev
00000000002b5908 W _ZNSt6__ndk120__shared_ptr_emplaceIN5jinja13value_array_tENS_9allocatorIS2_EEED0Ev
00000000002b58f4 W _ZNSt6__ndk120__shared_ptr_emplaceIN5jinja13value_array_tENS_9allocatorIS2_EEED2Ev
000000000039e540 W _ZNSt6__ndk120__shared_ptr_emplaceIN5jinja13value_float_tENS_9allocatorIS2_EEEC2B8ne210000IJRdES4_TnNS_9enable_ifIXntsr7is_sameINT0_10value_typeENS_19__for_overwrite_tagEEE5valueEiE4typeELi0EEES4_DpOT_
00000000003b2888 W _ZNSt6__ndk120__shared_ptr_emplaceIN5jinja13value_float_tENS_9allocatorIS2_EEEC2B8ne210000IJdES4_TnNS_9enable_ifIXntsr7is_sameINT0_10value_typeENS_19__for_overwrite_tagEEE5valueEiE4typeELi0EEES4_DpOT_
000000000039e6b0 W _ZNSt6__ndk120__shared_ptr_emplaceIN5jinja13value_float_tENS_9allocatorIS2_EEED0Ev
000000000039e69c W _ZNSt6__ndk120__shared_ptr_emplaceIN5jinja13value_float_tENS_9allocatorIS2_EEED2Ev
00000000003b51d0 W _ZNSt6__ndk120__shared_ptr_emplaceIN5jinja13value_kwarg_tENS_9allocatorIS2_EEED0Ev
00000000003b51bc W _ZNSt6__ndk120__shared_ptr_emplaceIN5jinja13value_kwarg_tENS_9allocatorIS2_EEED2Ev
000000000039d1f0 W _ZNSt6__ndk120__shared_ptr_emplaceIN5jinja13value_tuple_tENS_9allocatorIS2_EEED0Ev
000000000039d1dc W _ZNSt6__ndk120__shared_ptr_emplaceIN5jinja13value_tuple_tENS_9allocatorIS2_EEED2Ev
00000000002b4a30 W _ZNSt6__ndk120__shared_ptr_emplaceIN5jinja14value_object_tENS_9allocatorIS2_EEED0Ev
00000000002b4a1c W _ZNSt6__ndk120__shared_ptr_emplaceIN5jinja14value_object_tENS_9allocatorIS2_EEED2Ev
00000000002b51e0 W _ZNSt6__ndk120__shared_ptr_emplaceIN5jinja14value_string_tENS_9allocatorIS2_EEED0Ev
00000000002b51cc W _ZNSt6__ndk120__shared_ptr_emplaceIN5jinja14value_string_tENS_9allocatorIS2_EEED2Ev
0000000000394e78 W _ZNSt6__ndk120__shared_ptr_emplaceIN5jinja17value_undefined_tENS_9allocatorIS2_EEED0Ev
0000000000394e64 W _ZNSt6__ndk120__shared_ptr_emplaceIN5jinja17value_undefined_tENS_9allocatorIS2_EEED2Ev
0000000000461eec W _ZNSt6__ndk120__shared_ptr_emplaceIN7httplib6detail4mmapENS_9allocatorIS3_EEED0Ev
0000000000461ed8 W _ZNSt6__ndk120__shared_ptr_emplaceIN7httplib6detail4mmapENS_9allocatorIS3_EEED2Ev
000000000035a978 W _ZNSt6__ndk120__shared_ptr_emplaceIN8nlohmann16json_abi_v3_12_010basic_jsonINS2_11ordered_mapENS_6vectorENS_12basic_stringIcNS_11char_traitsIcEENS_9allocatorIcEEEEblmdS9_NS2_14adl_serializerENS5_IhNS9_IhEEEEvEENS9_ISF_EEED0Ev
000000000035a964 W _ZNSt6__ndk120__shared_ptr_emplaceIN8nlohmann16json_abi_v3_12_010basic_jsonINS2_11ordered_mapENS_6vectorENS_12basic_stringIcNS_11char_traitsIcEENS_9allocatorIcEEEEblmdS9_NS2_14adl_serializerENS5_IhNS9_IhEEEEvEENS9_ISF_EEED2Ev
0000000000239224 W _ZNSt6__ndk120__shared_ptr_emplaceIN8nlohmann16json_abi_v3_12_06detail21output_string_adapterIcNS_12basic_stringIcNS_11char_traitsIcEENS_9allocatorIcEEEEEENS8_ISB_EEED0Ev
0000000000239210 W _ZNSt6__ndk120__shared_ptr_emplaceIN8nlohmann16json_abi_v3_12_06detail21output_string_adapterIcNS_12basic_stringIcNS_11char_traitsIcEENS_9allocatorIcEEEEEENS8_ISB_EEED2Ev
00000000002b49bc W _ZNSt6__ndk120__shared_ptr_emplaceINS_12basic_stringIcNS_11char_traitsIcEENS_9allocatorIcEEEENS4_IS6_EEED0Ev
00000000002b49a8 W _ZNSt6__ndk120__shared_ptr_emplaceINS_12basic_stringIcNS_11char_traitsIcEENS_9allocatorIcEEEENS4_IS6_EEED2Ev
00000000003b5678 W _ZNSt6__ndk120__shared_ptr_pointerIPNS_12basic_stringIcNS_11char_traitsIcEENS_9allocatorIcEEEENS_10shared_ptrIS6_E27__shared_ptr_default_deleteIS6_S6_EENS4_IS6_EEED0Ev
00000000002276b4 W _ZNSt6__ndk120__shared_ptr_pointerIPNS_13__empty_stateIcEENS_10shared_ptrIS2_E27__shared_ptr_default_deleteIS2_S2_EENS_9allocatorIS2_EEED0Ev
00000000002265e0 W _ZNSt6__ndk120regex_token_iteratorINS_11__wrap_iterIPKcEEcNS_12regex_traitsIcEEEC2ERKS7_
00000000002269f8 W _ZNSt6__ndk120regex_token_iteratorINS_11__wrap_iterIPKcEEcNS_12regex_traitsIcEEED2Ev
0000000000232b84 W _ZNSt6__ndk120regex_token_iteratorINS_11__wrap_iterIPKcEEcNS_12regex_traitsIcEEEppEv
000000000022ee30 W _ZNSt6__ndk121__empty_non_own_stateIcED0Ev
0000000000582f68 W _ZNSt6__ndk122__libcpp_verbose_abortEPKcz
000000000022a03c W _ZNSt6__ndk123__match_any_but_newlineIcED0Ev
000000000022e56c W _ZNSt6__ndk126__end_marked_subexpressionIcED0Ev
000000000022e4f0 W _ZNSt6__ndk128__begin_marked_subexpressionIcED0Ev
00000000005d7708 B _ZNSt6__ndk13cinE
00000000003b1b80 W _ZNSt6__ndk13mapINS_12basic_stringIcNS_11char_traitsIcEENS_9allocatorIcEEEENS_8functionIFNS_10shared_ptrIN5jinja7value_tEEERKNS9_9func_argsEEEENS_4lessIS6_EENS4_INS_4pairIKS6_SG_EEEEE6insertB8ne210000INS_20__map_const_iteratorINS_21__tree_const_iteratorINS_12__value_typeIS6_SG_EEPNS_11__tree_nodeISS_PvEElEEEEEEvT_SZ_
000000000020ae80 W _ZNSt6__ndk13mapINS_12basic_stringIcNS_11char_traitsIcEENS_9allocatorIcEEEES6_NS_4lessIS6_EENS4_INS_4pairIKS6_S6_EEEEE6insertB8ne210000INS_20__map_const_iteratorINS_21__tree_const_iteratorINS_12__value_typeIS6_S6_EEPNS_11__tree_nodeISI_PvEElEEEEEEvT_SP_
0000000000208d70 W _ZNSt6__ndk13setI13llama_exampleNS_4lessIS1_EENS_9allocatorIS1_EEE6insertB8ne210000INS_21__tree_const_iteratorIS1_PNS_11__tree_nodeIS1_PvEElEEEEvT_SE_
0000000000209d34 W _ZNSt6__ndk13setIiNS_4lessIiEENS_9allocatorIiEEE6insertB8ne210000INS_21__tree_const_iteratorIiPNS_11__tree_nodeIiPvEElEEEEvT_SD_
00000000005d7928 B _ZNSt6__ndk14cerrE
00000000005d7a30 B _ZNSt6__ndk14clogE
00000000005d7820 B _ZNSt6__ndk14coutE
000000000033b200 W _ZNSt6__ndk14pairI12common_ngramNS_13unordered_mapIiiNS_4hashIiEENS_8equal_toIiEENS_9allocatorINS0_IKiiEEEEEEED2Ev
0000000000242314 W _ZNSt6__ndk14pairIK10common_argNS_12basic_stringIcNS_11char_traitsIcEENS_9allocatorIcEEEEED2Ev
00000000003710ec W _ZNSt6__ndk14pairIKNS_12basic_stringIcNS_11char_traitsIcEENS_9allocatorIcEEEE10common_argED2Ev
0000000000320780 W _ZNSt6__ndk14pairIKNS_12basic_stringIcNS_11char_traitsIcEENS_9allocatorIcEEEE11BuiltinRuleEC2B8ne210000ILb1ETnNS_9enable_ifIXclsr13_CheckArgsDepIXT_EEE23__is_pair_constructibleIRS7_RKS8_EEEiE4typeELi0EEESC_SE_
000000000032087c W _ZNSt6__ndk14pairIKNS_12basic_stringIcNS_11char_traitsIcEENS_9allocatorIcEEEE11BuiltinRuleED2Ev
000000000044f5e8 W _ZNSt6__ndk14pairIKNS_12basic_stringIcNS_11char_traitsIcEENS_9allocatorIcEEEEN7httplib8FormDataEED2Ev
00000000002b34c0 W _ZNSt6__ndk14pairIKNS_12basic_stringIcNS_11char_traitsIcEENS_9allocatorIcEEEEN8nlohmann16json_abi_v3_12_010basic_jsonINS9_11ordered_mapENS_6vectorES6_blmdS4_NS9_14adl_serializerENSC_IhNS4_IhEEEEvEEED2Ev
0000000000357248 W _ZNSt6__ndk14pairIKNS_12basic_stringIcNS_11char_traitsIcEENS_9allocatorIcEEEEN8nlohmann16json_abi_v3_12_010basic_jsonINS_3mapENS_6vectorES6_blmdS4_NS9_14adl_serializerENSC_IhNS4_IhEEEEvEEED2Ev
000000000036ee44 W _ZNSt6__ndk14pairIKNS_12basic_stringIcNS_11char_traitsIcEENS_9allocatorIcEEEENS_3mapIS6_S6_NS_4lessIS6_EENS4_INS0_IS7_S6_EEEEEEED2Ev
00000000003bfa48 W _ZNSt6__ndk14pairIKNS_12basic_stringIcNS_11char_traitsIcEENS_9allocatorIcEEEENS_8functionIFNS_10shared_ptrIN5jinja7value_tEEERKNSA_9func_argsEEEEEC2B8ne210000IRA10_KcRSG_TnNS_9enable_ifIXclsr10_CheckArgsE23__is_pair_constructibleIT_T0_EEEiE4typeELi0EEEOSP_OSQ_
00000000003b97c0 W _ZNSt6__ndk14pairIKNS_12basic_stringIcNS_11char_traitsIcEENS_9allocatorIcEEEENS_8functionIFNS_10shared_ptrIN5jinja7value_tEEERKNSA_9func_argsEEEEEC2B8ne210000IRA11_KcRSG_TnNS_9enable_ifIXclsr10_CheckArgsE23__is_pair_constructibleIT_T0_EEEiE4typeELi0EEEOSP_OSQ_
00000000003b93c8 W _ZNSt6__ndk14pairIKNS_12basic_stringIcNS_11char_traitsIcEENS_9allocatorIcEEEENS_8functionIFNS_10shared_ptrIN5jinja7value_tEEERKNSA_9func_argsEEEEEC2B8ne210000IRA13_KcRSG_TnNS_9enable_ifIXclsr10_CheckArgsE23__is_pair_constructibleIT_T0_EEEiE4typeELi0EEEOSP_OSQ_
00000000003b8c4c W _ZNSt6__ndk14pairIKNS_12basic_stringIcNS_11char_traitsIcEENS_9allocatorIcEEEENS_8functionIFNS_10shared_ptrIN5jinja7value_tEEERKNSA_9func_argsEEEEEC2B8ne210000IRA14_KcRSG_TnNS_9enable_ifIXclsr10_CheckArgsE23__is_pair_constructibleIT_T0_EEEiE4typeELi0EEEOSP_OSQ_
00000000003b890c W _ZNSt6__ndk14pairIKNS_12basic_stringIcNS_11char_traitsIcEENS_9allocatorIcEEEENS_8functionIFNS_10shared_ptrIN5jinja7value_tEEERKNSA_9func_argsEEEEEC2B8ne210000IRA15_KcRSG_TnNS_9enable_ifIXclsr10_CheckArgsE23__is_pair_constructibleIT_T0_EEEiE4typeELi0EEEOSP_OSQ_
00000000003b8514 W _ZNSt6__ndk14pairIKNS_12basic_stringIcNS_11char_traitsIcEENS_9allocatorIcEEEENS_8functionIFNS_10shared_ptrIN5jinja7value_tEEERKNSA_9func_argsEEEEEC2B8ne210000IRA16_KcRSG_TnNS_9enable_ifIXclsr10_CheckArgsE23__is_pair_constructibleIT_T0_EEEiE4typeELi0EEEOSP_OSQ_
00000000003b8710 W _ZNSt6__ndk14pairIKNS_12basic_stringIcNS_11char_traitsIcEENS_9allocatorIcEEEENS_8functionIFNS_10shared_ptrIN5jinja7value_tEEERKNSA_9func_argsEEEEEC2B8ne210000IRA17_KcRSG_TnNS_9enable_ifIXclsr10_CheckArgsE23__is_pair_constructibleIT_T0_EEEiE4typeELi0EEEOSP_OSQ_
00000000003b95c4 W _ZNSt6__ndk14pairIKNS_12basic_stringIcNS_11char_traitsIcEENS_9allocatorIcEEEENS_8functionIFNS_10shared_ptrIN5jinja7value_tEEERKNSA_9func_argsEEEEEC2B8ne210000IRA18_KcRSG_TnNS_9enable_ifIXclsr10_CheckArgsE23__is_pair_constructibleIT_T0_EEEiE4typeELi0EEEOSP_OSQ_
00000000003b9b00 W _ZNSt6__ndk14pairIKNS_12basic_stringIcNS_11char_traitsIcEENS_9allocatorIcEEEENS_8functionIFNS_10shared_ptrIN5jinja7value_tEEERKNSA_9func_argsEEEEEC2B8ne210000IRA20_KcRSG_TnNS_9enable_ifIXclsr10_CheckArgsE23__is_pair_constructibleIT_T0_EEEiE4typeELi0EEEOSP_OSQ_
00000000003bf144 W _ZNSt6__ndk14pairIKNS_12basic_stringIcNS_11char_traitsIcEENS_9allocatorIcEEEENS_8functionIFNS_10shared_ptrIN5jinja7value_tEEERKNSA_9func_argsEEEEEC2B8ne210000IRA4_KcRSG_TnNS_9enable_ifIXclsr10_CheckArgsE23__is_pair_constructibleIT_T0_EEEiE4typeELi0EEEOSP_OSQ_
00000000003bb41c W _ZNSt6__ndk14pairIKNS_12basic_stringIcNS_11char_traitsIcEENS_9allocatorIcEEEENS_8functionIFNS_10shared_ptrIN5jinja7value_tEEERKNSA_9func_argsEEEEEC2B8ne210000IRA5_KcRKSH_TnNS_9enable_ifIXclsr10_CheckArgsE23__is_pair_constructibleIT_T0_EEEiE4typeELi0EEEOSQ_OSR_
00000000003ba598 W _ZNSt6__ndk14pairIKNS_12basic_stringIcNS_11char_traitsIcEENS_9allocatorIcEEEENS_8functionIFNS_10shared_ptrIN5jinja7value_tEEERKNSA_9func_argsEEEEEC2B8ne210000IRA5_KcRSG_TnNS_9enable_ifIXclsr10_CheckArgsE23__is_pair_constructibleIT_T0_EEEiE4typeELi0EEEOSP_OSQ_
00000000003bf08c W _ZNSt6__ndk14pairIKNS_12basic_stringIcNS_11char_traitsIcEENS_9allocatorIcEEEENS_8functionIFNS_10shared_ptrIN5jinja7value_tEEERKNSA_9func_argsEEEEEC2B8ne210000IRA6_KcRSG_TnNS_9enable_ifIXclsr10_CheckArgsE23__is_pair_constructibleIT_T0_EEEiE4typeELi0EEEOSP_OSQ_
00000000003bb53c W _ZNSt6__ndk14pairIKNS_12basic_stringIcNS_11char_traitsIcEENS_9allocatorIcEEEENS_8functionIFNS_10shared_ptrIN5jinja7value_tEEERKNSA_9func_argsEEEEEC2B8ne210000IRA7_KcRKSH_TnNS_9enable_ifIXclsr10_CheckArgsE23__is_pair_constructibleIT_T0_EEEiE4typeELi0EEEOSQ_OSR_
00000000003b8318 W _ZNSt6__ndk14pairIKNS_12basic_stringIcNS_11char_traitsIcEENS_9allocatorIcEEEENS_8functionIFNS_10shared_ptrIN5jinja7value_tEEERKNSA_9func_argsEEEEEC2B8ne210000IRA7_KcRSG_TnNS_9enable_ifIXclsr10_CheckArgsE23__is_pair_constructibleIT_T0_EEEiE4typeELi0EEEOSP_OSQ_
00000000003ba4e0 W _ZNSt6__ndk14pairIKNS_12basic_stringIcNS_11char_traitsIcEENS_9allocatorIcEEEENS_8functionIFNS_10shared_ptrIN5jinja7value_tEEERKNSA_9func_argsEEEEEC2B8ne210000IRA8_KcRSG_TnNS_9enable_ifIXclsr10_CheckArgsE23__is_pair_constructibleIT_T0_EEEiE4typeELi0EEEOSP_OSQ_
00000000003bf990 W _ZNSt6__ndk14pairIKNS_12basic_stringIcNS_11char_traitsIcEENS_9allocatorIcEEEENS_8functionIFNS_10shared_ptrIN5jinja7value_tEEERKNSA_9func_argsEEEEEC2B8ne210000IRA9_KcRSG_TnNS_9enable_ifIXclsr10_CheckArgsE23__is_pair_constructibleIT_T0_EEEiE4typeELi0EEEOSP_OSQ_
00000000003b9f58 W _ZNSt6__ndk14pairIKNS_12basic_stringIcNS_11char_traitsIcEENS_9allocatorIcEEEENS_8functionIFNS_10shared_ptrIN5jinja7value_tEEERKNSA_9func_argsEEEEED2Ev
0000000000464850 W _ZNSt6__ndk14pairIKNS_12basic_stringIcNS_11char_traitsIcEENS_9allocatorIcEEEES6_EC2B8ne210000IRA13_KcRS7_TnNS_9enable_ifIXclsr10_CheckArgsE23__is_pair_constructibleIT_T0_EEEiE4typeELi0EEEOSF_OSG_
0000000000451aa0 W _ZNSt6__ndk14pairIKNS_12basic_stringIcNS_11char_traitsIcEENS_9allocatorIcEEEES6_EC2B8ne210000IRA14_KcRS6_TnNS_9enable_ifIXclsr10_CheckArgsE23__is_pair_constructibleIT_T0_EEEiE4typeELi0EEEOSF_OSG_
0000000000464234 W _ZNSt6__ndk14pairIKNS_12basic_stringIcNS_11char_traitsIcEENS_9allocatorIcEEEES6_EC2B8ne210000IRA5_KcRA10_SA_TnNS_9enable_ifIXclsr10_CheckArgsE23__is_pair_constructibleIT_T0_EEEiE4typeELi0EEEOSG_OSH_
0000000000309120 W _ZNSt6__ndk14pairIKNS_12basic_stringIcNS_11char_traitsIcEENS_9allocatorIcEEEES6_EC2B8ne210000IRA7_KcRA17_SA_TnNS_9enable_ifIXclsr10_CheckArgsE23__is_pair_constructibleIT_T0_EEEiE4typeELi0EEEOSG_OSH_
00000000004645f0 W _ZNSt6__ndk14pairIKNS_12basic_stringIcNS_11char_traitsIcEENS_9allocatorIcEEEES6_EC2B8ne210000IRA7_KcRA4_SA_TnNS_9enable_ifIXclsr10_CheckArgsE23__is_pair_constructibleIT_T0_EEEiE4typeELi0EEEOSG_OSH_
00000000002b31fc W _ZNSt6__ndk14pairIKNS_12basic_stringIcNS_11char_traitsIcEENS_9allocatorIcEEEES6_ED2Ev
00000000003c5678 W _ZNSt6__ndk14pairINS_10shared_ptrIN5jinja7value_tEEES4_ED2Ev
000000000039bbe4 W _ZNSt6__ndk14pairINS_12basic_stringIcNS_11char_traitsIcEENS_9allocatorIcEEEENS_6vectorIPN5jinja9statementENS4_ISA_EEEEEC2B8ne210000ILb1ETnNS_9enable_ifIXclsr13_CheckArgsDepIXT_EEE23__is_pair_constructibleIRKS6_RKSC_EEEiE4typeELi0EEESH_SJ_
0000000000394e10 W _ZNSt6__ndk14pairINS_12basic_stringIcNS_11char_traitsIcEENS_9allocatorIcEEEENS_6vectorIPN5jinja9statementENS4_ISA_EEEEED2Ev
000000000028becc W _ZNSt6__ndk14pairINS_12basic_stringIcNS_11char_traitsIcEENS_9allocatorIcEEEES6_EC2B8ne210000IRA1_KcRKS6_TnNS_9enable_ifIXclsr10_CheckArgsE23__is_pair_constructibleIT_T0_EEEiE4typeELi0EEEOSF_OSG_
00000000002f0eec W _ZNSt6__ndk14pairINS_12basic_stringIcNS_11char_traitsIcEENS_9allocatorIcEEEES6_EC2B8ne210000IRA7_KcRA96_S9_TnNS_9enable_ifIXclsr10_CheckArgsE23__is_pair_constructibleIT_T0_EEEiE4typeELi0EEEOSF_OSG_
0000000000206bd8 W _ZNSt6__ndk14pairINS_12basic_stringIcNS_11char_traitsIcEENS_9allocatorIcEEEES6_ED2Ev
0000000000336bdc W _ZNSt6__ndk14pairINS_12basic_stringIcNS_11char_traitsIcEENS_9allocatorIcEEEEbEC2B8ne210000IPKcbTnNS_9enable_ifIXclsr10_CheckArgsE23__is_pair_constructibleIT_T0_EEEiE4typeELi0EEEONS0_ISC_SD_EE
0000000000233878 W _ZNSt6__ndk14pairINS_20regex_token_iteratorINS_11__wrap_iterIPKcEEcNS_12regex_traitsIcEEEES8_ED2Ev
0000000000317b34 W _ZNSt6__ndk14pairINS_4__fs10filesystem4path8iteratorES4_ED2Ev
0000000000373484 W _ZNSt6__ndk14pairIR10common_argRNS_12basic_stringIcNS_11char_traitsIcEENS_9allocatorIcEEEEEaSB8ne210000IKS1_S8_TnNS_9enable_ifIXaasr13is_assignableIS2_RKT_EE5valuesr13is_assignableIS9_RKT0_EE5valueEiE4typeELi0EEERSA_RKNS0_ISE_SH_EE
00000000005d7b38 B _ZNSt6__ndk14wcinE
00000000002ff4c0 W _ZNSt6__ndk15arrayINS_12basic_stringIcNS_11char_traitsIcEENS_9allocatorIcEEEELm1000EED2Ev
00000000002fde10 W _ZNSt6__ndk15arrayINS_12basic_stringIcNS_11char_traitsIcEENS_9allocatorIcEEEELm9EED2Ev
00000000003641a8 W _ZNSt6__ndk15dequeImNS_9allocatorImEEE18__append_with_sizeB8ne210000IPKmEEvT_m
00000000005d7d58 B _ZNSt6__ndk15wcerrE
00000000005d7e60 B _ZNSt6__ndk15wclogE
00000000005d7c50 B _ZNSt6__ndk15wcoutE
000000000022e9a8 W _ZNSt6__ndk16__loopIcED0Ev
000000000056f184 W _ZNSt6__ndk16__sortIRNS_6__lessIaaEEPaEEvT0_S5_T_
000000000056e538 W _ZNSt6__ndk16__sortIRNS_6__lessIccEEPcEEvT0_S5_T_
00000000005734e4 W _ZNSt6__ndk16__sortIRNS_6__lessIddEEPdEEvT0_S5_T_
0000000000573aec W _ZNSt6__ndk16__sortIRNS_6__lessIeeEEPeEEvT0_S5_T_
0000000000572edc W _ZNSt6__ndk16__sortIRNS_6__lessIffEEPfEEvT0_S5_T_
000000000056f7c8 W _ZNSt6__ndk16__sortIRNS_6__lessIhhEEPhEEvT0_S5_T_
0000000000570aa4 W _ZNSt6__ndk16__sortIRNS_6__lessIiiEEPiEEvT0_S5_T_
00000000005710b0 W _ZNSt6__ndk16__sortIRNS_6__lessIjjEEPjEEvT0_S5_T_
00000000005716bc W _ZNSt6__ndk16__sortIRNS_6__lessIllEEPlEEvT0_S5_T_
0000000000571cc4 W _ZNSt6__ndk16__sortIRNS_6__lessImmEEPmEEvT0_S5_T_
000000000056fe08 W _ZNSt6__ndk16__sortIRNS_6__lessIssEEPsEEvT0_S5_T_
0000000000570458 W _ZNSt6__ndk16__sortIRNS_6__lessIttEEPtEEvT0_S5_T_
000000000056eb78 W _ZNSt6__ndk16__sortIRNS_6__lessIwwEEPwEEvT0_S5_T_
00000000005722cc W _ZNSt6__ndk16__sortIRNS_6__lessIxxEEPxEEvT0_S5_T_
00000000005728d4 W _ZNSt6__ndk16__sortIRNS_6__lessIyyEEPyEEvT0_S5_T_
0000000000208e8c W _ZNSt6__ndk16__treeI13llama_exampleNS_4lessIS1_EENS_9allocatorIS1_EEE12__find_equalIS1_EERPNS_16__tree_node_baseIPvEENS_21__tree_const_iteratorIS1_PNS_11__tree_nodeIS1_S9_EElEERPNS_15__tree_end_nodeISB_EESC_RKT_
0000000000371188 W _ZNSt6__ndk16__treeI13llama_exampleNS_4lessIS1_EENS_9allocatorIS1_EEE14__assign_multiINS_21__tree_const_iteratorIS1_PNS_11__tree_nodeIS1_PvEElEEEEvT_SE_
000000000023ee3c W _ZNSt6__ndk16__treeI13llama_exampleNS_4lessIS1_EENS_9allocatorIS1_EEE15__assign_uniqueIPKS1_EEvT_SA_
0000000000373854 W _ZNSt6__ndk16__treeINS_12__value_typeI10common_argNS_12basic_stringIcNS_11char_traitsIcEENS_9allocatorIcEEEEEENS_19__map_value_compareIS2_S9_NS_4lessIS2_EELb1EEENS6_IS9_EEE12__find_equalIS2_EERPNS_16__tree_node_baseIPvEENS_21__tree_const_iteratorIS9_PNS_11__tree_nodeIS9_SI_EElEERPNS_15__tree_end_nodeISK_EESL_RKT_
00000000003730fc W _ZNSt6__ndk16__treeINS_12__value_typeI10common_argNS_12basic_stringIcNS_11char_traitsIcEENS_9allocatorIcEEEEEENS_19__map_value_compareIS2_S9_NS_4lessIS2_EELb1EEENS6_IS9_EEE14__assign_multiINS_21__tree_const_iteratorIS9_PNS_11__tree_nodeIS9_PvEElEEEEvT_SN_
000000000037358c W _ZNSt6__ndk16__treeINS_12__value_typeI10common_argNS_12basic_stringIcNS_11char_traitsIcEENS_9allocatorIcEEEEEENS_19__map_value_compareIS2_S9_NS_4lessIS2_EELb1EEENS6_IS9_EEE15__emplace_multiIJRKNS_4pairIKS2_S8_EEEEENS_15__tree_iteratorIS9_PNS_11__tree_nodeIS9_PvEElEEDpOT_
000000000024212c W _ZNSt6__ndk16__treeINS_12__value_typeI10common_argNS_12basic_stringIcNS_11char_traitsIcEENS_9allocatorIcEEEEEENS_19__map_value_compareIS2_S9_NS_4lessIS2_EELb1EEENS6_IS9_EEE25__emplace_unique_key_argsIS2_JRKNS_21piecewise_construct_tENS_5tupleIJRKS2_EEENSK_IJEEEEEENS_4pairINS_15__tree_iteratorIS9_PNS_11__tree_nodeIS9_PvEElEEbEERKT_DpOT0_
0000000000373704 W _ZNSt6__ndk16__treeINS_12__value_typeI10common_argNS_12basic_stringIcNS_11char_traitsIcEENS_9allocatorIcEEEEEENS_19__map_value_compareIS2_S9_NS_4lessIS2_EELb1EEENS6_IS9_EEE30__emplace_hint_unique_key_argsIS2_JRKNS_4pairIKS2_S8_EEEEENSH_INS_15__tree_iteratorIS9_PNS_11__tree_nodeIS9_PvEElEEbEENS_21__tree_const_iteratorIS9_SQ_lEERKT_DpOT0_
00000000003715fc W _ZNSt6__ndk16__treeINS_12__value_typeINS_12basic_stringIcNS_11char_traitsIcEENS_9allocatorIcEEEE10common_argEENS_19__map_value_compareIS7_S9_NS_4lessIS7_EELb1EEENS5_IS9_EEE25__emplace_unique_key_argsIS7_JRKNS_21piecewise_construct_tENS_5tupleIJOS7_EEENSK_IJEEEEEENS_4pairINS_15__tree_iteratorIS9_PNS_11__tree_nodeIS9_PvEElEEbEERKT_DpOT0_
0000000000374790 W _ZNSt6__ndk16__treeINS_12__value_typeINS_12basic_stringIcNS_11char_traitsIcEENS_9allocatorIcEEEE13common_presetEENS_19__map_value_compareIS7_S9_NS_4lessIS7_EELb1EEENS5_IS9_EEE12__find_equalIS7_EERPNS_16__tree_node_baseIPvEENS_21__tree_const_iteratorIS9_PNS_11__tree_nodeIS9_SI_EElEERPNS_15__tree_end_nodeISK_EESL_RKT_
0000000000373e50 W _ZNSt6__ndk16__treeINS_12__value_typeINS_12basic_stringIcNS_11char_traitsIcEENS_9allocatorIcEEEE13common_presetEENS_19__map_value_compareIS7_S9_NS_4lessIS7_EELb1EEENS5_IS9_EEE25__emplace_unique_key_argsIS7_JRKNS_21piecewise_construct_tENS_5tupleIJRKS7_EEENSK_IJEEEEEENS_4pairINS_15__tree_iteratorIS9_PNS_11__tree_nodeIS9_PvEElEEbEERKT_DpOT0_
000000000037467c W _ZNSt6__ndk16__treeINS_12__value_typeINS_12basic_stringIcNS_11char_traitsIcEENS_9allocatorIcEEEE13common_presetEENS_19__map_value_compareIS7_S9_NS_4lessIS7_EELb1EEENS5_IS9_EEE30__emplace_hint_unique_key_argsIS7_JRKNS_4pairIKS7_S8_EEEEENSH_INS_15__tree_iteratorIS9_PNS_11__tree_nodeIS9_PvEElEEbEENS_21__tree_const_iteratorIS9_SQ_lEERKT_DpOT0_
0000000000374ce8 W _ZNSt6__ndk16__treeINS_12__value_typeINS_12basic_stringIcNS_11char_traitsIcEENS_9allocatorIcEEEE13common_presetEENS_19__map_value_compareIS7_S9_NS_4lessIS7_EELb1EEENS5_IS9_EEE4findIS7_EENS_15__tree_iteratorIS9_PNS_11__tree_nodeIS9_PvEElEERKT_
000000000031af18 W _ZNSt6__ndk16__treeINS_12__value_typeINS_12basic_stringIcNS_11char_traitsIcEENS_9allocatorIcEEEE20common_imatrix_entryEENS_19__map_value_compareIS7_S9_NS_4lessIS7_EELb1EEENS5_IS9_EEE25__emplace_unique_key_argsIS7_JRKNS_21piecewise_construct_tENS_5tupleIJOS7_EEENSK_IJEEEEEENS_4pairINS_15__tree_iteratorIS9_PNS_11__tree_nodeIS9_PvEElEEbEERKT_DpOT0_
000000000031b54c W _ZNSt6__ndk16__treeINS_12__value_typeINS_12basic_stringIcNS_11char_traitsIcEENS_9allocatorIcEEEE20common_imatrix_entryEENS_19__map_value_compareIS7_S9_NS_4lessIS7_EELb1EEENS5_IS9_EEE25__emplace_unique_key_argsIS7_JRKNS_21piecewise_construct_tENS_5tupleIJRKS7_EEENSK_IJEEEEEENS_4pairINS_15__tree_iteratorIS9_PNS_11__tree_nodeIS9_PvEElEEbEERKT_DpOT0_
00000000003848e8 W _ZNSt6__ndk16__treeINS_12__value_typeINS_12basic_stringIcNS_11char_traitsIcEENS_9allocatorIcEEEE23common_speculative_typeEENS_19__map_value_compareIS7_S9_NS_4lessIS7_EELb1EEENS5_IS9_EEE12__find_equalIS7_EERPNS_16__tree_node_baseIPvEENS_21__tree_const_iteratorIS9_PNS_11__tree_nodeIS9_SI_EElEERPNS_15__tree_end_nodeISK_EESL_RKT_
00000000003847b0 W _ZNSt6__ndk16__treeINS_12__value_typeINS_12basic_stringIcNS_11char_traitsIcEENS_9allocatorIcEEEE23common_speculative_typeEENS_19__map_value_compareIS7_S9_NS_4lessIS7_EELb1EEENS5_IS9_EEE30__emplace_hint_unique_key_argsIS7_JRKNS_4pairIKS7_S8_EEEEENSH_INS_15__tree_iteratorIS9_PNS_11__tree_nodeIS9_PvEElEEbEENS_21__tree_const_iteratorIS9_SQ_lEERKT_DpOT0_
000000000045e814 W _ZNSt6__ndk16__treeINS_12__value_typeINS_12basic_stringIcNS_11char_traitsIcEENS_9allocatorIcEEEEN7httplib8FormDataEEENS_19__map_value_compareIS7_SA_NS_4lessIS7_EELb1EEENS5_ISA_EEE15__emplace_multiIJRKS7_RKS9_EEENS_15__tree_iteratorISA_PNS_11__tree_nodeISA_PvEElEEDpOT_
00000000004502f0 W _ZNSt6__ndk16__treeINS_12__value_typeINS_12basic_stringIcNS_11char_traitsIcEENS_9allocatorIcEEEEN7httplib8FormDataEEENS_19__map_value_compareIS7_SA_NS_4lessIS7_EELb1EEENS5_ISA_EEE16__construct_nodeIJRKNS_4pairIKS7_S9_EEEEENS_10unique_ptrINS_11__tree_nodeISA_PvEENS_22__tree_node_destructorINS5_ISQ_EEEEEEDpOT_
000000000045e968 W _ZNSt6__ndk16__treeINS_12__value_typeINS_12basic_stringIcNS_11char_traitsIcEENS_9allocatorIcEEEEN7httplib8FormDataEEENS_19__map_value_compareIS7_SA_NS_4lessIS7_EELb1EEENS5_ISA_EEE16__construct_nodeIJRKS7_RKS9_EEENS_10unique_ptrINS_11__tree_nodeISA_PvEENS_22__tree_node_destructorINS5_ISP_EEEEEEDpOT_
000000000045e5a4 W _ZNSt6__ndk16__treeINS_12__value_typeINS_12basic_stringIcNS_11char_traitsIcEENS_9allocatorIcEEEEN7httplib9FormFieldEEENS_19__map_value_compareIS7_SA_NS_4lessIS7_EELb1EEENS5_ISA_EEE15__emplace_multiIJRKS7_S9_EEENS_15__tree_iteratorISA_PNS_11__tree_nodeISA_PvEElEEDpOT_
000000000044fd2c W _ZNSt6__ndk16__treeINS_12__value_typeINS_12basic_stringIcNS_11char_traitsIcEENS_9allocatorIcEEEEN7httplib9FormFieldEEENS_19__map_value_compareIS7_SA_NS_4lessIS7_EELb1EEENS5_ISA_EEE16__construct_nodeIJRKNS_4pairIKS7_S9_EEEEENS_10unique_ptrINS_11__tree_nodeISA_PvEENS_22__tree_node_destructorINS5_ISQ_EEEEEEDpOT_
000000000045e6f8 W _ZNSt6__ndk16__treeINS_12__value_typeINS_12basic_stringIcNS_11char_traitsIcEENS_9allocatorIcEEEEN7httplib9FormFieldEEENS_19__map_value_compareIS7_SA_NS_4lessIS7_EELb1EEENS5_ISA_EEE16__construct_nodeIJRKS7_S9_EEENS_10unique_ptrINS_11__tree_nodeISA_PvEENS_22__tree_node_destructorINS5_ISN_EEEEEEDpOT_
000000000044fc4c W _ZNSt6__ndk16__treeINS_12__value_typeINS_12basic_stringIcNS_11char_traitsIcEENS_9allocatorIcEEEEN7httplib9FormFieldEEENS_19__map_value_compareIS7_SA_NS_4lessIS7_EELb1EEENS5_ISA_EEE20__emplace_hint_multiIJRKNS_4pairIKS7_S9_EEEEENS_15__tree_iteratorISA_PNS_11__tree_nodeISA_PvEElEENS_21__tree_const_iteratorISA_SR_lEEDpOT_
00000000003117f0 W _ZNSt6__ndk16__treeINS_12__value_typeINS_12basic_stringIcNS_11char_traitsIcEENS_9allocatorIcEEEEN8nlohmann16json_abi_v3_12_010basic_jsonINS_3mapENS_6vectorES7_blmdS5_NS9_14adl_serializerENSC_IhNS5_IhEEEEvEEEENS_19__map_value_compareIS7_SH_NS_4lessIvEELb1EEENS5_ISH_EEE12__find_equalIS7_EERPNS_16__tree_node_baseIPvEENS_21__tree_const_iteratorISH_PNS_11__tree_nodeISH_SQ_EElEERPNS_15__tree_end_nodeISS_EEST_RKT_
00000000003588f4 W _ZNSt6__ndk16__treeINS_12__value_typeINS_12basic_stringIcNS_11char_traitsIcEENS_9allocatorIcEEEEN8nlohmann16json_abi_v3_12_010basic_jsonINS_3mapENS_6vectorES7_blmdS5_NS9_14adl_serializerENSC_IhNS5_IhEEEEvEEEENS_19__map_value_compareIS7_SH_NS_4lessIvEELb1EEENS5_ISH_EEE16__construct_nodeIJRKNS_4pairIKS7_NSA_INS9_11ordered_mapESC_S7_blmdS5_SD_SF_vEEEEEEENS_10unique_ptrINS_11__tree_nodeISH_PvEENS_22__tree_node_destructorINS5_ISZ_EEEEEEDpOT_
0000000000311be0 W _ZNSt6__ndk16__treeINS_12__value_typeINS_12basic_stringIcNS_11char_traitsIcEENS_9allocatorIcEEEEN8nlohmann16json_abi_v3_12_010basic_jsonINS_3mapENS_6vectorES7_blmdS5_NS9_14adl_serializerENSC_IhNS5_IhEEEEvEEEENS_19__map_value_compareIS7_SH_NS_4lessIvEELb1EEENS5_ISH_EEE16__construct_nodeIJRKNS_4pairIKS7_SG_EEEEENS_10unique_ptrINS_11__tree_nodeISH_PvEENS_22__tree_node_destructorINS5_ISX_EEEEEEDpOT_
0000000000312de8 W _ZNSt6__ndk16__treeINS_12__value_typeINS_12basic_stringIcNS_11char_traitsIcEENS_9allocatorIcEEEEN8nlohmann16json_abi_v3_12_010basic_jsonINS_3mapENS_6vectorES7_blmdS5_NS9_14adl_serializerENSC_IhNS5_IhEEEEvEEEENS_19__map_value_compareIS7_SH_NS_4lessIvEELb1EEENS5_ISH_EEE25__emplace_unique_key_argsIS7_JRKNS_21piecewise_construct_tENS_5tupleIJRKS7_EEENSS_IJEEEEEENS_4pairINS_15__tree_iteratorISH_PNS_11__tree_nodeISH_PvEElEEbEERKT_DpOT0_
0000000000357b5c W _ZNSt6__ndk16__treeINS_12__value_typeINS_12basic_stringIcNS_11char_traitsIcEENS_9allocatorIcEEEEN8nlohmann16json_abi_v3_12_010basic_jsonINS_3mapENS_6vectorES7_blmdS5_NS9_14adl_serializerENSC_IhNS5_IhEEEEvEEEENS_19__map_value_compareIS7_SH_NS_4lessIvEELb1EEENS5_ISH_EEE25__emplace_unique_key_argsIS7_JRKNS_4pairIKS7_SG_EEEEENSP_INS_15__tree_iteratorISH_PNS_11__tree_nodeISH_PvEElEEbEERKT_DpOT0_
0000000000308ba4 W _ZNSt6__ndk16__treeINS_12__value_typeINS_12basic_stringIcNS_11char_traitsIcEENS_9allocatorIcEEEEN8nlohmann16json_abi_v3_12_010basic_jsonINS_3mapENS_6vectorES7_blmdS5_NS9_14adl_serializerENSC_IhNS5_IhEEEEvEEEENS_19__map_value_compareIS7_SH_NS_4lessIvEELb1EEENS5_ISH_EEE25__emplace_unique_key_argsIS7_JS7_DnEEENS_4pairINS_15__tree_iteratorISH_PNS_11__tree_nodeISH_PvEElEEbEERKT_DpOT0_
00000000003592fc W _ZNSt6__ndk16__treeINS_12__value_typeINS_12basic_stringIcNS_11char_traitsIcEENS_9allocatorIcEEEEN8nlohmann16json_abi_v3_12_010basic_jsonINS_3mapENS_6vectorES7_blmdS5_NS9_14adl_serializerENSC_IhNS5_IhEEEEvEEEENS_19__map_value_compareIS7_SH_NS_4lessIvEELb1EEENS5_ISH_EEE25__emplace_unique_key_argsIS7_JS7_SG_EEENS_4pairINS_15__tree_iteratorISH_PNS_11__tree_nodeISH_PvEElEEbEERKT_DpOT0_
00000000003688b4 W _ZNSt6__ndk16__treeINS_12__value_typeINS_12basic_stringIcNS_11char_traitsIcEENS_9allocatorIcEEEEN8nlohmann16json_abi_v3_12_010basic_jsonINS_3mapENS_6vectorES7_blmdS5_NS9_14adl_serializerENSC_IhNS5_IhEEEEvEEEENS_19__map_value_compareIS7_SH_NS_4lessIvEELb1EEENS5_ISH_EEE30__emplace_hint_unique_key_argsIS7_JRKNS_4pairIKS7_mEEEEENSP_INS_15__tree_iteratorISH_PNS_11__tree_nodeISH_PvEElEEbEENS_21__tree_const_iteratorISH_SY_lEERKT_DpOT0_
0000000000319724 W _ZNSt6__ndk16__treeINS_12__value_typeINS_12basic_stringIcNS_11char_traitsIcEENS_9allocatorIcEEEEN8nlohmann16json_abi_v3_12_010basic_jsonINS_3mapENS_6vectorES7_blmdS5_NS9_14adl_serializerENSC_IhNS5_IhEEEEvEEEENS_19__map_value_compareIS7_SH_NS_4lessIvEELb1EEENS5_ISH_EEE4findIS7_EENS_15__tree_iteratorISH_PNS_11__tree_nodeISH_PvEElEERKT_
000000000037295c W _ZNSt6__ndk16__treeINS_12__value_typeINS_12basic_stringIcNS_11char_traitsIcEENS_9allocatorIcEEEENS_3mapIS7_S7_NS_4lessIS7_EENS5_INS_4pairIKS7_S7_EEEEEEEENS_19__map_value_compareIS7_SG_SA_Lb1EEENS5_ISG_EEE25__emplace_unique_key_argsIS7_JRKNS_21piecewise_construct_tENS_5tupleIJRSC_EEENSP_IJEEEEEENSB_INS_15__tree_iteratorISG_PNS_11__tree_nodeISG_PvEElEEbEERKT_DpOT0_
000000000031b3d8 W _ZNSt6__ndk16__treeINS_12__value_typeINS_12basic_stringIcNS_11char_traitsIcEENS_9allocatorIcEEEENS_4pairIP11ggml_tensorSA_EEEENS_19__map_value_compareIS7_SC_NS_4lessIS7_EELb1EEENS5_ISC_EEE25__emplace_unique_key_argsIS7_JRKNS_21piecewise_construct_tENS_5tupleIJOS7_EEENSN_IJEEEEEENS8_INS_15__tree_iteratorISC_PNS_11__tree_nodeISC_PvEElEEbEERKT_DpOT0_
00000000003b1c98 W _ZNSt6__ndk16__treeINS_12__value_typeINS_12basic_stringIcNS_11char_traitsIcEENS_9allocatorIcEEEENS_8functionIFNS_10shared_ptrIN5jinja7value_tEEERKNSA_9func_argsEEEEEENS_19__map_value_compareIS7_SI_NS_4lessIS7_EELb1EEENS5_ISI_EEE12__find_equalIS7_EERPNS_16__tree_node_baseIPvEENS_21__tree_const_iteratorISI_PNS_11__tree_nodeISI_SR_EElEERPNS_15__tree_end_nodeIST_EESU_RKT_
00000000003b2088 W _ZNSt6__ndk16__treeINS_12__value_typeINS_12basic_stringIcNS_11char_traitsIcEENS_9allocatorIcEEEENS_8functionIFNS_10shared_ptrIN5jinja7value_tEEERKNSA_9func_argsEEEEEENS_19__map_value_compareIS7_SI_NS_4lessIS7_EELb1EEENS5_ISI_EEE16__construct_nodeIJRKNS_4pairIKS7_SH_EEEEENS_10unique_ptrINS_11__tree_nodeISI_PvEENS_22__tree_node_destructorINS5_ISY_EEEEEEDpOT_
00000000003b2298 W _ZNSt6__ndk16__treeINS_12__value_typeINS_12basic_stringIcNS_11char_traitsIcEENS_9allocatorIcEEEENS_8functionIFNS_10shared_ptrIN5jinja7value_tEEERKNSA_9func_argsEEEEEENS_19__map_value_compareIS7_SI_NS_4lessIS7_EELb1EEENS5_ISI_EEE4findIS7_EENS_15__tree_iteratorISI_PNS_11__tree_nodeISI_PvEElEERKT_
0000000000451460 W _ZNSt6__ndk16__treeINS_12__value_typeINS_12basic_stringIcNS_11char_traitsIcEENS_9allocatorIcEEEENS_8functionIFvRKN7httplib3sse10SSEMessageEEEEEENS_19__map_value_compareIS7_SG_NS_4lessIS7_EELb1EEENS5_ISG_EEE25__emplace_unique_key_argsIS7_JRKNS_21piecewise_construct_tENS_5tupleIJRKS7_EEENSR_IJEEEEEENS_4pairINS_15__tree_iteratorISG_PNS_11__tree_nodeISG_PvEElEEbEERKT_DpOT0_
0000000000451ba8 W _ZNSt6__ndk16__treeINS_12__value_typeINS_12basic_stringIcNS_11char_traitsIcEENS_9allocatorIcEEEENS_8functionIFvRKN7httplib3sse10SSEMessageEEEEEENS_19__map_value_compareIS7_SG_NS_4lessIS7_EELb1EEENS5_ISG_EEE4findIS7_EENS_15__tree_iteratorISG_PNS_11__tree_nodeISG_PvEElEERKT_
00000000002255d0 W _ZNSt6__ndk16__treeINS_12__value_typeINS_12basic_stringIcNS_11char_traitsIcEENS_9allocatorIcEEEEP24ggml_backend_buffer_typeEENS_19__map_value_compareIS7_SA_NS_4lessIS7_EELb1EEENS5_ISA_EEE25__emplace_unique_key_argsIS7_JRKNS_21piecewise_construct_tENS_5tupleIJOS7_EEENSL_IJEEEEEENS_4pairINS_15__tree_iteratorISA_PNS_11__tree_nodeISA_PvEElEEbEERKT_DpOT0_
0000000000225744 W _ZNSt6__ndk16__treeINS_12__value_typeINS_12basic_stringIcNS_11char_traitsIcEENS_9allocatorIcEEEEP24ggml_backend_buffer_typeEENS_19__map_value_compareIS7_SA_NS_4lessIS7_EELb1EEENS5_ISA_EEE4findIS7_EENS_15__tree_iteratorISA_PNS_11__tree_nodeISA_PvEElEERKT_
000000000020af98 W _ZNSt6__ndk16__treeINS_12__value_typeINS_12basic_stringIcNS_11char_traitsIcEENS_9allocatorIcEEEES7_EENS_19__map_value_compareIS7_S8_NS_4lessIS7_EELb1EEENS5_IS8_EEE12__find_equalIS7_EERPNS_16__tree_node_baseIPvEENS_21__tree_const_iteratorIS8_PNS_11__tree_nodeIS8_SH_EElEERPNS_15__tree_end_nodeISJ_EESK_RKT_
000000000020eb78 W _ZNSt6__ndk16__treeINS_12__value_typeINS_12basic_stringIcNS_11char_traitsIcEENS_9allocatorIcEEEES7_EENS_19__map_value_compareIS7_S8_NS_4lessIS7_EELb1EEENS5_IS8_EEE14__assign_multiINS_21__tree_const_iteratorIS8_PNS_11__tree_nodeIS8_PvEElEEEEvT_SM_
0000000000372bc0 W _ZNSt6__ndk16__treeINS_12__value_typeINS_12basic_stringIcNS_11char_traitsIcEENS_9allocatorIcEEEES7_EENS_19__map_value_compareIS7_S8_NS_4lessIS7_EELb1EEENS5_IS8_EEE15__assign_uniqueIPKNS_4pairIKS7_S7_EEEEvT_SL_
000000000020ef90 W _ZNSt6__ndk16__treeINS_12__value_typeINS_12basic_stringIcNS_11char_traitsIcEENS_9allocatorIcEEEES7_EENS_19__map_value_compareIS7_S8_NS_4lessIS7_EELb1EEENS5_IS8_EEE15__emplace_multiIJRKNS_4pairIKS7_S7_EEEEENS_15__tree_iteratorIS8_PNS_11__tree_nodeIS8_PvEElEEDpOT_
0000000000453d24 W _ZNSt6__ndk16__treeINS_12__value_typeINS_12basic_stringIcNS_11char_traitsIcEENS_9allocatorIcEEEES7_EENS_19__map_value_compareIS7_S8_NS_4lessIS7_EELb1EEENS5_IS8_EEE15__emplace_multiIJS7_S7_EEENS_15__tree_iteratorIS8_PNS_11__tree_nodeIS8_PvEElEEDpOT_
000000000020b388 W _ZNSt6__ndk16__treeINS_12__value_typeINS_12basic_stringIcNS_11char_traitsIcEENS_9allocatorIcEEEES7_EENS_19__map_value_compareIS7_S8_NS_4lessIS7_EELb1EEENS5_IS8_EEE16__construct_nodeIJRKNS_4pairIKS7_S7_EEEEENS_10unique_ptrINS_11__tree_nodeIS8_PvEENS_22__tree_node_destructorINS5_ISO_EEEEEEDpOT_
000000000023b99c W _ZNSt6__ndk16__treeINS_12__value_typeINS_12basic_stringIcNS_11char_traitsIcEENS_9allocatorIcEEEES7_EENS_19__map_value_compareIS7_S8_NS_4lessIS7_EELb1EEENS5_IS8_EEE25__emplace_unique_key_argsIS7_JRKNS_21piecewise_construct_tENS_5tupleIJOS7_EEENSJ_IJEEEEEENS_4pairINS_15__tree_iteratorIS8_PNS_11__tree_nodeIS8_PvEElEEbEERKT_DpOT0_
000000000023b0c4 W _ZNSt6__ndk16__treeINS_12__value_typeINS_12basic_stringIcNS_11char_traitsIcEENS_9allocatorIcEEEES7_EENS_19__map_value_compareIS7_S8_NS_4lessIS7_EELb1EEENS5_IS8_EEE25__emplace_unique_key_argsIS7_JRKNS_21piecewise_construct_tENS_5tupleIJRKS7_EEENSJ_IJEEEEEENS_4pairINS_15__tree_iteratorIS8_PNS_11__tree_nodeIS8_PvEElEEbEERKT_DpOT0_
0000000000372f68 W _ZNSt6__ndk16__treeINS_12__value_typeINS_12basic_stringIcNS_11char_traitsIcEENS_9allocatorIcEEEES7_EENS_19__map_value_compareIS7_S8_NS_4lessIS7_EELb1EEENS5_IS8_EEE25__emplace_unique_key_argsIS7_JRKNS_4pairIKS7_S7_EEEEENSG_INS_15__tree_iteratorIS8_PNS_11__tree_nodeIS8_PvEElEEbEERKT_DpOT0_
00000000004530a8 W _ZNSt6__ndk16__treeINS_12__value_typeINS_12basic_stringIcNS_11char_traitsIcEENS_9allocatorIcEEEES7_EENS_19__map_value_compareIS7_S8_NS_4lessIS7_EELb1EEENS5_IS8_EEE25__emplace_unique_key_argsIS7_JS7_S7_EEENS_4pairINS_15__tree_iteratorIS8_PNS_11__tree_nodeIS8_PvEElEEbEERKT_DpOT0_
00000000003276f0 W _ZNSt6__ndk16__treeINS_12__value_typeINS_12basic_stringIcNS_11char_traitsIcEENS_9allocatorIcEEEES7_EENS_19__map_value_compareIS7_S8_NS_4lessIS7_EELb1EEENS5_IS8_EEE4findIS7_EENS_15__tree_iteratorIS8_PNS_11__tree_nodeIS8_PvEElEERKT_
00000000003e1e08 W _ZNSt6__ndk16__treeINS_12__value_typeINS_12basic_stringIcNS_11char_traitsIcEENS_9allocatorIcEEEEbEENS_19__map_value_compareIS7_S8_NS_4lessIS7_EELb1EEENS5_IS8_EEE12__find_equalIS7_EERPNS_16__tree_node_baseIPvEENS_21__tree_const_iteratorIS8_PNS_11__tree_nodeIS8_SH_EElEERPNS_15__tree_end_nodeISJ_EESK_RKT_
00000000003e1cd0 W _ZNSt6__ndk16__treeINS_12__value_typeINS_12basic_stringIcNS_11char_traitsIcEENS_9allocatorIcEEEEbEENS_19__map_value_compareIS7_S8_NS_4lessIS7_EELb1EEENS5_IS8_EEE30__emplace_hint_unique_key_argsIS7_JRKNS_4pairIKS7_bEEEEENSG_INS_15__tree_iteratorIS8_PNS_11__tree_nodeIS8_PvEElEEbEENS_21__tree_const_iteratorIS8_SP_lEERKT_DpOT0_
0000000000333f6c W _ZNSt6__ndk16__treeINS_12__value_typeINS_12basic_stringIcNS_11char_traitsIcEENS_9allocatorIcEEEEmEENS_19__map_value_compareIS7_S8_NS_4lessIS7_EELb1EEENS5_IS8_EEE25__emplace_unique_key_argsIS7_JRKNS_21piecewise_construct_tENS_5tupleIJRKS7_EEENSJ_IJEEEEEENS_4pairINS_15__tree_iteratorIS8_PNS_11__tree_nodeIS8_PvEElEEbEERKT_DpOT0_
0000000000333e68 W _ZNSt6__ndk16__treeINS_12__value_typeINS_12basic_stringIcNS_11char_traitsIcEENS_9allocatorIcEEEEmEENS_19__map_value_compareIS7_S8_NS_4lessIS7_EELb1EEENS5_IS8_EEE4findIS7_EENS_15__tree_iteratorIS8_PNS_11__tree_nodeIS8_PvEElEERKT_
00000000002d2bc4 W _ZNSt6__ndk16__treeINS_12__value_typeIccEENS_19__map_value_compareIcS2_NS_4lessIcEELb1EEENS_9allocatorIS2_EEE12__find_equalIcEERPNS_16__tree_node_baseIPvEENS_21__tree_const_iteratorIS2_PNS_11__tree_nodeIS2_SC_EElEERPNS_15__tree_end_nodeISE_EESF_RKT_
000000000020a294 W _ZNSt6__ndk16__treeINS_12basic_stringIcNS_11char_traitsIcEENS_9allocatorIcEEEENS_4lessIS6_EENS4_IS6_EEE12__find_equalIS6_EERPNS_16__tree_node_baseIPvEENS_21__tree_const_iteratorIS6_PNS_11__tree_nodeIS6_SD_EElEERPNS_15__tree_end_nodeISF_EESG_RKT_
000000000020d800 W _ZNSt6__ndk16__treeINS_12basic_stringIcNS_11char_traitsIcEENS_9allocatorIcEEEENS_4lessIS6_EENS4_IS6_EEE14__assign_multiINS_21__tree_const_iteratorIS6_PNS_11__tree_nodeIS6_PvEElEEEEvT_SI_
000000000020dbf8 W _ZNSt6__ndk16__treeINS_12basic_stringIcNS_11char_traitsIcEENS_9allocatorIcEEEENS_4lessIS6_EENS4_IS6_EEE15__emplace_multiIJRKS6_EEENS_15__tree_iteratorIS6_PNS_11__tree_nodeIS6_PvEElEEDpOT_
00000000002412d4 W _ZNSt6__ndk16__treeINS_12basic_stringIcNS_11char_traitsIcEENS_9allocatorIcEEEENS_4lessIS6_EENS4_IS6_EEE25__emplace_unique_key_argsIS6_JRKS6_EEENS_4pairINS_15__tree_iteratorIS6_PNS_11__tree_nodeIS6_PvEElEEbEERKT_DpOT0_
00000000003b2c40 W _ZNSt6__ndk16__treeINS_12basic_stringIcNS_11char_traitsIcEENS_9allocatorIcEEEENS_4lessIS6_EENS4_IS6_EEE25__emplace_unique_key_argsIS6_JS6_EEENS_4pairINS_15__tree_iteratorIS6_PNS_11__tree_nodeIS6_PvEElEEbEERKT_DpOT0_
000000000020a164 W _ZNSt6__ndk16__treeINS_12basic_stringIcNS_11char_traitsIcEENS_9allocatorIcEEEENS_4lessIS6_EENS4_IS6_EEE30__emplace_hint_unique_key_argsIS6_JRKS6_EEENS_4pairINS_15__tree_iteratorIS6_PNS_11__tree_nodeIS6_PvEElEEbEENS_21__tree_const_iteratorIS6_SJ_lEERKT_DpOT0_
000000000024f180 W _ZNSt6__ndk16__treeINS_12basic_stringIcNS_11char_traitsIcEENS_9allocatorIcEEEENS_4lessIS6_EENS4_IS6_EEE4findIS6_EENS_15__tree_iteratorIS6_PNS_11__tree_nodeIS6_PvEElEERKT_
0000000000209e50 W _ZNSt6__ndk16__treeIiNS_4lessIiEENS_9allocatorIiEEE12__find_equalIiEERPNS_16__tree_node_baseIPvEENS_21__tree_const_iteratorIiPNS_11__tree_nodeIiS8_EElEERPNS_15__tree_end_nodeISA_EESB_RKT_
000000000020d240 W _ZNSt6__ndk16__treeIiNS_4lessIiEENS_9allocatorIiEEE14__assign_multiINS_21__tree_const_iteratorIiPNS_11__tree_nodeIiPvEElEEEEvT_SD_
00000000002423b8 W _ZNSt6__ndk16vectorI10common_argNS_9allocatorIS1_EEE24__emplace_back_slow_pathIJRKS1_EEEPS1_DpOT_
000000000020f244 W _ZNSt6__ndk16vectorI10common_argNS_9allocatorIS1_EEE24__emplace_back_slow_pathIJS1_EEEPS1_DpOT_
00000000003741c0 W _ZNSt6__ndk16vectorI11local_modelNS_9allocatorIS1_EEE24__emplace_back_slow_pathIJRKS1_EEEPS1_DpOT_
00000000002cf95c W _ZNSt6__ndk16vectorI15common_chat_msgNS_9allocatorIS1_EEE18__assign_with_sizeB8ne210000IPKS1_S7_EEvT_T0_l
00000000002d08fc W _ZNSt6__ndk16vectorI15common_chat_msgNS_9allocatorIS1_EEE18__assign_with_sizeB8ne210000IPS1_S6_EEvT_T0_l
00000000002d0020 W _ZNSt6__ndk16vectorI15common_chat_msgNS_9allocatorIS1_EEE24__emplace_back_slow_pathIJRKS1_EEEPS1_DpOT_
00000000002d0520 W _ZNSt6__ndk16vectorI16common_chat_toolNS_9allocatorIS1_EEE24__emplace_back_slow_pathIJS1_EEEPS1_DpOT_
00000000002dde24 W _ZNSt6__ndk16vectorI16common_file_infoNS_9allocatorIS1_EEE24__emplace_back_slow_pathIJS1_EEEPS1_DpOT_
000000000038d828 W _ZNSt6__ndk16vectorI16common_ngram_mapNS_9allocatorIS1_EEE24__emplace_back_slow_pathIJRKS1_EEEPS1_DpOT_
000000000020d568 W _ZNSt6__ndk16vectorI16llama_logit_biasNS_9allocatorIS1_EEE18__assign_with_sizeB8ne210000IPS1_S6_EEvT_T0_l
00000000002de0f4 W _ZNSt6__ndk16vectorI16llama_logit_biasNS_9allocatorIS1_EEE18__insert_with_sizeB8ne210000INS_11__wrap_iterIPS1_EES8_EES8_NS6_IPKS1_EET_T0_l
000000000034ea18 W _ZNSt6__ndk16vectorI19common_peg_ast_nodeNS_9allocatorIS1_EEE24__emplace_back_slow_pathIJS1_EEEPS1_DpOT_
000000000020cd70 W _ZNSt6__ndk16vectorI19common_sampler_typeNS_9allocatorIS1_EEE18__assign_with_sizeB8ne210000IPS1_S6_EEvT_T0_l
00000000002cf6d4 W _ZNSt6__ndk16vectorI20common_chat_msg_diffNS_9allocatorIS1_EEE24__emplace_back_slow_pathIJEEEPS1_DpOT_
000000000023f6e0 W _ZNSt6__ndk16vectorI20common_download_taskNS_9allocatorIS1_EEE24__emplace_back_slow_pathIJRKS1_EEEPS1_DpOT_
000000000023f0ec W _ZNSt6__ndk16vectorI20common_download_taskNS_9allocatorIS1_EEE24__emplace_back_slow_pathIJS1_EEEPS1_DpOT_
00000000002b3008 W _ZNSt6__ndk16vectorI21common_chat_tool_callNS_9allocatorIS1_EEE16__init_with_sizeB8ne210000IPS1_S6_EEvT_T0_m
00000000002ccf98 W _ZNSt6__ndk16vectorI21common_chat_tool_callNS_9allocatorIS1_EEE18__assign_with_sizeB8ne210000IPS1_S6_EEvT_T0_l
000000000028c280 W _ZNSt6__ndk16vectorI21common_chat_tool_callNS_9allocatorIS1_EEE24__emplace_back_slow_pathIJRKS1_EEEPS1_DpOT_
0000000000209ab4 W _ZNSt6__ndk16vectorI22common_grammar_triggerNS_9allocatorIS1_EEE16__init_with_sizeB8ne210000IPS1_S6_EEvT_T0_m
000000000024b08c W _ZNSt6__ndk16vectorI22common_grammar_triggerNS_9allocatorIS1_EEE18__assign_with_sizeB8ne210000IPKS1_S7_EEvT_T0_l
000000000020cebc W _ZNSt6__ndk16vectorI22common_grammar_triggerNS_9allocatorIS1_EEE18__assign_with_sizeB8ne210000IPS1_S6_EEvT_T0_l
000000000024b410 W _ZNSt6__ndk16vectorI22common_grammar_triggerNS_9allocatorIS1_EEE24__emplace_back_slow_pathIJS1_EEEPS1_DpOT_
000000000020d6b4 W _ZNSt6__ndk16vectorI23common_speculative_typeNS_9allocatorIS1_EEE18__assign_with_sizeB8ne210000IPS1_S6_EEvT_T0_l
000000000023d284 W _ZNSt6__ndk16vectorI23common_speculative_typeNS_9allocatorIS1_EEE18__insert_with_sizeB8ne210000INS_11__wrap_iterIPS1_EES8_EES8_NS6_IPKS1_EET_T0_l
000000000020e0fc W _ZNSt6__ndk16vectorI23llama_model_kv_overrideNS_9allocatorIS1_EEE18__assign_with_sizeB8ne210000IPS1_S6_EEvT_T0_l
000000000020a8d0 W _ZNSt6__ndk16vectorI24common_adapter_lora_infoNS_9allocatorIS1_EEE16__init_with_sizeB8ne210000IPS1_S6_EEvT_T0_m
000000000020e3d8 W _ZNSt6__ndk16vectorI24common_adapter_lora_infoNS_9allocatorIS1_EEE18__assign_with_sizeB8ne210000IPS1_S6_EEvT_T0_l
0000000000234698 W _ZNSt6__ndk16vectorI24common_adapter_lora_infoNS_9allocatorIS1_EEE24__emplace_back_slow_pathIJS1_EEEPS1_DpOT_
00000000002f702c W _ZNSt6__ndk16vectorI24common_cached_model_infoNS_9allocatorIS1_EEE24__emplace_back_slow_pathIJS1_EEEPS1_DpOT_
00000000002cdbcc W _ZNSt6__ndk16vectorI25common_chat_msg_delimiterNS_9allocatorIS1_EEE16__init_with_sizeB8ne210000IPS1_S6_EEvT_T0_m
00000000002ce950 W _ZNSt6__ndk16vectorI25common_chat_msg_delimiterNS_9allocatorIS1_EEE24__emplace_back_slow_pathIJS1_EEEPS1_DpOT_
0000000000384e98 W _ZNSt6__ndk16vectorI25common_speculative_configNS_9allocatorIS1_EEE24__emplace_back_slow_pathIJS1_EEEPS1_DpOT_
00000000002cccfc W _ZNSt6__ndk16vectorI28common_chat_msg_content_partNS_9allocatorIS1_EEE18__assign_with_sizeB8ne210000IPS1_S6_EEvT_T0_l
00000000002cfd04 W _ZNSt6__ndk16vectorI28common_chat_msg_content_partNS_9allocatorIS1_EEE24__emplace_back_slow_pathIJRKS1_EEEPS1_DpOT_
000000000020ac0c W _ZNSt6__ndk16vectorI31common_control_vector_load_infoNS_9allocatorIS1_EEE16__init_with_sizeB8ne210000IPS1_S6_EEvT_T0_m
000000000020e810 W _ZNSt6__ndk16vectorI31common_control_vector_load_infoNS_9allocatorIS1_EEE18__assign_with_sizeB8ne210000IPS1_S6_EEvT_T0_l
00000000002350c0 W _ZNSt6__ndk16vectorI31common_control_vector_load_infoNS_9allocatorIS1_EEE24__emplace_back_slow_pathIJS1_EEEPS1_DpOT_
000000000020e28c W _ZNSt6__ndk16vectorI32llama_model_tensor_buft_overrideNS_9allocatorIS1_EEE18__assign_with_sizeB8ne210000IPS1_S6_EEvT_T0_l
0000000000252db4 W _ZNSt6__ndk16vectorI7segmentNS_9allocatorIS1_EEE24__emplace_back_slow_pathIJRKS1_EEEPS1_DpOT_
0000000000252bdc W _ZNSt6__ndk16vectorI7segmentNS_9allocatorIS1_EEE24__emplace_back_slow_pathIJS1_EEEPS1_DpOT_
000000000034e2b4 W _ZNSt6__ndk16vectorIN4trie4nodeENS_9allocatorIS2_EEE24__emplace_back_slow_pathIJEEEPS2_DpOT_
00000000003dc77c W _ZNSt6__ndk16vectorIN5jinja11string_partENS_9allocatorIS2_EEE16__init_with_sizeB8ne210000IPS2_S7_EEvT_T0_m
00000000003b2520 W _ZNSt6__ndk16vectorIN5jinja11string_partENS_9allocatorIS2_EEE18__assign_with_sizeB8ne210000IPS2_S7_EEvT_T0_l
00000000003ce670 W _ZNSt6__ndk16vectorIN5jinja11string_partENS_9allocatorIS2_EEE18__insert_with_sizeB8ne210000INS_11__wrap_iterIPKS2_EESA_EENS7_IPS2_EESA_T_T0_l
00000000003de884 W _ZNSt6__ndk16vectorIN5jinja11string_partENS_9allocatorIS2_EEE24__emplace_back_slow_pathIJRKS2_EEEPS2_DpOT_
00000000002b551c W _ZNSt6__ndk16vectorIN5jinja11string_partENS_9allocatorIS2_EEE24__emplace_back_slow_pathIJS2_EEEPS2_DpOT_
0000000000392674 W _ZNSt6__ndk16vectorIN5jinja5tokenENS_9allocatorIS2_EEE16__init_with_sizeB8ne210000IPS2_S7_EEvT_T0_m
0000000000392990 W _ZNSt6__ndk16vectorIN5jinja5tokenENS_9allocatorIS2_EEE24__emplace_back_slow_pathIJS2_EEEPS2_DpOT_
0000000000469cac W _ZNSt6__ndk16vectorIN7httplib3tls8SanEntryENS_9allocatorIS3_EEE24__emplace_back_slow_pathIJS3_EEEPS3_DpOT_
000000000045b660 W _ZNSt6__ndk16vectorIN7httplib6Server15MountPointEntryENS_9allocatorIS3_EEE24__emplace_back_slow_pathIJS3_EEEPS3_DpOT_
000000000045b1e0 W _ZNSt6__ndk16vectorIN7httplib6Server21WebSocketHandlerEntryENS_9allocatorIS3_EEE24__emplace_back_slow_pathIJS3_EEEPS3_DpOT_
00000000004637a8 W _ZNSt6__ndk16vectorIN7httplib6detail12NoProxyEntryENS_9allocatorIS3_EEE18__assign_with_sizeB8ne210000IPS3_S8_EEvT_T0_l
0000000000468e20 W _ZNSt6__ndk16vectorIN7httplib6detail12NoProxyEntryENS_9allocatorIS3_EEE24__emplace_back_slow_pathIJS3_EEEPS3_DpOT_
00000000004594c8 W _ZNSt6__ndk16vectorIN7httplib8FormDataENS_9allocatorIS2_EEE24__emplace_back_slow_pathIJRKS2_EEEPS2_DpOT_
00000000002066a0 W _ZNSt6__ndk16vectorIN8hf_cache7hf_fileENS_9allocatorIS2_EEE16__init_with_sizeB8ne210000IPS2_S7_EEvT_T0_m
00000000002f53e0 W _ZNSt6__ndk16vectorIN8hf_cache7hf_fileENS_9allocatorIS2_EEE24__emplace_back_slow_pathIJRKS2_EEEPS2_DpOT_
0000000000319d54 W _ZNSt6__ndk16vectorIN8hf_cache7hf_fileENS_9allocatorIS2_EEE24__emplace_back_slow_pathIJS2_EEEPS2_DpOT_
000000000024aebc W _ZNSt6__ndk16vectorIN8nlohmann16json_abi_v3_12_010basic_jsonINS2_11ordered_mapES0_NS_12basic_stringIcNS_11char_traitsIcEENS_9allocatorIcEEEEblmdS8_NS2_14adl_serializerENS0_IhNS8_IhEEEEvEENS8_ISE_EEE16__init_with_sizeB8ne210000IPKNS2_6detail8json_refISE_EESM_EEvT_T0_m
000000000021c39c W _ZNSt6__ndk16vectorIN8nlohmann16json_abi_v3_12_010basic_jsonINS2_11ordered_mapES0_NS_12basic_stringIcNS_11char_traitsIcEENS_9allocatorIcEEEEblmdS8_NS2_14adl_serializerENS0_IhNS8_IhEEEEvEENS8_ISE_EEE16__init_with_sizeB8ne210000IPSE_SI_EEvT_T0_m
0000000000330614 W _ZNSt6__ndk16vectorIN8nlohmann16json_abi_v3_12_010basic_jsonINS2_11ordered_mapES0_NS_12basic_stringIcNS_11char_traitsIcEENS_9allocatorIcEEEEblmdS8_NS2_14adl_serializerENS0_IhNS8_IhEEEEvEENS8_ISE_EEE18__assign_with_sizeB8ne210000IPSE_SI_EEvT_T0_l
00000000002b68d0 W _ZNSt6__ndk16vectorIN8nlohmann16json_abi_v3_12_010basic_jsonINS2_11ordered_mapES0_NS_12basic_stringIcNS_11char_traitsIcEENS_9allocatorIcEEEEblmdS8_NS2_14adl_serializerENS0_IhNS8_IhEEEEvEENS8_ISE_EEE18__insert_with_sizeB8ne210000INS_11__wrap_iterIPSE_EESK_EESK_NSI_IPKSE_EET_T0_l
0000000000221ed4 W _ZNSt6__ndk16vectorIN8nlohmann16json_abi_v3_12_010basic_jsonINS2_11ordered_mapES0_NS_12basic_stringIcNS_11char_traitsIcEENS_9allocatorIcEEEEblmdS8_NS2_14adl_serializerENS0_IhNS8_IhEEEEvEENS8_ISE_EEE24__emplace_back_slow_pathIJDnEEEPSE_DpOT_
00000000002211a0 W _ZNSt6__ndk16vectorIN8nlohmann16json_abi_v3_12_010basic_jsonINS2_11ordered_mapES0_NS_12basic_stringIcNS_11char_traitsIcEENS_9allocatorIcEEEEblmdS8_NS2_14adl_serializerENS0_IhNS8_IhEEEEvEENS8_ISE_EEE24__emplace_back_slow_pathIJNS2_6detail7value_tEEEEPSE_DpOT_
00000000002cf450 W _ZNSt6__ndk16vectorIN8nlohmann16json_abi_v3_12_010basic_jsonINS2_11ordered_mapES0_NS_12basic_stringIcNS_11char_traitsIcEENS_9allocatorIcEEEEblmdS8_NS2_14adl_serializerENS0_IhNS8_IhEEEEvEENS8_ISE_EEE24__emplace_back_slow_pathIJRKSE_EEEPSE_DpOT_
000000000022286c W _ZNSt6__ndk16vectorIN8nlohmann16json_abi_v3_12_010basic_jsonINS2_11ordered_mapES0_NS_12basic_stringIcNS_11char_traitsIcEENS_9allocatorIcEEEEblmdS8_NS2_14adl_serializerENS0_IhNS8_IhEEEEvEENS8_ISE_EEE24__emplace_back_slow_pathIJRSA_EEEPSE_DpOT_
0000000000221ab8 W _ZNSt6__ndk16vectorIN8nlohmann16json_abi_v3_12_010basic_jsonINS2_11ordered_mapES0_NS_12basic_stringIcNS_11char_traitsIcEENS_9allocatorIcEEEEblmdS8_NS2_14adl_serializerENS0_IhNS8_IhEEEEvEENS8_ISE_EEE24__emplace_back_slow_pathIJRbEEEPSE_DpOT_
000000000022167c W _ZNSt6__ndk16vectorIN8nlohmann16json_abi_v3_12_010basic_jsonINS2_11ordered_mapES0_NS_12basic_stringIcNS_11char_traitsIcEENS_9allocatorIcEEEEblmdS8_NS2_14adl_serializerENS0_IhNS8_IhEEEEvEENS8_ISE_EEE24__emplace_back_slow_pathIJRdEEEPSE_DpOT_
0000000000222300 W _ZNSt6__ndk16vectorIN8nlohmann16json_abi_v3_12_010basic_jsonINS2_11ordered_mapES0_NS_12basic_stringIcNS_11char_traitsIcEENS_9allocatorIcEEEEblmdS8_NS2_14adl_serializerENS0_IhNS8_IhEEEEvEENS8_ISE_EEE24__emplace_back_slow_pathIJRlEEEPSE_DpOT_
0000000000222d20 W _ZNSt6__ndk16vectorIN8nlohmann16json_abi_v3_12_010basic_jsonINS2_11ordered_mapES0_NS_12basic_stringIcNS_11char_traitsIcEENS_9allocatorIcEEEEblmdS8_NS2_14adl_serializerENS0_IhNS8_IhEEEEvEENS8_ISE_EEE24__emplace_back_slow_pathIJRmEEEPSE_DpOT_
000000000021b2e4 W _ZNSt6__ndk16vectorIN8nlohmann16json_abi_v3_12_010basic_jsonINS2_11ordered_mapES0_NS_12basic_stringIcNS_11char_traitsIcEENS_9allocatorIcEEEEblmdS8_NS2_14adl_serializerENS0_IhNS8_IhEEEEvEENS8_ISE_EEE24__emplace_back_slow_pathIJSE_EEEPSE_DpOT_
0000000000359484 W _ZNSt6__ndk16vectorIN8nlohmann16json_abi_v3_12_010basic_jsonINS_3mapES0_NS_12basic_stringIcNS_11char_traitsIcEENS_9allocatorIcEEEEblmdS8_NS2_14adl_serializerENS0_IhNS8_IhEEEEvEENS8_ISE_EEE16__init_with_sizeB8ne210000IPKNS2_6detail8json_refISE_EESM_EEvT_T0_m
0000000000311d98 W _ZNSt6__ndk16vectorIN8nlohmann16json_abi_v3_12_010basic_jsonINS_3mapES0_NS_12basic_stringIcNS_11char_traitsIcEENS_9allocatorIcEEEEblmdS8_NS2_14adl_serializerENS0_IhNS8_IhEEEEvEENS8_ISE_EEE16__init_with_sizeB8ne210000IPSE_SI_EEvT_T0_m
000000000031641c W _ZNSt6__ndk16vectorIN8nlohmann16json_abi_v3_12_010basic_jsonINS_3mapES0_NS_12basic_stringIcNS_11char_traitsIcEENS_9allocatorIcEEEEblmdS8_NS2_14adl_serializerENS0_IhNS8_IhEEEEvEENS8_ISE_EEE24__emplace_back_slow_pathIJDnEEEPSE_DpOT_
00000000003156e8 W _ZNSt6__ndk16vectorIN8nlohmann16json_abi_v3_12_010basic_jsonINS_3mapES0_NS_12basic_stringIcNS_11char_traitsIcEENS_9allocatorIcEEEEblmdS8_NS2_14adl_serializerENS0_IhNS8_IhEEEEvEENS8_ISE_EEE24__emplace_back_slow_pathIJNS2_6detail7value_tEEEEPSE_DpOT_
0000000000316db4 W _ZNSt6__ndk16vectorIN8nlohmann16json_abi_v3_12_010basic_jsonINS_3mapES0_NS_12basic_stringIcNS_11char_traitsIcEENS_9allocatorIcEEEEblmdS8_NS2_14adl_serializerENS0_IhNS8_IhEEEEvEENS8_ISE_EEE24__emplace_back_slow_pathIJRSA_EEEPSE_DpOT_
0000000000316000 W _ZNSt6__ndk16vectorIN8nlohmann16json_abi_v3_12_010basic_jsonINS_3mapES0_NS_12basic_stringIcNS_11char_traitsIcEENS_9allocatorIcEEEEblmdS8_NS2_14adl_serializerENS0_IhNS8_IhEEEEvEENS8_ISE_EEE24__emplace_back_slow_pathIJRbEEEPSE_DpOT_
0000000000315bc4 W _ZNSt6__ndk16vectorIN8nlohmann16json_abi_v3_12_010basic_jsonINS_3mapES0_NS_12basic_stringIcNS_11char_traitsIcEENS_9allocatorIcEEEEblmdS8_NS2_14adl_serializerENS0_IhNS8_IhEEEEvEENS8_ISE_EEE24__emplace_back_slow_pathIJRdEEEPSE_DpOT_
0000000000316848 W _ZNSt6__ndk16vectorIN8nlohmann16json_abi_v3_12_010basic_jsonINS_3mapES0_NS_12basic_stringIcNS_11char_traitsIcEENS_9allocatorIcEEEEblmdS8_NS2_14adl_serializerENS0_IhNS8_IhEEEEvEENS8_ISE_EEE24__emplace_back_slow_pathIJRlEEEPSE_DpOT_
0000000000317268 W _ZNSt6__ndk16vectorIN8nlohmann16json_abi_v3_12_010basic_jsonINS_3mapES0_NS_12basic_stringIcNS_11char_traitsIcEENS_9allocatorIcEEEEblmdS8_NS2_14adl_serializerENS0_IhNS8_IhEEEEvEENS8_ISE_EEE24__emplace_back_slow_pathIJRmEEEPSE_DpOT_
00000000003108ec W _ZNSt6__ndk16vectorIN8nlohmann16json_abi_v3_12_010basic_jsonINS_3mapES0_NS_12basic_stringIcNS_11char_traitsIcEENS_9allocatorIcEEEEblmdS8_NS2_14adl_serializerENS0_IhNS8_IhEEEEvEENS8_ISE_EEE24__emplace_back_slow_pathIJSE_EEEPSE_DpOT_
00000000003b1a3c W _ZNSt6__ndk16vectorINS_10shared_ptrIN5jinja7value_tEEENS_9allocatorIS4_EEE12emplace_backIJRKS4_EEERS4_DpOT_
000000000039dc60 W _ZNSt6__ndk16vectorINS_10shared_ptrIN5jinja7value_tEEENS_9allocatorIS4_EEE18__assign_with_sizeB8ne210000IPS4_S9_EEvT_T0_l
00000000002e34e4 W _ZNSt6__ndk16vectorINS_11basic_regexIcNS_12regex_traitsIcEEEENS_9allocatorIS4_EEE24__emplace_back_slow_pathIJRNS_12basic_stringIcNS_11char_traitsIcEENS5_IcEEEERKNS_15regex_constants18syntax_option_typeEEEEPS4_DpOT_
0000000000332c30 W _ZNSt6__ndk16vectorINS_12basic_stringIcNS_11char_traitsIcEENS_9allocatorIcEEEENS4_IS6_EEE16__init_with_sizeB8ne210000INS_11__wrap_iterIPKS6_EESD_EEvT_T0_m
0000000000332d98 W _ZNSt6__ndk16vectorINS_12basic_stringIcNS_11char_traitsIcEENS_9allocatorIcEEEENS4_IS6_EEE16__init_with_sizeB8ne210000INS_11__wrap_iterIPS6_EESC_EEvT_T0_m
0000000000232a00 W _ZNSt6__ndk16vectorINS_12basic_stringIcNS_11char_traitsIcEENS_9allocatorIcEEEENS4_IS6_EEE16__init_with_sizeB8ne210000INS_20regex_token_iteratorINS_11__wrap_iterIPKcEEcNS_12regex_traitsIcEEEESH_EEvT_T0_m
00000000002087c4 W _ZNSt6__ndk16vectorINS_12basic_stringIcNS_11char_traitsIcEENS_9allocatorIcEEEENS4_IS6_EEE16__init_with_sizeB8ne210000IPKS6_SB_EEvT_T0_m
000000000020a740 W _ZNSt6__ndk16vectorINS_12basic_stringIcNS_11char_traitsIcEENS_9allocatorIcEEEENS4_IS6_EEE16__init_with_sizeB8ne210000IPS6_SA_EEvT_T0_m
0000000000236cd4 W _ZNSt6__ndk16vectorINS_12basic_stringIcNS_11char_traitsIcEENS_9allocatorIcEEEENS4_IS6_EEE18__assign_with_sizeB8ne210000IPKS6_SB_EEvT_T0_l
000000000020dda0 W _ZNSt6__ndk16vectorINS_12basic_stringIcNS_11char_traitsIcEENS_9allocatorIcEEEENS4_IS6_EEE18__assign_with_sizeB8ne210000IPS6_SA_EEvT_T0_l
0000000000233164 W _ZNSt6__ndk16vectorINS_12basic_stringIcNS_11char_traitsIcEENS_9allocatorIcEEEENS4_IS6_EEE18__construct_at_endINS_20regex_token_iteratorINS_11__wrap_iterIPKcEEcNS_12regex_traitsIcEEEESH_EEvT_T0_m
0000000000249c00 W _ZNSt6__ndk16vectorINS_12basic_stringIcNS_11char_traitsIcEENS_9allocatorIcEEEENS4_IS6_EEE18__insert_with_sizeB8ne210000INS_11__wrap_iterIPKS6_EESD_EENSA_IPS6_EESD_T_T0_l
00000000002111a8 W _ZNSt6__ndk16vectorINS_12basic_stringIcNS_11char_traitsIcEENS_9allocatorIcEEEENS4_IS6_EEE24__emplace_back_slow_pathIJRKS6_EEEPS6_DpOT_
00000000002e1d64 W _ZNSt6__ndk16vectorINS_12basic_stringIcNS_11char_traitsIcEENS_9allocatorIcEEEENS4_IS6_EEE24__emplace_back_slow_pathIJRNS_17basic_string_viewIcS3_EEEEEPS6_DpOT_
00000000004588f8 W _ZNSt6__ndk16vectorINS_12basic_stringIcNS_11char_traitsIcEENS_9allocatorIcEEEENS4_IS6_EEE24__emplace_back_slow_pathIJRPKcSC_EEEPS6_DpOT_
00000000002071dc W _ZNSt6__ndk16vectorINS_12basic_stringIcNS_11char_traitsIcEENS_9allocatorIcEEEENS4_IS6_EEE24__emplace_back_slow_pathIJRS6_EEEPS6_DpOT_
0000000000226834 W _ZNSt6__ndk16vectorINS_12basic_stringIcNS_11char_traitsIcEENS_9allocatorIcEEEENS4_IS6_EEEC2B8ne210000INS_20regex_token_iteratorINS_11__wrap_iterIPKcEEcNS_12regex_traitsIcEEEETnNS_9enable_ifIXaasr31__has_forward_iterator_categoryIT_EE5valuesr16is_constructibleIS6_NS_15iterator_traitsISJ_E9referenceEEE5valueEiE4typeELi0EEESJ_SJ_
00000000002f71ec W _ZNSt6__ndk16vectorINS_4__fs10filesystem4pathENS_9allocatorIS3_EEE24__emplace_back_slow_pathIJRKNS_12basic_stringIcNS_11char_traitsIcEENS4_IcEEEEEEEPS3_DpOT_
00000000002f7490 W _ZNSt6__ndk16vectorINS_4__fs10filesystem4pathENS_9allocatorIS3_EEE24__emplace_back_slow_pathIJS3_EEEPS3_DpOT_
000000000028d43c W _ZNSt6__ndk16vectorINS_4pairI17common_peg_parserNS_12basic_stringIcNS_11char_traitsIcEENS_9allocatorIcEEEEEENS6_IS9_EEE24__emplace_back_slow_pathIJRS2_RKS8_EEEPS9_DpOT_
000000000028d824 W _ZNSt6__ndk16vectorINS_4pairI17common_peg_parserNS_12basic_stringIcNS_11char_traitsIcEENS_9allocatorIcEEEEEENS6_IS9_EEE24__emplace_back_slow_pathIJS2_RKS8_EEEPS9_DpOT_
000000000021c088 W _ZNSt6__ndk16vectorINS_4pairIKNS_12basic_stringIcNS_11char_traitsIcEENS_9allocatorIcEEEEN8nlohmann16json_abi_v3_12_010basic_jsonINSA_11ordered_mapES0_S7_blmdS5_NSA_14adl_serializerENS0_IhNS5_IhEEEEvEEEENS5_ISH_EEE16__init_with_sizeB8ne210000IPSH_SL_EEvT_T0_m
00000000002cefa0 W _ZNSt6__ndk16vectorINS_4pairIKNS_12basic_stringIcNS_11char_traitsIcEENS_9allocatorIcEEEEN8nlohmann16json_abi_v3_12_010basic_jsonINSA_11ordered_mapES0_S7_blmdS5_NSA_14adl_serializerENS0_IhNS5_IhEEEEvEEEENS5_ISH_EEE24__emplace_back_slow_pathIJRKSH_EEEPSH_DpOT_
000000000021e19c W _ZNSt6__ndk16vectorINS_4pairIKNS_12basic_stringIcNS_11char_traitsIcEENS_9allocatorIcEEEEN8nlohmann16json_abi_v3_12_010basic_jsonINSA_11ordered_mapES0_S7_blmdS5_NSA_14adl_serializerENS0_IhNS5_IhEEEEvEEEENS5_ISH_EEE24__emplace_back_slow_pathIJRS8_SG_EEEPSH_DpOT_
00000000003d97e8 W _ZNSt6__ndk16vectorINS_4pairINS_10shared_ptrIN5jinja7value_tEEES5_EENS_9allocatorIS6_EEE18__assign_with_sizeB8ne210000IPS6_SB_EEvT_T0_l
000000000045a9d8 W _ZNSt6__ndk16vectorINS_4pairINS_10unique_ptrIN7httplib6detail11MatcherBaseENS_14default_deleteIS5_EEEENS_8functionIFvRKNS3_7RequestERNS3_8ResponseEEEEEENS_9allocatorISH_EEE24__emplace_back_slow_pathIJS8_SG_EEEPSH_DpOT_
000000000045addc W _ZNSt6__ndk16vectorINS_4pairINS_10unique_ptrIN7httplib6detail11MatcherBaseENS_14default_deleteIS5_EEEENS_8functionIFvRKNS3_7RequestERNS3_8ResponseERKNS3_13ContentReaderEEEEEENS_9allocatorISK_EEE24__emplace_back_slow_pathIJS8_SJ_EEEPSK_DpOT_
00000000002d2dbc W _ZNSt6__ndk16vectorINS_4pairINS_12basic_stringIcNS_11char_traitsIcEENS_9allocatorIcEEEEN5jinja5token4typeEEENS5_ISB_EEE16__init_with_sizeB8ne210000IPKSB_SG_EEvT_T0_m
0000000000330904 W _ZNSt6__ndk16vectorINS_4pairINS_12basic_stringIcNS_11char_traitsIcEENS_9allocatorIcEEEEN8nlohmann16json_abi_v3_12_010basic_jsonINS9_11ordered_mapES0_S7_blmdS5_NS9_14adl_serializerENS0_IhNS5_IhEEEEvEEEENS5_ISG_EEE24__emplace_back_slow_pathIJRKS7_RKSF_EEEPSG_DpOT_
000000000020741c W _ZNSt6__ndk16vectorINS_4pairINS_12basic_stringIcNS_11char_traitsIcEENS_9allocatorIcEEEES7_EENS5_IS8_EEE18__assign_with_sizeB8ne210000IPS8_SC_EEvT_T0_l
000000000033710c W _ZNSt6__ndk16vectorINS_4pairINS_12basic_stringIcNS_11char_traitsIcEENS_9allocatorIcEEEEbEENS5_IS8_EEE24__emplace_back_slow_pathIJRA2_KcbEEEPS8_DpOT_
0000000000336da0 W _ZNSt6__ndk16vectorINS_4pairINS_12basic_stringIcNS_11char_traitsIcEENS_9allocatorIcEEEEbEENS5_IS8_EEE24__emplace_back_slow_pathIJRKS8_EEEPS8_DpOT_
0000000000336f50 W _ZNSt6__ndk16vectorINS_4pairINS_12basic_stringIcNS_11char_traitsIcEENS_9allocatorIcEEEEbEENS5_IS8_EEE24__emplace_back_slow_pathIJRS7_bEEEPS8_DpOT_
000000000023220c W _ZNSt6__ndk16vectorINS_4pairImPKcEENS_9allocatorIS4_EEE18__assign_with_sizeB8ne210000IPS4_S9_EEvT_T0_l
000000000040c5bc W _ZNSt6__ndk16vectorINS_6threadENS_9allocatorIS1_EEE12emplace_backIJS1_EEERS1_DpOT_
00000000002295f0 W _ZNSt6__ndk16vectorINS_7__stateIcEENS_9allocatorIS2_EEE24__emplace_back_slow_pathIJS2_EEEPS2_DpOT_
00000000002cdf30 W _ZNSt6__ndk16vectorINS_7variantIJ25common_peg_epsilon_parser23common_peg_start_parser21common_peg_end_parser25common_peg_literal_parser26common_peg_sequence_parser24common_peg_choice_parser28common_peg_repetition_parser21common_peg_and_parser21common_peg_not_parser21common_peg_any_parser23common_peg_space_parser23common_peg_chars_parser24common_peg_string_parser23common_peg_until_parser24common_peg_schema_parser22common_peg_rule_parser21common_peg_ref_parser24common_peg_atomic_parser21common_peg_tag_parser22common_peg_gbnf_parser20common_peg_ac_parserEEENS_9allocatorISN_EEE16__init_with_sizeB8ne210000IPSN_SS_EEvT_T0_m
000000000035c460 W _ZNSt6__ndk16vectorINS_7variantIJ25common_peg_epsilon_parser23common_peg_start_parser21common_peg_end_parser25common_peg_literal_parser26common_peg_sequence_parser24common_peg_choice_parser28common_peg_repetition_parser21common_peg_and_parser21common_peg_not_parser21common_peg_any_parser23common_peg_space_parser23common_peg_chars_parser24common_peg_string_parser23common_peg_until_parser24common_peg_schema_parser22common_peg_rule_parser21common_peg_ref_parser24common_peg_atomic_parser21common_peg_tag_parser22common_peg_gbnf_parser20common_peg_ac_parserEEENS_9allocatorISN_EEE24__emplace_back_slow_pathIJSN_EEEPSN_DpOT_
0000000000270218 W _ZNSt6__ndk16vectorINS_8functionIFvRK20common_chat_templateRN10autoparser10autoparserEEEENS_9allocatorIS9_EEE16__init_with_sizeB8ne210000IPKS9_SF_EEvT_T0_m
00000000003b3758 W _ZNSt6__ndk16vectorINS_8functionIFvRN5jinja7contextEEEENS_9allocatorIS6_EEE24__emplace_back_slow_pathIJRKS6_EEEPS6_DpOT_
0000000000232008 W _ZNSt6__ndk16vectorINS_9sub_matchIPKcEENS_9allocatorIS4_EEE18__assign_with_sizeB8ne210000IPS4_S9_EEvT_T0_l
000000000020cad8 W _ZNSt6__ndk16vectorIP19ggml_backend_deviceNS_9allocatorIS2_EEE18__assign_with_sizeB8ne210000IPS2_S7_EEvT_T0_l
00000000002ff510 W _ZNSt6__ndk16vectorIP24ggml_backend_buffer_typeNS_9allocatorIS2_EEE18__assign_with_sizeB8ne210000IPS2_S7_EEvT_T0_l
00000000003714b0 W _ZNSt6__ndk16vectorIPKcNS_9allocatorIS2_EEE18__assign_with_sizeB8ne210000IPS2_S7_EEvT_T0_l
00000000002f6428 W _ZNSt6__ndk16vectorIcNS_9allocatorIcEEE18__insert_with_sizeB8ne210000IPKcS6_EENS_11__wrap_iterIPcEENS7_IS6_EET_T0_l
000000000038b460 W _ZNSt6__ndk16vectorIfNS_9allocatorIfEEE18__assign_with_sizeB8ne210000INS_11__wrap_iterIPfEES7_EEvT_T0_l
00000000003893f8 W _ZNSt6__ndk16vectorIfNS_9allocatorIfEEE18__assign_with_sizeB8ne210000IPfS5_EEvT_T0_l
000000000038b5a4 W _ZNSt6__ndk16vectorIfNS_9allocatorIfEEE18__insert_with_sizeB8ne210000IPKfS6_EENS_11__wrap_iterIPfEENS7_IS6_EET_T0_l
000000000020f0e4 W _ZNSt6__ndk16vectorIiNS_9allocatorIiEEE18__assign_with_sizeB8ne210000IPiS5_EEvT_T0_l
00000000002363a8 W _ZNSt6__ndk16vectorIiNS_9allocatorIiEEE18__insert_with_sizeB8ne210000INS_11__wrap_iterIPiEES7_EES7_NS5_IPKiEET_T0_l
00000000002ff374 W _ZNSt6__ndk16vectorIlNS_9allocatorIlEEE18__assign_with_sizeB8ne210000IPlS5_EEvT_T0_l
000000000020cc24 W _ZNSt6__ndk16vectorImNS_9allocatorImEEE18__assign_with_sizeB8ne210000IPmS5_EEvT_T0_l
000000000035cda8 W _ZNSt6__ndk16vectorImNS_9allocatorImEEE18__insert_with_sizeB8ne210000INS_11__wrap_iterIPKmEES8_EENS5_IPmEES8_T_T0_l
000000000034bb44 W _ZNSt6__ndk16vectorImNS_9allocatorImEEE18__insert_with_sizeB8ne210000INS_11__wrap_iterIPmEES7_EES7_NS5_IPKmEET_T0_l
0000000000229384 W _ZNSt6__ndk17__stateIcEC2ERKS1_
00000000002292e4 W _ZNSt6__ndk17__stateIcED2Ev
000000000040b444 W _ZNSt6__ndk18functionIFbmmRN7httplib8DataSinkEEEaSINS1_6detail22ContentProviderAdapterEvEERS5_OT_
000000000058359c T _ZNSt6__ndk18ios_base4InitC1Ev
000000000058359c T _ZNSt6__ndk18ios_base4InitC2Ev
000000000058362c T _ZNSt6__ndk18ios_base4InitD1Ev
000000000058362c T _ZNSt6__ndk18ios_base4InitD2Ev
00000000004501d4 W _ZNSt6__ndk18multimapINS_12basic_stringIcNS_11char_traitsIcEENS_9allocatorIcEEEEN7httplib8FormDataENS_4lessIS6_EENS4_INS_4pairIKS6_S8_EEEEE6insertB8ne210000INS_20__map_const_iteratorINS_21__tree_const_iteratorINS_12__value_typeIS6_S8_EEPNS_11__tree_nodeISK_PvEElEEEEEEvT_SR_
000000000044f8fc W _ZNSt6__ndk18multimapINS_12basic_stringIcNS_11char_traitsIcEENS_9allocatorIcEEEES6_NS_4lessIS6_EENS4_INS_4pairIKS6_S6_EEEEE6insertB8ne210000INS_20__map_const_iteratorINS_21__tree_const_iteratorINS_12__value_typeIS6_S6_EEPNS_11__tree_nodeISI_PvEElEEEEEEvT_SP_
00000000002a6c48 W _ZNSt6__ndk18optionalI18common_chat_paramsEC2B8ne210000IS1_TnNS_9enable_ifIXclsr22_CheckOptionalArgsCtorIT_EE17__enable_implicitIS5_EEEiE4typeELi0EEEOS5_
00000000003b4ecc W _ZNSt6__ndk19allocatorIN5jinja12value_func_tEE9constructB8ne210000IS2_JRA7_KcRKNS_8functionIFNS_10shared_ptrINS1_7value_tEEERKNS1_9func_argsEEEEEEEvPT_DpOT0_
00000000003dcef0 W _ZNSt6__ndk19allocatorIN5jinja14value_string_tEE9constructB8ne210000IS2_JPKcEEEvPT_DpOT0_
00000000003cfc38 W _ZNSt6__ndk19allocatorIN5jinja14value_string_tEE9constructB8ne210000IS2_JRA1_KcEEEvPT_DpOT0_
00000000003dd150 W _ZNSt6__ndk19allocatorIN5jinja14value_string_tEE9constructB8ne210000IS2_JRA5_KcEEEvPT_DpOT0_
00000000003b5010 W _ZNSt6__ndk19allocatorIN5jinja17value_undefined_tEE9constructB8ne210000IS2_JRA16_KcEEEvPT_DpOT0_
00000000003b3a68 W _ZNSt6__ndk19allocatorIN5jinja17value_undefined_tEE9constructB8ne210000IS2_JRA9_KcEEEvPT_DpOT0_
000000000059aba8 V _ZTI11ProgressBar
0000000000598cf0 D _ZTI22common_chat_peg_mapper
000000000059c838 V _ZTI23common_speculative_impl
000000000059abc0 V _ZTI24common_download_callback
000000000059add0 V _ZTI27common_params_fit_exception
0000000000598d38 D _ZTI29common_chat_peg_gemma4_mapper
000000000059c9f8 V _ZTI33common_speculative_impl_draft_mtp
000000000059cbd8 V _ZTI33common_speculative_impl_ngram_mod
000000000059c820 V _ZTI35common_speculative_impl_ngram_cache
000000000059cb60 V _ZTI35common_speculative_impl_ngram_map_k
000000000059ca70 V _ZTI36common_speculative_impl_draft_dflash
000000000059c980 V _ZTI36common_speculative_impl_draft_eagle3
000000000059c908 V _ZTI36common_speculative_impl_draft_simple
000000000059cae8 V _ZTI36common_speculative_impl_ngram_simple
000000000059db90 V _ZTIFNSt6__ndk110shared_ptrIN5jinja7value_tEEERKNS1_9func_argsEE
000000000059ccd0 V _ZTIFbcE
00000000005a2b10 V _ZTIFlRN7httplib6StreamERKNSt6__ndk118unordered_multimapINS2_12basic_stringIcNS2_11char_traitsIcEENS2_9allocatorIcEEEES9_NS_6detail11case_ignore4hashENSB_8equal_toENS7_INS2_4pairIKS9_S9_EEEEEEE
00000000005a2a60 V _ZTIFviE
0000000000596af8 V _ZTIN10autoparser12analyze_baseE
0000000000596b70 D _ZTIN10autoparser13analyze_toolsE
0000000000596b30 D _ZTIN10autoparser15analyze_contentE
0000000000596ae0 D _ZTIN10autoparser17analyze_reasoningE
000000000059cf10 V _ZTIN5jinja10expressionE
000000000059d768 D _ZTIN5jinja10identifierE
000000000059e220 D _ZTIN5jinja11value_int_tE
000000000059d588 D _ZTIN5jinja12if_statementE
000000000059e568 D _ZTIN5jinja12value_bool_tE
000000000059db78 V _ZTIN5jinja12value_func_tE
000000000059e8b0 D _ZTIN5jinja12value_none_tE
000000000059d4b8 V _ZTIN5jinja13array_literalE
000000000059d3c8 V _ZTIN5jinja13float_literalE
000000000059d5d8 D _ZTIN5jinja13for_statementE
000000000059d628 D _ZTIN5jinja13set_statementE
000000000059d0a0 V _ZTIN5jinja13tuple_literalE
000000000059e680 D _ZTIN5jinja13value_array_tE
000000000059e338 D _ZTIN5jinja13value_float_tE
000000000059e010 V _ZTIN5jinja13value_kwarg_tE
000000000059d208 V _ZTIN5jinja13value_tuple_tE
000000000059d9e8 D _ZTIN5jinja14call_statementE
000000000059d508 V _ZTIN5jinja14noop_statementE
000000000059d7b8 D _ZTIN5jinja14object_literalE
000000000059cef8 V _ZTIN5jinja14string_literalE
000000000059e798 D _ZTIN5jinja14value_object_tE
000000000059e450 D _ZTIN5jinja14value_string_tE
000000000059d270 V _ZTIN5jinja15break_statement6signalE
000000000059d258 V _ZTIN5jinja15break_statementE
000000000059d718 D _ZTIN5jinja15call_expressionE
000000000059d468 V _ZTIN5jinja15integer_literalE
000000000059cbf0 V _ZTIN5jinja15lexer_exceptionE
000000000059d678 D _ZTIN5jinja15macro_statementE
000000000059d8f8 D _ZTIN5jinja15test_expressionE
000000000059cfb0 V _ZTIN5jinja16blank_expressionE
000000000059d8a8 D _ZTIN5jinja16filter_statementE
000000000059ce80 V _ZTIN5jinja16parser_exceptionE
000000000059e108 V _ZTIN5jinja16raised_exceptionE
000000000059cf60 V _ZTIN5jinja16slice_expressionE
000000000059d948 D _ZTIN5jinja16unary_expressionE
000000000059d808 D _ZTIN5jinja17binary_expressionE
000000000059ce18 V _ZTIN5jinja17comment_statementE
000000000059d858 D _ZTIN5jinja17filter_expressionE
000000000059d6c8 D _ZTIN5jinja17member_expressionE
000000000059d050 V _ZTIN5jinja17select_expressionE
000000000059d378 V _ZTIN5jinja17spread_expressionE
000000000059e9c8 D _ZTIN5jinja17value_undefined_tE
000000000059d300 V _ZTIN5jinja18continue_statement6signalE
000000000059d2e8 V _ZTIN5jinja18continue_statementE
000000000059d520 V _ZTIN5jinja18rethrown_exceptionE
000000000059d000 V _ZTIN5jinja18ternary_expressionE
000000000059d538 V _ZTIN5jinja25not_implemented_exceptionE
000000000059d998 D _ZTIN5jinja27keyword_argument_expressionE
000000000059aa50 V _ZTIN5jinja7programE
00000000005992a8 V _ZTIN5jinja7value_tE
000000000059aa68 V _ZTIN5jinja9statementE
00000000005a1c10 D _ZTIN7httplib10ClientImplE
00000000005a1af0 D _ZTIN7httplib10ThreadPoolE
00000000005a1c00 D _ZTIN7httplib6ServerE
00000000005a1b30 V _ZTIN7httplib6StreamE
00000000005a1ae0 V _ZTIN7httplib6detail10compressorE
00000000005a1a90 V _ZTIN7httplib6detail11MatcherBaseE
00000000005a1bb8 D _ZTIN7httplib6detail12BufferStreamE
00000000005a1a78 D _ZTIN7httplib6detail12RegexMatcherE
00000000005a1b18 D _ZTIN7httplib6detail12SocketStreamE
00000000005a1ac8 D _ZTIN7httplib6detail12nocompressorE
00000000005a1be8 D _ZTIN7httplib6detail15SSLSocketStreamE
00000000005a1bd0 D _ZTIN7httplib6detail17PathParamsMatcherE
00000000005a2920 V _ZTIN7httplib6detail22ContentProviderAdapterE
00000000005a1cf8 V _ZTIN7httplib7Request20is_connection_closedMUlvE_E
00000000005a1d88 V _ZTIN7httplib8DataSink19data_sink_streambufE
00000000005a1c38 D _ZTIN7httplib9SSLClientE
00000000005a1c20 D _ZTIN7httplib9SSLServerE
00000000005a1b08 V _ZTIN7httplib9TaskQueueE
0000000000595e20 V _ZTIN8nlohmann16json_abi_v3_12_06detail10type_errorE
0000000000595e60 V _ZTIN8nlohmann16json_abi_v3_12_06detail11parse_errorE
0000000000595da0 V _ZTIN8nlohmann16json_abi_v3_12_06detail12out_of_rangeE
0000000000595de0 V _ZTIN8nlohmann16json_abi_v3_12_06detail16invalid_iteratorE
0000000000596610 V _ZTIN8nlohmann16json_abi_v3_12_06detail21output_string_adapterIcNSt6__ndk112basic_stringIcNS3_11char_traitsIcEENS3_9allocatorIcEEEEEE
0000000000596628 V _ZTIN8nlohmann16json_abi_v3_12_06detail23output_adapter_protocolIcEE
0000000000595d60 V _ZTIN8nlohmann16json_abi_v3_12_06detail9exceptionE
00000000005b3ec8 D _ZTINSt12experimental19bad_optional_accessE
00000000005962f0 V _ZTINSt6__ndk110__back_refIcEE
0000000000596dc0 V _ZTINSt6__ndk110__function6__baseIF17common_peg_parserR23common_chat_peg_builderEEE
0000000000596ff8 V _ZTINSt6__ndk110__function6__baseIF17common_peg_parserR25common_peg_parser_builderEEE
0000000000598fd8 V _ZTINSt6__ndk110__function6__baseIF17common_peg_parservEEE
00000000005a2b90 V _ZTINSt6__ndk110__function6__baseIFN7httplib6Server15HandlerResponseERKNS2_7RequestERNS2_8ResponseEEEE
000000000059afa0 V _ZTINSt6__ndk110__function6__baseIFN8nlohmann16json_abi_v3_12_010basic_jsonINS3_11ordered_mapENS_6vectorENS_12basic_stringIcNS_11char_traitsIcEENS_9allocatorIcEEEEblmdSA_NS3_14adl_serializerENS6_IhNSA_IhEEEEvEERKSC_EEE
00000000005a1040 V _ZTINSt6__ndk110__function6__baseIFN8nlohmann16json_abi_v3_12_010basic_jsonINS3_11ordered_mapENS_6vectorENS_12basic_stringIcNS_11char_traitsIcEENS_9allocatorIcEEEEblmdSA_NS3_14adl_serializerENS6_IhNSA_IhEEEEvEEvEEE
000000000059de20 V _ZTINSt6__ndk110__function6__baseIFNS_10shared_ptrIN5jinja7value_tEEERKNS3_9func_argsEEEE
000000000059ae80 V _ZTINSt6__ndk110__function6__baseIFNS_12basic_stringIcNS_11char_traitsIcEENS_9allocatorIcEEEERKNS_13match_resultsINS_11__wrap_iterIPKcEENS5_INS_9sub_matchISC_EEEEEEEEE
000000000059b360 V _ZTINSt6__ndk110__function6__baseIFNS_12basic_stringIcNS_11char_traitsIcEENS_9allocatorIcEEEERKNS_6vectorIS7_NS5_IS7_EEEEbEEE
000000000059c5f8 V _ZTINSt6__ndk110__function6__baseIFNS_12basic_stringIcNS_11char_traitsIcEENS_9allocatorIcEEEERKNS_6vectorIjNS5_IjEEEERKNS_3mapImSA_NS_4lessImEENS5_INS_4pairIKmSA_EEEEEESC_RKNS_8functionIFS7_mEEEEEE
00000000005a0e30 V _ZTINSt6__ndk110__function6__baseIFNS_12basic_stringIcNS_11char_traitsIcEENS_9allocatorIcEEEERKS7_EEE
000000000059b250 V _ZTINSt6__ndk110__function6__baseIFNS_12basic_stringIcNS_11char_traitsIcEENS_9allocatorIcEEEERKS7_RKN8nlohmann16json_abi_v3_12_010basic_jsonINSB_11ordered_mapENS_6vectorES7_blmdS5_NSB_14adl_serializerENSE_IhNS5_IhEEEEvEEEEE
000000000059b1c0 V _ZTINSt6__ndk110__function6__baseIFNS_12basic_stringIcNS_11char_traitsIcEENS_9allocatorIcEEEERKS7_S9_EEE
000000000059c450 V _ZTINSt6__ndk110__function6__baseIFNS_12basic_stringIcNS_11char_traitsIcEENS_9allocatorIcEEEEmEEE
000000000059b480 V _ZTINSt6__ndk110__function6__baseIFNS_4pairINS_12basic_stringIcNS_11char_traitsIcEENS_9allocatorIcEEEEbEEvEEE
00000000005a29a0 V _ZTINSt6__ndk110__function6__baseIFPN7httplib9TaskQueueEvEEE
00000000005a39a0 V _ZTINSt6__ndk110__function6__baseIFbNS_8functionIFbPKcmEEEEEE
00000000005a3a30 V _ZTINSt6__ndk110__function6__baseIFbNS_8functionIFbRKN7httplib8FormDataEEEENS2_IFbPKcmEEEEEE
00000000005a2130 V _ZTINSt6__ndk110__function6__baseIFbPKcS3_EEE
000000000059acd0 V _ZTINSt6__ndk110__function6__baseIFbPKcmEEE
00000000005a3440 V _ZTINSt6__ndk110__function6__baseIFbPKcmmmEEE
00000000005a3330 V _ZTINSt6__ndk110__function6__baseIFbRKN7httplib8FormDataEEEE
000000000059ac40 V _ZTINSt6__ndk110__function6__baseIFbRKN7httplib8ResponseEEEE
000000000059b030 V _ZTINSt6__ndk110__function6__baseIFbRKN8nlohmann16json_abi_v3_12_010basic_jsonINS3_11ordered_mapENS_6vectorENS_12basic_stringIcNS_11char_traitsIcEENS_9allocatorIcEEEEblmdSA_NS3_14adl_serializerENS6_IhNSA_IhEEEEvEEEEE
00000000005a3d40 V _ZTINSt6__ndk110__function6__baseIFbRN7httplib6StreamEEEE
000000000059cca0 V _ZTINSt6__ndk110__function6__baseIFbcEEE
00000000005a45e0 V _ZTINSt6__ndk110__function6__baseIFbmRN7httplib8DataSinkEEEE
00000000005a4550 V _ZTINSt6__ndk110__function6__baseIFbmmEEE
00000000005a2690 V _ZTINSt6__ndk110__function6__baseIFbmmRN7httplib8DataSinkEEEE
00000000005a1ce8 V _ZTINSt6__ndk110__function6__baseIFbvEEE
00000000005a2ae0 V _ZTINSt6__ndk110__function6__baseIFlRN7httplib6StreamERNS_18unordered_multimapINS_12basic_stringIcNS_11char_traitsIcEENS_9allocatorIcEEEESB_NS2_6detail11case_ignore4hashENSD_8equal_toENS9_INS_4pairIKSB_SB_EEEEEEEEE
00000000005a1e10 V _ZTINSt6__ndk110__function6__baseIFvPKcS3_EEE
00000000005a20a0 V _ZTINSt6__ndk110__function6__baseIFvPKcmS3_mEEE
0000000000597718 V _ZTINSt6__ndk110__function6__baseIFvR15template_paramsEEE
0000000000598ec8 V _ZTINSt6__ndk110__function6__baseIFvRK19common_peg_ast_nodeEEE
0000000000597188 V _ZTINSt6__ndk110__function6__baseIFvRK20common_chat_templateRN10autoparser10autoparserEEEE
0000000000596ca0 V _ZTINSt6__ndk110__function6__baseIFvRK22common_grammar_builderEEE
0000000000596d20 V _ZTINSt6__ndk110__function6__baseIFvRKN8nlohmann16json_abi_v3_12_010basic_jsonINS3_11ordered_mapENS_6vectorENS_12basic_stringIcNS_11char_traitsIcEENS_9allocatorIcEEEEblmdSA_NS3_14adl_serializerENS6_IhNSA_IhEEEEvEEEEE
000000000059b3f0 V _ZTINSt6__ndk110__function6__baseIFvRKN8nlohmann16json_abi_v3_12_010basic_jsonINS3_11ordered_mapENS_6vectorENS_12basic_stringIcNS_11char_traitsIcEENS_9allocatorIcEEEEblmdSA_NS3_14adl_serializerENS6_IhNSA_IhEEEEvEEbEEE
000000000059b510 V _ZTINSt6__ndk110__function6__baseIFvRKNS_17basic_string_viewIcNS_11char_traitsIcEEEES7_EEE
00000000005a30a0 V _ZTINSt6__ndk110__function6__baseIFvRKNS_18unordered_multimapINS_12basic_stringIcNS_11char_traitsIcEENS_9allocatorIcEEEES8_N7httplib6detail11case_ignore4hashENSB_8equal_toENS6_INS_4pairIKS8_S8_EEEEEEEEE
000000000059b2d0 V _ZTINSt6__ndk110__function6__baseIFvRKZN23common_schema_converter12_not_stringsERKNS_6vectorINS_12basic_stringIcNS_11char_traitsIcEENS_9allocatorIcEEEENS7_IS9_EEEEE8TrieNodeEEE
000000000059dc10 V _ZTINSt6__ndk110__function6__baseIFvRN5jinja7contextEEEE
00000000005a4970 V _ZTINSt6__ndk110__function6__baseIFvRN7httplib7RequestEEEE
000000000059af10 V _ZTINSt6__ndk110__function6__baseIFvRN8nlohmann16json_abi_v3_12_010basic_jsonINS3_11ordered_mapENS_6vectorENS_12basic_stringIcNS_11char_traitsIcEENS_9allocatorIcEEEEblmdSA_NS3_14adl_serializerENS6_IhNSA_IhEEEEvEEEEE
000000000059e0e8 V _ZTINSt6__ndk110__function6__baseIFvbPN5jinja9statementENS_6vectorINS_4pairINS_12basic_stringIcNS_11char_traitsIcEENS_9allocatorIcEEEENS5_IS4_NSA_IS4_EEEEEENSA_ISF_EEEEEEE
00000000005a10d0 V _ZTINSt6__ndk110__function6__baseIFvbRNS_10shared_ptrIN5jinja7value_tEEES6_RKNS_12basic_stringIcNS_11char_traitsIcEENS_9allocatorIcEEEEEEE
00000000005a2a30 V _ZTINSt6__ndk110__function6__baseIFviEEE
000000000059b978 V _ZTINSt6__ndk110__function6__baseIFvmEEE
0000000000595d40 V _ZTINSt6__ndk110__function6__baseIFvvEEE
00000000005a2908 V _ZTINSt6__ndk110__function6__funcIN7httplib6detail22ContentProviderAdapterENS_9allocatorIS4_EEFbmmRNS2_8DataSinkEEEE
00000000005a1cd0 V _ZTINSt6__ndk110__function6__funcIN7httplib7Request20is_connection_closedMUlvE_ENS_9allocatorIS5_EEFbvEEE
000000000059ec88 V _ZTINSt6__ndk110__function6__funcIPFNS_10shared_ptrIN5jinja7value_tEEERKNS3_9func_argsEENS_9allocatorISA_EES9_EE
000000000059cc88 V _ZTINSt6__ndk110__function6__funcIPFbcENS_9allocatorIS3_EES2_EE
00000000005a2ac8 V _ZTINSt6__ndk110__function6__funcIPFlRN7httplib6StreamERKNS_18unordered_multimapINS_12basic_stringIcNS_11char_traitsIcEENS_9allocatorIcEEEESB_NS2_6detail11case_ignore4hashENSD_8equal_toENS9_INS_4pairIKSB_SB_EEEEEEENS9_ISO_EEFlS4_RSK_EEE
00000000005a2a18 V _ZTINSt6__ndk110__function6__funcIPFviENS_9allocatorIS3_EES2_EE
000000000059b2b8 V _ZTINSt6__ndk110__function6__funcIZN23common_schema_converter12_not_stringsERKNS_6vectorINS_12basic_stringIcNS_11char_traitsIcEENS_9allocatorIcEEEENS7_IS9_EEEEEUlRKZNS2_12_not_stringsESD_E8TrieNodeE_NS7_ISH_EEFvSG_EEE
000000000059aef8 V _ZTINSt6__ndk110__function6__funcIZN23common_schema_converter12resolve_refsERN8nlohmann16json_abi_v3_12_010basic_jsonINS4_11ordered_mapENS_6vectorENS_12basic_stringIcNS_11char_traitsIcEENS_9allocatorIcEEEEblmdSB_NS4_14adl_serializerENS7_IhNSB_IhEEEEvEERKSD_EUlSI_E_NSB_ISL_EEFvSI_EEE
000000000059b468 V _ZTINSt6__ndk110__function6__funcIZN23common_schema_converter14_visit_patternERKNS_12basic_stringIcNS_11char_traitsIcEENS_9allocatorIcEEEESA_EUlvE_NS6_ISB_EEFNS_4pairIS8_bEEvEEE
000000000059b348 V _ZTINSt6__ndk110__function6__funcIZN23common_schema_converter18_build_object_ruleERKNS_6vectorINS_4pairINS_12basic_stringIcNS_11char_traitsIcEENS_9allocatorIcEEEEN8nlohmann16json_abi_v3_12_010basic_jsonINSC_11ordered_mapES3_SA_blmdS8_NSC_14adl_serializerENS3_IhNS8_IhEEEEvEEEENS8_ISJ_EEEERKNS_13unordered_setISA_NS_4hashISA_EENS_8equal_toISA_EENS8_ISA_EEEERKSA_RKSI_EUlRKNS3_ISA_ST_EEbE_NS8_IS14_EEFSA_S13_bEEE
000000000059b3d8 V _ZTINSt6__ndk110__function6__funcIZN23common_schema_converter5visitERKN8nlohmann16json_abi_v3_12_010basic_jsonINS4_11ordered_mapENS_6vectorENS_12basic_stringIcNS_11char_traitsIcEENS_9allocatorIcEEEEblmdSB_NS4_14adl_serializerENS7_IhNSB_IhEEEEvEERKSD_EUlSJ_bE_NSB_ISM_EEFvSJ_bEEE
00000000005a3638 V _ZTINSt6__ndk110__function6__funcIZN7httplib6detail24prepare_content_receiverINS2_7RequestEZNS3_12read_contentIS5_EEbRNS2_6StreamERT_mRiNS_8functionIFbmmEEENSC_IFbPKcmmmEEEbEUlRKSI_E_EEbSA_SB_SI_bmRbT0_EUlSG_mmmE0_NS_9allocatorISO_EESH_EE
00000000005a3538 V _ZTINSt6__ndk110__function6__funcIZN7httplib6detail24prepare_content_receiverINS2_7RequestEZNS3_12read_contentIS5_EEbRNS2_6StreamERT_mRiNS_8functionIFbmmEEENSC_IFbPKcmmmEEEbEUlRKSI_E_EEbSA_SB_SI_bmRbT0_EUlSG_mmmE_NS_9allocatorISO_EESH_EE
00000000005a44b8 V _ZTINSt6__ndk110__function6__funcIZN7httplib6detail24prepare_content_receiverINS2_8ResponseEZNS3_12read_contentIS5_EEbRNS2_6StreamERT_mRiNS_8functionIFbmmEEENSC_IFbPKcmmmEEEbEUlRKSI_E_EEbSA_SB_SI_bmRbT0_EUlSG_mmmE0_NS_9allocatorISO_EESH_EE
00000000005a43b8 V _ZTINSt6__ndk110__function6__funcIZN7httplib6detail24prepare_content_receiverINS2_8ResponseEZNS3_12read_contentIS5_EEbRNS2_6StreamERT_mRiNS_8functionIFbmmEEENSC_IFbPKcmmmEEEbEUlRKSI_E_EEbSA_SB_SI_bmRbT0_EUlSG_mmmE_NS_9allocatorISO_EESH_EE
00000000005a35a8 V _ZTINSt6__ndk110__function6__funcIZZN7httplib6detail24prepare_content_receiverINS2_7RequestEZNS3_12read_contentIS5_EEbRNS2_6StreamERT_mRiNS_8functionIFbmmEEENSC_IFbPKcmmmEEEbEUlRKSI_E_EEbSA_SB_SI_bmRbT0_ENKUlSG_mmmE_clESG_mmmEUlSG_mE_NS_9allocatorISP_EEFbSG_mEEE
00000000005a4428 V _ZTINSt6__ndk110__function6__funcIZZN7httplib6detail24prepare_content_receiverINS2_8ResponseEZNS3_12read_contentIS5_EEbRNS2_6StreamERT_mRiNS_8functionIFbmmEEENSC_IFbPKcmmmEEEbEUlRKSI_E_EEbSA_SB_SI_bmRbT0_ENKUlSG_mmmE_clESG_mmmEUlSG_mE_NS_9allocatorISP_EEFbSG_mEEE
00000000005964e8 V _ZTINSt6__ndk111__alternateIcEE
0000000000595ed0 V _ZTINSt6__ndk111__end_stateIcEE
00000000005960f8 V _ZTINSt6__ndk111__lookaheadIcNS_12regex_traitsIcEEEE
0000000000596578 V _ZTINSt6__ndk111__match_anyIcEE
0000000000596218 V _ZTINSt6__ndk112__match_charIcEE
0000000000595f78 V _ZTINSt6__ndk113__empty_stateIcEE
0000000000595fa8 V _ZTINSt6__ndk115__has_one_stateIcEE
00000000005960b0 V _ZTINSt6__ndk115__word_boundaryIcNS_12regex_traitsIcEEEE
0000000000596260 V _ZTINSt6__ndk116__back_ref_icaseIcNS_12regex_traitsIcEEEE
0000000000595f90 V _ZTINSt6__ndk116__owns_one_stateIcEE
0000000000596428 V _ZTINSt6__ndk117__owns_two_statesIcEE
00000000005964a0 V _ZTINSt6__ndk117__repeat_one_loopIcEE
00000000005962a8 V _ZTINSt6__ndk118__back_ref_collateIcNS_12regex_traitsIcEEEE
0000000000596188 V _ZTINSt6__ndk118__match_char_icaseIcNS_12regex_traitsIcEEEE
0000000000596338 V _ZTINSt6__ndk120__bracket_expressionIcNS_12regex_traitsIcEEEE
0000000000596020 V _ZTINSt6__ndk120__l_anchor_multilineIcEE
00000000005961d0 V _ZTINSt6__ndk120__match_char_collateIcNS_12regex_traitsIcEEEE
0000000000596068 V _ZTINSt6__ndk120__r_anchor_multilineIcEE
0000000000599390 V _ZTINSt6__ndk120__shared_ptr_emplaceIN5jinja11value_int_tENS_9allocatorIS2_EEEE
0000000000599340 V _ZTINSt6__ndk120__shared_ptr_emplaceIN5jinja12value_bool_tENS_9allocatorIS2_EEEE
000000000059da60 V _ZTINSt6__ndk120__shared_ptr_emplaceIN5jinja12value_func_tENS_9allocatorIS2_EEEE
00000000005993e0 V _ZTINSt6__ndk120__shared_ptr_emplaceIN5jinja12value_none_tENS_9allocatorIS2_EEEE
0000000000599430 V _ZTINSt6__ndk120__shared_ptr_emplaceIN5jinja13value_array_tENS_9allocatorIS2_EEEE
000000000059d418 V _ZTINSt6__ndk120__shared_ptr_emplaceIN5jinja13value_float_tENS_9allocatorIS2_EEEE
000000000059def8 V _ZTINSt6__ndk120__shared_ptr_emplaceIN5jinja13value_kwarg_tENS_9allocatorIS2_EEEE
000000000059d0f0 V _ZTINSt6__ndk120__shared_ptr_emplaceIN5jinja13value_tuple_tENS_9allocatorIS2_EEEE
0000000000599190 V _ZTINSt6__ndk120__shared_ptr_emplaceIN5jinja14value_object_tENS_9allocatorIS2_EEEE
00000000005992f0 V _ZTINSt6__ndk120__shared_ptr_emplaceIN5jinja14value_string_tENS_9allocatorIS2_EEEE
000000000059ce68 V _ZTINSt6__ndk120__shared_ptr_emplaceIN5jinja17value_undefined_tENS_9allocatorIS2_EEEE
00000000005a3698 V _ZTINSt6__ndk120__shared_ptr_emplaceIN7httplib6detail4mmapENS_9allocatorIS3_EEEE
000000000059bb20 V _ZTINSt6__ndk120__shared_ptr_emplaceIN8nlohmann16json_abi_v3_12_010basic_jsonINS2_11ordered_mapENS_6vectorENS_12basic_stringIcNS_11char_traitsIcEENS_9allocatorIcEEEEblmdS9_NS2_14adl_serializerENS5_IhNS9_IhEEEEvEENS9_ISF_EEEE
00000000005965c8 V _ZTINSt6__ndk120__shared_ptr_emplaceIN8nlohmann16json_abi_v3_12_06detail21output_string_adapterIcNS_12basic_stringIcNS_11char_traitsIcEENS_9allocatorIcEEEEEENS8_ISB_EEEE
0000000000599140 V _ZTINSt6__ndk120__shared_ptr_emplaceINS_12basic_stringIcNS_11char_traitsIcEENS_9allocatorIcEEEENS4_IS6_EEEE
000000000059e060 V _ZTINSt6__ndk120__shared_ptr_pointerIPNS_12basic_stringIcNS_11char_traitsIcEENS_9allocatorIcEEEENS_10shared_ptrIS6_E27__shared_ptr_default_deleteIS6_S6_EENS4_IS6_EEEE
0000000000595f30 V _ZTINSt6__ndk120__shared_ptr_pointerIPNS_13__empty_stateIcEENS_10shared_ptrIS2_E27__shared_ptr_default_deleteIS2_S2_EENS_9allocatorIS2_EEEE
0000000000596530 V _ZTINSt6__ndk121__empty_non_own_stateIcEE
0000000000596140 V _ZTINSt6__ndk123__match_any_but_newlineIcEE
00000000005963c8 V _ZTINSt6__ndk126__end_marked_subexpressionIcEE
0000000000596380 V _ZTINSt6__ndk128__begin_marked_subexpressionIcEE
0000000000596410 V _ZTINSt6__ndk16__loopIcEE
0000000000595ee8 V _ZTINSt6__ndk16__nodeIcEE
000000000059eca0 V _ZTIPFNSt6__ndk110shared_ptrIN5jinja7value_tEEERKNS1_9func_argsEE
000000000059ccb0 V _ZTIPFbcE
00000000005a2af0 V _ZTIPFlRN7httplib6StreamERKNSt6__ndk118unordered_multimapINS2_12basic_stringIcNS2_11char_traitsIcEENS2_9allocatorIcEEEES9_NS_6detail11case_ignore4hashENSB_8equal_toENS7_INS2_4pairIKS9_S9_EEEEEEE
00000000005a2a40 V _ZTIPFviE
00000000005b3f08 D _ZTISt18bad_variant_access
00000000005b3e88 D _ZTISt19bad_optional_access
000000000059b2e0 V _ZTIZN23common_schema_converter12_not_stringsERKNSt6__ndk16vectorINS0_12basic_stringIcNS0_11char_traitsIcEENS0_9allocatorIcEEEENS5_IS7_EEEEEUlRKZNS_12_not_stringsESB_E8TrieNodeE_
000000000059af20 V _ZTIZN23common_schema_converter12resolve_refsERN8nlohmann16json_abi_v3_12_010basic_jsonINS1_11ordered_mapENSt6__ndk16vectorENS4_12basic_stringIcNS4_11char_traitsIcEENS4_9allocatorIcEEEEblmdS9_NS1_14adl_serializerENS5_IhNS9_IhEEEEvEERKSB_EUlSG_E_
000000000059b490 V _ZTIZN23common_schema_converter14_visit_patternERKNSt6__ndk112basic_stringIcNS0_11char_traitsIcEENS0_9allocatorIcEEEES8_EUlvE_
