000000000014c904 T _Z11replace_allRNSt6__ndk112basic_stringIcNS_11char_traitsIcEENS_9allocatorIcEEEERKS5_S8_
0000000000101624 T _Z12llm_arch_allv
00000000001017f4 T _Z13llm_arch_name8llm_arch
00000000001a45a0 T _Z13llm_type_name8llm_type
000000000014d104 T _Z14gguf_kv_to_strPK12gguf_contexti
000000000018685c T _Z14llama_path_maxv
00000000001ef514 T _Z15unicode_tolowerj
00000000001bb250 T _Z16llama_quant_freeP19quantize_state_impl
00000000001bb078 T _Z16llama_quant_initPK11llama_modelPK27llama_model_quantize_params
00000000001edae8 T _Z16unicode_len_utf8c
000000000014c7bc T _Z18llama_log_internal14ggml_log_levelPKcz
000000000019f628 T _Z18llama_model_create8llm_archRK18llama_model_params
00000000001a08c4 T _Z18llama_model_createR18llama_model_loaderRK18llama_model_params
00000000001019b4 T _Z18llm_arch_is_hybridRK8llm_arch
00000000001ef578 T _Z18unicode_cpt_is_hanj
000000000011e584 T _Z19llama_get_ctx_otherP13llama_context
000000000011dab4 T _Z19llama_graph_reserveP13llama_contextjjj
000000000010193c T _Z19llm_tensor_info_for10llm_tensor
00000000001ede04 T _Z19unicode_cpt_to_utf8j
00000000001ef5cc T _Z19unicode_regex_splitRKNSt6__ndk112basic_stringIcNS_11char_traitsIcEENS_9allocatorIcEEEERKNS_6vectorIS5_NS3_IS5_EEEEb
0000000000126aa0 T _Z20llama_grammar_acceptP13llama_grammarj
00000000001aedbc T _Z20llama_model_n_expertPK11llama_model
000000000010184c T _Z20llm_arch_from_stringRKNSt6__ndk112basic_stringIcNS_11char_traitsIcEENS_9allocatorIcEEEE
00000000001ee77c T _Z20unicode_byte_to_utf8h
00000000001eed88 T _Z20unicode_utf8_to_byteRKNSt6__ndk112basic_stringIcNS_11char_traitsIcEENS_9allocatorIcEEEE
00000000001aedc4 T _Z21llama_model_n_devicesPK11llama_model
0000000000101a18 T _Z21llm_arch_is_diffusionRK8llm_arch
0000000000101990 T _Z21llm_arch_is_recurrentRK8llm_arch
00000000001edafc T _Z21unicode_cpt_from_utf8RKNSt6__ndk112basic_stringIcNS_11char_traitsIcEENS_9allocatorIcEEEERm
00000000001aedd8 T _Z22llama_model_get_devicePK11llama_modeli
00000000001ee0bc T _Z22unicode_cpts_from_utf8RKNSt6__ndk112basic_stringIcNS_11char_traitsIcEENS_9allocatorIcEEEE
0000000000187250 T _Z23llama_file_version_name10llama_fver
000000000012a85c T _Z23llama_grammar_free_implP13llama_grammar
0000000000126a90 T _Z23llama_grammar_get_rulesPK13llama_grammar
000000000012975c T _Z23llama_grammar_init_implPK11llama_vocabPKcS3_bPS3_mPKim
0000000000128d88 T _Z23llama_grammar_init_implPK11llama_vocabPPK21llama_grammar_elementmm
000000000010a344 T _Z23llm_chat_apply_template17llm_chat_templateRKNSt6__ndk16vectorIPK18llama_chat_messageNS0_9allocatorIS4_EEEERNS0_12basic_stringIcNS0_11char_traitsIcEENS5_IcEEEEb
000000000012caec T _Z24llama_grammar_accept_strR13llama_grammarRKNSt6__ndk112basic_stringIcNS1_11char_traitsIcEENS1_9allocatorIcEEEE
000000000012af6c T _Z24llama_grammar_apply_implRK13llama_grammarP22llama_token_data_array
000000000012a9e8 T _Z24llama_grammar_clone_implRK13llama_grammar
0000000000126a98 T _Z24llama_grammar_get_stacksP13llama_grammar
00000000001097e8 T _Z24llm_chat_detect_templateRKNSt6__ndk112basic_stringIcNS_11char_traitsIcEENS_9allocatorIcEEEE
000000000014cf90 T _Z25llama_format_tensor_shapePK11ggml_tensor
000000000014cd68 T _Z25llama_format_tensor_shapeRKNSt6__ndk16vectorIlNS_9allocatorIlEEEE
000000000012ba74 T _Z25llama_grammar_accept_implR13llama_grammari
00000000001bc7b0 T _Z25llama_quant_compute_typesP19quantize_state_impl11llama_ftypePP11ggml_tensorP9ggml_typem
000000000011d8a4 T _Z26llama_get_embeddings_nextnP13llama_context
000000000011e580 T _Z26llama_get_memory_breakdownPK13llama_context
000000000012bfa4 T _Z26llama_grammar_accept_tokenR13llama_grammariRKNSt6__ndk112basic_stringIcNS1_11char_traitsIcEENS1_9allocatorIcEEEE
000000000014c788 T _Z26llama_log_callback_default14ggml_log_levelPKcPv
000000000011d790 T _Z26llama_set_embeddings_nextnP13llama_contextbb
00000000001096dc T _Z26llm_chat_template_from_strRKNSt6__ndk112basic_stringIcNS_11char_traitsIcEENS_9allocatorIcEEEE
00000000001ee3f8 T _Z26unicode_cpt_flags_from_cptj
00000000001edf58 T _Z26unicode_cpts_normalize_nfdRKNSt6__ndk16vectorIjNS_9allocatorIjEEEE
000000000017c808 T _Z27llama_memory_status_combine19llama_memory_statusS_
000000000017c850 T _Z27llama_memory_status_is_fail19llama_memory_status
0000000000101a4c T _Z27llm_arch_supports_sm_tensorRK8llm_arch
00000000001a47d8 T _Z27llm_ffn_op_type_from_stringRKNSt6__ndk112basic_stringIcNS_11char_traitsIcEENS_9allocatorIcEEEE15llm_ffn_op_type
00000000001ee6a4 T _Z27unicode_cpt_flags_from_utf8RKNSt6__ndk112basic_stringIcNS_11char_traitsIcEENS_9allocatorIcEEEE
00000000001b6cc8 T _Z28llama_ftype_get_default_type11llama_ftype
00000000001af670 T _Z28llama_model_target_layer_idsPK11llama_model
00000000001a46ec T _Z28llama_rope_scaling_type_name23llama_rope_scaling_type
000000000011d89c T _Z28llama_set_nextn_layer_offsetP13llama_contexti
00000000001aedb0 T _Z29llama_internal_get_tensor_mapPK11llama_model
0000000000101a38 T _Z29llm_arch_supports_rs_rollbackRK8llm_arch
000000000011d8fc T _Z30llama_get_embeddings_layer_inpP13llama_contextj
000000000011d8d0 T _Z30llama_get_embeddings_nextn_ithP13llama_contexti
00000000001af684 T _Z30llama_model_target_layer_ids_nPK11llama_model
000000000013b64c T _Z30llama_relative_position_bucketiimb
00000000001c3c38 T _Z30llama_sampler_init_dry_testingiffiiRKNSt6__ndk16vectorINS0_IiNS_9allocatorIiEEEENS1_IS3_EEEE
000000000011d7e4 T _Z30llama_set_embeddings_layer_inpP13llama_contextjb
000000000019a618 T _Z31llama_model_saver_supports_arch8llm_arch
00000000001bb3a4 T _Z31llama_quant_model_from_metadataPK22llama_quant_model_desc
00000000001a0a90 T _Z33llama_meta_device_get_split_statePK11ggml_tensorPv
00000000001bb570 T _Z38llama_quant_tensor_allows_quantizationPK19quantize_state_implPK11ggml_tensor
0000000000127028 T _Z41llama_grammar_reject_candidates_for_stackRKNSt6__ndk16vectorINS0_I21llama_grammar_elementNS_9allocatorIS1_EEEENS2_IS4_EEEERKNS0_IPKS1_NS2_ISA_EEEERKNS0_I23llama_grammar_candidateNS2_ISF_EEEE
000000000014cb60 T _Z6formatPKcz
00000000002ba4e0 V _ZGVZN31llm_tokenizer_hybriddna_session8tokenizeERKNSt6__ndk112basic_stringIcNS0_11char_traitsIcEENS0_9allocatorIcEEEERNS0_6vectorIiNS4_IiEEEEE8open_tag
00000000002ba500 V _ZGVZN31llm_tokenizer_hybriddna_session8tokenizeERKNSt6__ndk112basic_stringIcNS0_11char_traitsIcEENS0_9allocatorIcEEEERNS0_6vectorIiNS4_IiEEEEE9close_tag
0000000000185b24 T _ZN10llama_file15read_raw_unsafeEPvm
0000000000185b2c W _ZN10llama_file4impl15read_raw_unsafeEPvm
0000000000186864 W _ZN10llama_file4impl18read_aligned_chunkEPvm
0000000000186ce8 W _ZN10llama_file4impl7init_fdEv
0000000000186a08 W _ZN10llama_file4impl7init_fpEPKc
0000000000186b84 W _ZN10llama_file4implC2EPKcS2_b
0000000000185b04 T _ZN10llama_file8read_rawEPvm
0000000000185ef8 T _ZN10llama_file8read_u32Ev
0000000000185660 T _ZN10llama_fileC1EP7__sFILE
00000000001855f0 T _ZN10llama_fileC1EPKcS1_b
0000000000185660 T _ZN10llama_fileC2EP7__sFILE
00000000001855f0 T _ZN10llama_fileC2EPKcS1_b
000000000018572c T _ZN10llama_fileD1Ev
000000000018572c T _ZN10llama_fileD2Ev
00000000001861cc T _ZN10llama_mmap14unmap_fragmentEmm
00000000001861d4 W _ZN10llama_mmap4impl14unmap_fragmentEmm
0000000000186e68 W _ZN10llama_mmap4implC2EP10llama_filemb
00000000001871a4 W _ZN10llama_mmap4implD2Ev
00000000000abf6d R _ZN10llama_mmap9SUPPORTEDE
0000000000186104 T _ZN10llama_mmapC1EP10llama_filemb
0000000000186104 T _ZN10llama_mmapC2EP10llama_filemb
0000000000186174 T _ZN10llama_mmapD1Ev
0000000000186174 T _ZN10llama_mmapD2Ev
00000000001e4968 W _ZN10naive_trie6insertEPKcmi
0000000000101508 T _ZN11LLM_TN_IMPLC1E8llm_arch10llm_tensorPKcii
0000000000101508 T _ZN11LLM_TN_IMPLC2E8llm_arch10llm_tensorPKcii
0000000000113d6c W _ZN11llama_crossD2Ev
000000000018670c W _ZN11llama_mlock4impl7grow_toEm
00000000001866c0 T _ZN11llama_mlock4initEPv
0000000000186704 T _ZN11llama_mlock7grow_toEm
00000000000abf6e R _ZN11llama_mlock9SUPPORTEDE
0000000000186674 T _ZN11llama_mlockC1Ev
0000000000186674 T _ZN11llama_mlockC2Ev
00000000001866a4 T _ZN11llama_mlockD1Ev
00000000001866a4 T _ZN11llama_mlockD2Ev
00000000001b3cc0 W _ZN11llama_model4implD2Ev
00000000001a481c T _ZN11llama_modelC2ERK18llama_model_params
00000000001a4cf4 T _ZN11llama_modelD0Ev
00000000001af698 T _ZN11llama_modelD1Ev
00000000001af698 T _ZN11llama_modelD2Ev
00000000001d6eb4 T _ZN11llama_vocab4impl14init_tokenizerE16llama_vocab_type
00000000001d1378 T _ZN11llama_vocab4impl4loadER18llama_model_loaderRK6LLM_KV
00000000001ecd44 W _ZN11llama_vocab4implD2Ev
00000000001dc954 T _ZN11llama_vocab4loadER18llama_model_loaderRK6LLM_KV
00000000001dc850 T _ZN11llama_vocabC1Ev
00000000001dc850 T _ZN11llama_vocabC2Ev
00000000001dc914 T _ZN11llama_vocabD1Ev
00000000001dc914 T _ZN11llama_vocabD2Ev
000000000010903c W _ZN12llama_ubatch6data_tD2Ev
00000000001052b4 W _ZN12llama_ubatchD2Ev
0000000000115064 T _ZN13llama_context10get_logitsEv
000000000011b934 T _ZN13llama_context10perf_resetEv
00000000001168d4 T _ZN13llama_context10set_warmupEb
0000000000112aec T _ZN13llama_context11set_samplerEiP13llama_sampler
0000000000114818 T _ZN13llama_context11synchronizeEv
000000000011708c T _ZN13llama_context13graph_computeEP11ggml_cgraphb
00000000001149cc T _ZN13llama_context13graph_reserveEjjjPK22llama_memory_context_ibPm
0000000000114e34 T _ZN13llama_context13memory_updateEb
0000000000113ce8 W _ZN13llama_context13sampling_infoD2Ev
00000000001134e0 T _ZN13llama_context13sched_reserveEv
0000000000116624 T _ZN13llama_context13set_n_threadsEii
0000000000115b44 T _ZN13llama_context14get_embeddingsEv
0000000000115a2c T _ZN13llama_context14get_logits_ithEi
000000000011c4f4 T _ZN13llama_context14opt_epoch_iterEP16ggml_opt_datasetP15ggml_opt_resultRKNSt6__ndk16vectorIiNS4_9allocatorIiEEEESA_R11llama_batchPFvbP16ggml_opt_contextS1_S3_lllEblll
0000000000115088 T _ZN13llama_context14output_reorderEv
0000000000112ff0 T _ZN13llama_context14output_reserveEi
0000000000116c40 T _ZN13llama_context14process_ubatchERK12llama_ubatch14llm_graph_typeP22llama_memory_context_iR11ggml_status
0000000000116724 T _ZN13llama_context14set_embeddingsEb
000000000011a138 T _ZN13llama_context14state_get_dataEPhm
0000000000119e98 T _ZN13llama_context14state_get_sizeEv
000000000011a310 T _ZN13llama_context14state_set_dataEPKhm
0000000000116878 T _ZN13llama_context15set_causal_attnEb
000000000011b0a0 T _ZN13llama_context15state_load_fileEPKcPimPm
000000000011a464 T _ZN13llama_context15state_read_dataER15llama_io_read_i
000000000011b2dc T _ZN13llama_context15state_save_fileEPKcPKim
0000000000116bac T _ZN13llama_context16set_adapter_cvecEPKfmiii
0000000000119f70 T _ZN13llama_context16state_write_dataER16llama_io_write_i
0000000000116594 T _ZN13llama_context17attach_threadpoolEP15ggml_threadpoolS1_
00000000001165e8 T _ZN13llama_context17detach_threadpoolEv
00000000001142c8 T _ZN13llama_context17resolve_fused_opsEPK22llama_memory_context_ij
0000000000116920 T _ZN13llama_context17set_adapters_loraEPP18llama_adapter_loramPf
0000000000115b70 T _ZN13llama_context18get_embeddings_ithEi
0000000000115c88 T _ZN13llama_context18get_embeddings_seqEi
0000000000116674 T _ZN13llama_context18set_abort_callbackEPFbPvES0_
000000000011a964 T _ZN13llama_context18state_seq_get_dataEiPhmj
000000000011a80c T _ZN13llama_context18state_seq_get_sizeEij
000000000011abcc T _ZN13llama_context18state_seq_set_dataEiPKhmj
000000000011b448 T _ZN13llama_context19state_seq_load_fileEiPKcPimPm
000000000011b060 T _ZN13llama_context19state_seq_read_dataER15llama_io_read_iij
000000000011b708 T _ZN13llama_context19state_seq_save_fileEiPKcPKim
00000000001197e8 T _ZN13llama_context20extract_layer_inputsEPK16llm_graph_resultmm
0000000000115cd4 T _ZN13llama_context20get_embeddings_nextnEv
0000000000116764 T _ZN13llama_context20set_embeddings_nextnEbb
000000000011a924 T _ZN13llama_context20state_seq_write_dataER16llama_io_write_iij
0000000000116074 T _ZN13llama_context21get_sampled_probs_ithEi
0000000000115f94 T _ZN13llama_context21get_sampled_token_ithEi
0000000000116ae4 T _ZN13llama_context22adapters_lora_are_sameEPP18llama_adapter_loramPf
0000000000116168 T _ZN13llama_context22get_sampled_logits_ithEi
0000000000116870 T _ZN13llama_context22set_nextn_layer_offsetEi
00000000001164c4 T _ZN13llama_context23get_sampled_probs_countEi
0000000000115f28 T _ZN13llama_context24get_embeddings_layer_inpEj
0000000000115cf8 T _ZN13llama_context24get_embeddings_nextn_ithEi
00000000001163d4 T _ZN13llama_context24get_sampled_logits_countEi
00000000001167b8 T _ZN13llama_context24set_embeddings_layer_inpEjb
000000000011625c T _ZN13llama_context26get_sampled_candidates_ithEi
0000000000116304 T _ZN13llama_context28get_sampled_candidates_countEi
0000000000117e68 T _ZN13llama_context6decodeERK11llama_batch
0000000000117218 T _ZN13llama_context6encodeERK11llama_batch
000000000011be74 T _ZN13llama_context8opt_initEP11llama_model16llama_opt_params
000000000011cc0c T _ZN13llama_context9opt_epochEP16ggml_opt_datasetP15ggml_opt_resultS3_lPFvbP16ggml_opt_contextS1_S3_lllES7_
0000000000110fd4 T _ZN13llama_contextC1ERK11llama_model20llama_context_params
0000000000110fd4 T _ZN13llama_contextC2ERK11llama_model20llama_context_params
0000000000113eb4 T _ZN13llama_contextD1Ev
0000000000113eb4 T _ZN13llama_contextD2Ev
000000000012a88c W _ZN13llama_grammarD2Ev
000000000014b7ec T _ZN13llama_hparams15set_swa_patternEjb
000000000014bab4 T _ZN13llama_hparams16set_recr_patternEjb
00000000001e46e4 W _ZN13llm_tokenizerD2Ev
0000000000151ab4 T _ZN14llama_kv_cache10init_batchER18llama_batch_allocrjb
0000000000162a4c T _ZN14llama_kv_cache10state_readER15llama_io_read_iij
0000000000152f90 T _ZN14llama_kv_cache11init_updateEP13llama_contextb
0000000000154260 T _ZN14llama_kv_cache12apply_ubatchERKNS_9slot_infoERK12llama_ubatch
00000000001636bc T _ZN14llama_kv_cache15state_read_dataER15llama_io_read_ijjRKNS_9slot_infoE
0000000000162d44 T _ZN14llama_kv_cache15state_read_metaER15llama_io_read_ijjRNS_9slot_infoEi
000000000014fd30 W _ZN14llama_kv_cache16stream_copy_infoD2Ev
000000000014fe58 T _ZN14llama_kv_cache5clearEb
0000000000150678 T _ZN14llama_kv_cache6seq_cpEiiii
000000000014ffa8 T _ZN14llama_kv_cache6seq_rmEiii
000000000015507c T _ZN14llama_kv_cache6updateEP13llama_contextbRKNS_16stream_copy_infoE
0000000000151d84 T _ZN14llama_kv_cache7prepareERKNSt6__ndk16vectorI12llama_ubatchNS0_9allocatorIS2_EEEE
0000000000151360 T _ZN14llama_kv_cache7seq_addEiiii
0000000000151568 T _ZN14llama_kv_cache7seq_divEiiii
00000000001666a8 W _ZN14llama_kv_cache8kv_layerC2ERKS0_
000000000014fb24 W _ZN14llama_kv_cache8kv_layerD2Ev
0000000000150ff8 T _ZN14llama_kv_cache8seq_keepEi
0000000000152f38 T _ZN14llama_kv_cache9init_fullEv
0000000000153e58 W _ZN14llama_kv_cache9slot_infoC2ERKS0_
000000000015400c W _ZN14llama_kv_cache9slot_infoD2Ev
000000000014ddc0 T _ZN14llama_kv_cacheC1ERK11llama_modelRK13llama_hparams9ggml_typeS6_bbbjjjj14llama_swa_typeP14llama_memory_iRKNSt6__ndk18functionIFbiEEERKNSB_IFiiEEESJ_
000000000014ddc0 T _ZN14llama_kv_cacheC2ERK11llama_modelRK13llama_hparams9ggml_typeS6_bbbjjjj14llama_swa_typeP14llama_memory_iRKNSt6__ndk18functionIFbiEEERKNSB_IFiiEEESJ_
0000000000164ca4 W _ZN14llama_kv_cacheD0Ev
0000000000164ab0 W _ZN14llama_kv_cacheD2Ev
0000000000164f88 W _ZN14llama_kv_cells10seq_pos_rmEj
00000000001650ac W _ZN14llama_kv_cells11seq_pos_addEj
0000000000154db8 W _ZN14llama_kv_cells3setERKNSt6__ndk16vectorIjNS0_9allocatorIjEEEERKS_
000000000014f9ac W _ZN14llama_kv_cells6resizeEj
0000000000150414 W _ZN14llama_kv_cells6seq_rmEji
0000000000150eb0 W _ZN14llama_kv_cells7pos_addEji
0000000000150cb8 W _ZN14llama_kv_cells7seq_addEji
00000000001510fc W _ZN14llama_kv_cells8seq_keepEji
00000000001540b0 W _ZN14llama_kv_cellsD2Ev
0000000000290b14 T _ZN14llama_model_t517load_arch_hparamsER18llama_model_loader
0000000000290cdc T _ZN14llama_model_t517load_arch_tensorsER18llama_model_loader
00000000002917bc T _ZN14llama_model_t55graphILb0EEC1ERK11llama_modelRK16llm_graph_params
00000000002917bc T _ZN14llama_model_t55graphILb0EEC2ERK11llama_modelRK16llm_graph_params
0000000000292370 W _ZN14llama_model_t55graphILb0EED0Ev
0000000000291e50 T _ZN14llama_model_t55graphILb1EEC1ERK11llama_modelRK16llm_graph_params
0000000000291e50 T _ZN14llama_model_t55graphILb1EEC2ERK11llama_modelRK16llm_graph_params
00000000002923b0 W _ZN14llama_model_t55graphILb1EED0Ev
00000000001b127c W _ZN14llama_model_t5C2ERK18llama_model_params
0000000000292348 W _ZN14llama_model_t5D0Ev
000000000014dcc0 T _ZN15llama_io_read_i11read_stringERNSt6__ndk112basic_stringIcNS0_11char_traitsIcEENS0_9allocatorIcEEEE
00000000002624dc T _ZN15llama_model_mpt17load_arch_hparamsER18llama_model_loader
0000000000262568 T _ZN15llama_model_mpt17load_arch_tensorsER18llama_model_loader
0000000000262d10 T _ZN15llama_model_mpt5graphC1ERK11llama_modelRK16llm_graph_params
0000000000262d10 T _ZN15llama_model_mpt5graphC2ERK11llama_modelRK16llm_graph_params
00000000002632cc W _ZN15llama_model_mpt5graphD0Ev
00000000001aff20 W _ZN15llama_model_mptC2ERK18llama_model_params
00000000002632a4 W _ZN15llama_model_mptD0Ev
000000000027346c T _ZN15llama_model_plm17load_arch_hparamsER18llama_model_loader
00000000002734d4 T _ZN15llama_model_plm17load_arch_tensorsER18llama_model_loader
0000000000273a04 T _ZN15llama_model_plm5graphC1ERK11llama_modelRK16llm_graph_params
0000000000273a04 T _ZN15llama_model_plm5graphC2ERK11llama_modelRK16llm_graph_params
00000000002743f4 W _ZN15llama_model_plm5graphD0Ev
00000000001b190c W _ZN15llama_model_plmC2ERK18llama_model_params
00000000002743cc W _ZN15llama_model_plmD0Ev
000000000014dc20 T _ZN16llama_io_write_i12write_stringERKNSt6__ndk112basic_stringIcNS0_11char_traitsIcEENS0_9allocatorIcEEEE
000000000011a134 W _ZN16llama_io_write_iD2Ev
00000000001a4cf8 T _ZN16llama_model_base10load_statsER18llama_model_loader
00000000001a5f2c T _ZN16llama_model_base10load_vocabER18llama_model_loader
00000000001a4d08 T _ZN16llama_model_base12load_hparamsER18llama_model_loader
00000000001a5fa4 T _ZN16llama_model_base12load_tensorsER18llama_model_loader
00000000001ab218 T _ZN16llama_model_base13create_tensorER18llama_model_loaderRK11LLM_TN_IMPLRKSt16initializer_listIlEi
00000000001aad9c T _ZN16llama_model_base13create_tensorERK11LLM_TN_IMPLRKSt16initializer_listIlEi
00000000001af0e0 T _ZN16llama_model_base17create_tensor_qkvER11llama_layerilllli
00000000001aee5c T _ZN16llama_model_base26create_tensor_gate_up_expsER11llama_layerillli
00000000001aee08 T _ZN16llama_model_baseC2ERK18llama_model_params
00000000001af88c W _ZN16llama_model_baseD0Ev
000000000020e5f4 T _ZN16llama_model_bert17load_arch_hparamsER18llama_model_loader
000000000020e6d4 T _ZN16llama_model_bert17load_arch_tensorsER18llama_model_loader
000000000020f07c T _ZN16llama_model_bert5graphC1ERK11llama_modelRK16llm_graph_params
000000000020f07c T _ZN16llama_model_bert5graphC2ERK11llama_modelRK16llm_graph_params
000000000020f898 W _ZN16llama_model_bert5graphD0Ev
00000000001afc2c W _ZN16llama_model_bertC2ERK18llama_model_params
000000000020f870 W _ZN16llama_model_bertD0Ev
0000000000217678 T _ZN16llama_model_dbrx17load_arch_hparamsER18llama_model_loader
00000000002176e0 T _ZN16llama_model_dbrx17load_arch_tensorsER18llama_model_loader
0000000000217c08 T _ZN16llama_model_dbrx5graphC1ERK11llama_modelRK16llm_graph_params
0000000000217c08 T _ZN16llama_model_dbrx5graphC2ERK11llama_modelRK16llm_graph_params
0000000000218144 W _ZN16llama_model_dbrx5graphD0Ev
00000000001b0c94 W _ZN16llama_model_dbrxC2ERK18llama_model_params
000000000021811c W _ZN16llama_model_dbrxD0Ev
0000000000218184 T _ZN16llama_model_deci17load_arch_hparamsER18llama_model_loader
0000000000218218 T _ZN16llama_model_deci17load_arch_tensorsER18llama_model_loader
00000000002189dc T _ZN16llama_model_deci5graphC1ERK11llama_modelRK16llm_graph_params
00000000002189dc T _ZN16llama_model_deci5graphC2ERK11llama_modelRK16llm_graph_params
0000000000218fd4 W _ZN16llama_model_deci5graphD0Ev
00000000001afa34 W _ZN16llama_model_deciC2ERK18llama_model_params
0000000000218fac W _ZN16llama_model_deciD0Ev
000000000023d42c T _ZN16llama_model_glm417load_arch_hparamsER18llama_model_loader
000000000023d520 T _ZN16llama_model_glm417load_arch_tensorsER18llama_model_loader
000000000023dbe8 T _ZN16llama_model_glm45graphC1ERK11llama_modelRK16llm_graph_params
000000000023dbe8 T _ZN16llama_model_glm45graphC2ERK11llama_modelRK16llm_graph_params
000000000023e20c W _ZN16llama_model_glm45graphD0Ev
00000000001b1180 W _ZN16llama_model_glm4C2ERK18llama_model_params
000000000023e1e4 W _ZN16llama_model_glm4D0Ev
000000000023e24c T _ZN16llama_model_gpt217load_arch_hparamsER18llama_model_loader
000000000023e2b8 T _ZN16llama_model_gpt217load_arch_tensorsER18llama_model_loader
000000000023e900 T _ZN16llama_model_gpt25graphC1ERK11llama_modelRK16llm_graph_params
000000000023e900 T _ZN16llama_model_gpt25graphC2ERK11llama_modelRK16llm_graph_params
000000000023ed98 W _ZN16llama_model_gpt25graphD0Ev
00000000001b0604 W _ZN16llama_model_gpt2C2ERK18llama_model_params
000000000023ed70 W _ZN16llama_model_gpt2D0Ev
0000000000243444 T _ZN16llama_model_grok17load_arch_hparamsER18llama_model_loader
000000000024360c T _ZN16llama_model_grok17load_arch_tensorsER18llama_model_loader
0000000000243da4 T _ZN16llama_model_grok5graphC1ERK11llama_modelRK16llm_graph_params
0000000000243da4 T _ZN16llama_model_grok5graphC2ERK11llama_modelRK16llm_graph_params
0000000000244460 W _ZN16llama_model_grok5graphD0Ev
00000000001afb30 W _ZN16llama_model_grokC2ERK18llama_model_params
0000000000244438 W _ZN16llama_model_grokD0Ev
0000000000249658 T _ZN16llama_model_jais17load_arch_hparamsER18llama_model_loader
00000000002496cc T _ZN16llama_model_jais17load_arch_tensorsER18llama_model_loader
0000000000249d44 T _ZN16llama_model_jais5graphC1ERK11llama_modelRK16llm_graph_params
0000000000249d44 T _ZN16llama_model_jais5graphC2ERK11llama_modelRK16llm_graph_params
000000000024a16c W _ZN16llama_model_jais5graphD0Ev
00000000001b1324 W _ZN16llama_model_jaisC2ERK18llama_model_params
000000000024a144 W _ZN16llama_model_jaisD0Ev
0000000000250b3c T _ZN16llama_model_lfm217load_arch_hparamsER18llama_model_loader
0000000000250cc4 T _ZN16llama_model_lfm217load_arch_tensorsER18llama_model_loader
00000000002523c8 W _ZN16llama_model_lfm25graphILb0EEC1ERK11llama_modelRK16llm_graph_params
00000000002523c8 W _ZN16llama_model_lfm25graphILb0EEC2ERK11llama_modelRK16llm_graph_params
00000000002531d4 W _ZN16llama_model_lfm25graphILb0EED0Ev
0000000000251624 W _ZN16llama_model_lfm25graphILb1EEC1ERK11llama_modelRK16llm_graph_params
0000000000251624 W _ZN16llama_model_lfm25graphILb1EEC2ERK11llama_modelRK16llm_graph_params
0000000000253194 W _ZN16llama_model_lfm25graphILb1EED0Ev
00000000001b1ef4 W _ZN16llama_model_lfm2C2ERK18llama_model_params
000000000025316c W _ZN16llama_model_lfm2D0Ev
0000000000267124 T _ZN16llama_model_olmo17load_arch_hparamsER18llama_model_loader
00000000002671d4 T _ZN16llama_model_olmo17load_arch_tensorsER18llama_model_loader
0000000000267568 T _ZN16llama_model_olmo5graphC1ERK11llama_modelRK16llm_graph_params
0000000000267568 T _ZN16llama_model_olmo5graphC2ERK11llama_modelRK16llm_graph_params
0000000000267a80 W _ZN16llama_model_olmo5graphD0Ev
00000000001b0ce8 W _ZN16llama_model_olmoC2ERK18llama_model_params
0000000000267a58 W _ZN16llama_model_olmoD0Ev
000000000026cf9c T _ZN16llama_model_phi217load_arch_hparamsER18llama_model_loader
000000000026cff4 T _ZN16llama_model_phi217load_arch_tensorsER18llama_model_loader
000000000026d540 T _ZN16llama_model_phi25graphC1ERK11llama_modelRK16llm_graph_params
000000000026d540 T _ZN16llama_model_phi25graphC2ERK11llama_modelRK16llm_graph_params
000000000026da20 W _ZN16llama_model_phi25graphD0Ev
00000000001b040c W _ZN16llama_model_phi2C2ERK18llama_model_params
000000000026d9f8 W _ZN16llama_model_phi2D0Ev
000000000026da60 T _ZN16llama_model_phi317load_arch_hparamsER18llama_model_loader
000000000026db40 T _ZN16llama_model_phi317load_arch_tensorsER18llama_model_loader
000000000026e238 W _ZN16llama_model_phi35graphILb0EEC1ERK11llama_modelRK16llm_graph_params
000000000026e238 W _ZN16llama_model_phi35graphILb0EEC2ERK11llama_modelRK16llm_graph_params
000000000026eda0 W _ZN16llama_model_phi35graphILb0EED0Ev
000000000026e7d8 W _ZN16llama_model_phi35graphILb1EEC1ERK11llama_modelRK16llm_graph_params
000000000026e7d8 W _ZN16llama_model_phi35graphILb1EEC2ERK11llama_modelRK16llm_graph_params
000000000026ede0 W _ZN16llama_model_phi35graphILb1EED0Ev
00000000001b0460 W _ZN16llama_model_phi3C2ERK18llama_model_params
000000000026ed78 W _ZN16llama_model_phi3D0Ev
0000000000274434 T _ZN16llama_model_qwen17load_arch_hparamsER18llama_model_loader
000000000027448c T _ZN16llama_model_qwen17load_arch_tensorsER18llama_model_loader
000000000027490c T _ZN16llama_model_qwen5graphC1ERK11llama_modelRK16llm_graph_params
000000000027490c T _ZN16llama_model_qwen5graphC2ERK11llama_modelRK16llm_graph_params
0000000000274df4 W _ZN16llama_model_qwen5graphD0Ev
00000000001b001c W _ZN16llama_model_qwenC2ERK18llama_model_params
0000000000274dcc W _ZN16llama_model_qwenD0Ev
00000000002839d4 T _ZN16llama_model_rnd117load_arch_hparamsER18llama_model_loader
0000000000283a44 T _ZN16llama_model_rnd117load_arch_tensorsER18llama_model_loader
0000000000284094 T _ZN16llama_model_rnd15graphC1ERK11llama_modelRK16llm_graph_params
0000000000284094 T _ZN16llama_model_rnd15graphC2ERK11llama_modelRK16llm_graph_params
0000000000284630 W _ZN16llama_model_rnd15graphD0Ev
00000000001b01c0 W _ZN16llama_model_rnd1C2ERK18llama_model_params
0000000000284608 W _ZN16llama_model_rnd1D0Ev
0000000000117168 W _ZN16llm_graph_paramsD2Ev
000000000013f6f4 W _ZN16llm_graph_paramsaSEOS_
00000000001402d8 W _ZN16llm_graph_paramsaSERKS_
000000000013f92c T _ZN16llm_graph_result10set_inputsEPK12llama_ubatch
00000000001402d0 T _ZN16llm_graph_result10set_paramsERK16llm_graph_params
000000000013f978 T _ZN16llm_graph_result11set_outputsERK16llm_graph_params
00000000001401b0 T _ZN16llm_graph_result14add_fused_nodeE20llm_graph_fused_node
000000000013f19c T _ZN16llm_graph_result5resetEv
00000000001400c0 T _ZN16llm_graph_result9add_inputENSt6__ndk110unique_ptrI17llm_graph_input_iNS0_14default_deleteIS2_EEEE
000000000013fb98 T _ZN16llm_graph_result9can_reuseERK16llm_graph_params
000000000013eea8 T _ZN16llm_graph_resultC1El
000000000013eea8 T _ZN16llm_graph_resultC2El
000000000014a6b0 W _ZN16llm_graph_resultD0Ev
000000000014a50c W _ZN16llm_graph_resultD2Ev
00000000002071e8 T _ZN17llama_model_afmoe17load_arch_hparamsER18llama_model_loader
00000000002073a8 T _ZN17llama_model_afmoe17load_arch_tensorsER18llama_model_loader
0000000000207be8 T _ZN17llama_model_afmoe5graphC1ERK11llama_modelRK16llm_graph_params
0000000000207be8 T _ZN17llama_model_afmoe5graphC2ERK11llama_modelRK16llm_graph_params
0000000000208458 W _ZN17llama_model_afmoe5graphD0Ev
00000000001b1b04 W _ZN17llama_model_afmoeC2ERK18llama_model_params
0000000000208430 W _ZN17llama_model_afmoeD0Ev
0000000000209264 T _ZN17llama_model_arcee17load_arch_hparamsER18llama_model_loader
00000000002092b0 T _ZN17llama_model_arcee17load_arch_tensorsER18llama_model_loader
000000000020992c T _ZN17llama_model_arcee5graphC1ERK11llama_modelRK16llm_graph_params
000000000020992c T _ZN17llama_model_arcee5graphC2ERK11llama_modelRK16llm_graph_params
0000000000209e90 W _ZN17llama_model_arcee5graphD0Ev
00000000001b1ab0 W _ZN17llama_model_arceeC2ERK18llama_model_params
0000000000209e68 W _ZN17llama_model_arceeD0Ev
0000000000210628 T _ZN17llama_model_bloom17load_arch_hparamsER18llama_model_loader
00000000002106e8 T _ZN17llama_model_bloom17load_arch_tensorsER18llama_model_loader
0000000000210d6c T _ZN17llama_model_bloom5graphC1ERK11llama_modelRK16llm_graph_params
0000000000210d6c T _ZN17llama_model_bloom5graphC2ERK11llama_modelRK16llm_graph_params
00000000002111d4 W _ZN17llama_model_bloom5graphD0Ev
00000000001afecc W _ZN17llama_model_bloomC2ERK18llama_model_params
00000000002111ac W _ZN17llama_model_bloomD0Ev
0000000000227960 T _ZN17llama_model_dots117load_arch_hparamsER18llama_model_loader
0000000000227a40 T _ZN17llama_model_dots117load_arch_tensorsER18llama_model_loader
00000000002281fc T _ZN17llama_model_dots15graphC1ERK11llama_modelRK16llm_graph_params
00000000002281fc T _ZN17llama_model_dots15graphC2ERK11llama_modelRK16llm_graph_params
00000000002288a0 W _ZN17llama_model_dots15graphD0Ev
00000000001b1a5c W _ZN17llama_model_dots1C2ERK18llama_model_params
0000000000228878 W _ZN17llama_model_dots1D0Ev
00000000002288e0 T _ZN17llama_model_dream17load_arch_hparamsER18llama_model_loader
0000000000228934 T _ZN17llama_model_dream17load_arch_tensorsER18llama_model_loader
0000000000228dd8 T _ZN17llama_model_dream5graphC1ERK11llama_modelRK16llm_graph_params
0000000000228dd8 T _ZN17llama_model_dream5graphC2ERK11llama_modelRK16llm_graph_params
00000000002292e0 W _ZN17llama_model_dream5graphD0Ev
00000000001b00c4 W _ZN17llama_model_dreamC2ERK18llama_model_params
00000000002292b8 W _ZN17llama_model_dreamD0Ev
0000000000232870 T _ZN17llama_model_gemma17load_arch_hparamsER18llama_model_loader
00000000002328c8 T _ZN17llama_model_gemma17load_arch_tensorsER18llama_model_loader
0000000000232d00 T _ZN17llama_model_gemma5graphC1ERK11llama_modelRK16llm_graph_params
0000000000232d00 T _ZN17llama_model_gemma5graphC2ERK11llama_modelRK16llm_graph_params
0000000000233200 W _ZN17llama_model_gemma5graphD0Ev
00000000001b07a8 W _ZN17llama_model_gemmaC2ERK18llama_model_params
00000000002331d8 W _ZN17llama_model_gemmaD0Ev
0000000000246de0 T _ZN17llama_model_hy_v317load_arch_hparamsER18llama_model_loader
0000000000246f00 T _ZN17llama_model_hy_v317load_arch_tensorsER18llama_model_loader
0000000000247bd4 T _ZN17llama_model_hy_v35graphC1ERK11llama_modelRK16llm_graph_params
0000000000247bd4 T _ZN17llama_model_hy_v35graphC2ERK11llama_modelRK16llm_graph_params
0000000000248c18 W _ZN17llama_model_hy_v35graphD0Ev
0000000000248278 T _ZN17llama_model_hy_v39graph_mtpC1ERK11llama_modelRK16llm_graph_params
0000000000248278 T _ZN17llama_model_hy_v39graph_mtpC2ERK11llama_modelRK16llm_graph_params
0000000000248c58 W _ZN17llama_model_hy_v39graph_mtpD0Ev
00000000001b1da4 W _ZN17llama_model_hy_v3C2ERK18llama_model_params
0000000000248bf0 W _ZN17llama_model_hy_v3D0Ev
000000000024a1ac T _ZN17llama_model_jais217load_arch_hparamsER18llama_model_loader
000000000024a204 T _ZN17llama_model_jais217load_arch_tensorsER18llama_model_loader
000000000024a950 T _ZN17llama_model_jais25graphC1ERK11llama_modelRK16llm_graph_params
000000000024a950 T _ZN17llama_model_jais25graphC2ERK11llama_modelRK16llm_graph_params
000000000024ae3c W _ZN17llama_model_jais25graphD0Ev
00000000001b1378 W _ZN17llama_model_jais2C2ERK18llama_model_params
000000000024ae14 W _ZN17llama_model_jais2D0Ev
000000000024ae7c T _ZN17llama_model_jamba17load_arch_hparamsER18llama_model_loader
000000000024af6c T _ZN17llama_model_jamba17load_arch_tensorsER18llama_model_loader
000000000024b8f8 T _ZN17llama_model_jamba5graphC1ERK11llama_modelRK16llm_graph_params
000000000024b8f8 T _ZN17llama_model_jamba5graphC2ERK11llama_modelRK16llm_graph_params
000000000024bd8c W _ZN17llama_model_jamba5graphD0Ev
00000000001b0af0 W _ZN17llama_model_jambaC2ERK18llama_model_params
000000000024bd64 W _ZN17llama_model_jambaD0Ev
000000000025489c T _ZN17llama_model_llada17load_arch_hparamsER18llama_model_loader
00000000002548f0 T _ZN17llama_model_llada17load_arch_tensorsER18llama_model_loader
0000000000254f78 T _ZN17llama_model_llada5graphC1ERK11llama_modelRK16llm_graph_params
0000000000254f78 T _ZN17llama_model_llada5graphC2ERK11llama_modelRK16llm_graph_params
0000000000255480 W _ZN17llama_model_llada5graphD0Ev
00000000001b0118 W _ZN17llama_model_lladaC2ERK18llama_model_params
0000000000255458 W _ZN17llama_model_lladaD0Ev
0000000000255548 T _ZN17llama_model_llama17load_arch_hparamsER18llama_model_loader
0000000000255714 T _ZN17llama_model_llama17load_arch_tensorsER18llama_model_loader
0000000000255fc4 W _ZN17llama_model_llama5graphILb0EEC1ERK11llama_modelRK16llm_graph_params
0000000000255fc4 W _ZN17llama_model_llama5graphILb0EEC2ERK11llama_modelRK16llm_graph_params
0000000000256cb4 W _ZN17llama_model_llama5graphILb0EED0Ev
0000000000256644 W _ZN17llama_model_llama5graphILb1EEC1ERK11llama_modelRK16llm_graph_params
0000000000256644 W _ZN17llama_model_llama5graphILb1EEC2ERK11llama_modelRK16llm_graph_params
0000000000256cf4 W _ZN17llama_model_llama5graphILb1EED0Ev
00000000001af890 W _ZN17llama_model_llamaC2ERK18llama_model_params
0000000000256c8c W _ZN17llama_model_llamaD0Ev
000000000025a6ac T _ZN17llama_model_mamba17load_arch_hparamsER18llama_model_loader
000000000025a818 T _ZN17llama_model_mamba17load_arch_tensorsER18llama_model_loader
000000000025ae04 T _ZN17llama_model_mamba5graphC1ERK11llama_modelRK16llm_graph_params
000000000025ae04 T _ZN17llama_model_mamba5graphC2ERK11llama_modelRK16llm_graph_params
000000000025b090 W _ZN17llama_model_mamba5graphD0Ev
00000000001b0a48 W _ZN17llama_model_mambaC2ERK18llama_model_params
000000000025b068 W _ZN17llama_model_mambaD0Ev
000000000025cbe8 T _ZN17llama_model_mimo217load_arch_hparamsER18llama_model_loader
000000000025cd5c T _ZN17llama_model_mimo217load_arch_tensorsER18llama_model_loader
000000000025d518 T _ZN17llama_model_mimo25graphC1ERK11llama_modelRK16llm_graph_params
000000000025d518 T _ZN17llama_model_mimo25graphC2ERK11llama_modelRK16llm_graph_params
000000000025dc94 W _ZN17llama_model_mimo25graphD0Ev
00000000001b238c W _ZN17llama_model_mimo2C2ERK18llama_model_params
000000000025dc6c W _ZN17llama_model_mimo2D0Ev
0000000000267ac0 T _ZN17llama_model_olmo217load_arch_hparamsER18llama_model_loader
0000000000267bf4 T _ZN17llama_model_olmo217load_arch_tensorsER18llama_model_loader
00000000002680f4 W _ZN17llama_model_olmo25graphILb0EEC1ERK11llama_modelRK16llm_graph_params
00000000002680f4 W _ZN17llama_model_olmo25graphILb0EEC2ERK11llama_modelRK16llm_graph_params
0000000000268e54 W _ZN17llama_model_olmo25graphILb0EED0Ev
0000000000268790 W _ZN17llama_model_olmo25graphILb1EEC1ERK11llama_modelRK16llm_graph_params
0000000000268790 W _ZN17llama_model_olmo25graphILb1EEC2ERK11llama_modelRK16llm_graph_params
0000000000268e94 W _ZN17llama_model_olmo25graphILb1EED0Ev
00000000001b0d3c W _ZN17llama_model_olmo2C2ERK18llama_model_params
0000000000268e2c W _ZN17llama_model_olmo2D0Ev
0000000000268ed4 T _ZN17llama_model_olmoe17load_arch_hparamsER18llama_model_loader
0000000000268f20 T _ZN17llama_model_olmoe17load_arch_tensorsER18llama_model_loader
00000000002694c0 T _ZN17llama_model_olmoe5graphC1ERK11llama_modelRK16llm_graph_params
00000000002694c0 T _ZN17llama_model_olmoe5graphC2ERK11llama_modelRK16llm_graph_params
0000000000269af0 W _ZN17llama_model_olmoe5graphD0Ev
00000000001b0d90 W _ZN17llama_model_olmoeC2ERK18llama_model_params
0000000000269ac8 W _ZN17llama_model_olmoeD0Ev
000000000026b3c4 T _ZN17llama_model_orion17load_arch_hparamsER18llama_model_loader
000000000026b410 T _ZN17llama_model_orion17load_arch_tensorsER18llama_model_loader
000000000026b8f8 T _ZN17llama_model_orion5graphC1ERK11llama_modelRK16llm_graph_params
000000000026b8f8 T _ZN17llama_model_orion5graphC2ERK11llama_modelRK16llm_graph_params
000000000026bdfc W _ZN17llama_model_orion5graphD0Ev
00000000001b06ac W _ZN17llama_model_orionC2ERK18llama_model_params
000000000026bdd4 W _ZN17llama_model_orionD0Ev
000000000026f564 T _ZN17llama_model_plamo17load_arch_hparamsER18llama_model_loader
000000000026f5b0 T _ZN17llama_model_plamo17load_arch_tensorsER18llama_model_loader
000000000026f984 T _ZN17llama_model_plamo5graphC1ERK11llama_modelRK16llm_graph_params
000000000026f984 T _ZN17llama_model_plamo5graphC2ERK11llama_modelRK16llm_graph_params
000000000026fe44 W _ZN17llama_model_plamo5graphD0Ev
00000000001b0508 W _ZN17llama_model_plamoC2ERK18llama_model_params
000000000026fe1c W _ZN17llama_model_plamoD0Ev
0000000000274e34 T _ZN17llama_model_qwen217load_arch_hparamsER18llama_model_loader
0000000000274fa8 T _ZN17llama_model_qwen217load_arch_tensorsER18llama_model_loader
000000000027544c T _ZN17llama_model_qwen25graphC1ERK11llama_modelRK16llm_graph_params
000000000027544c T _ZN17llama_model_qwen25graphC2ERK11llama_modelRK16llm_graph_params
000000000027596c W _ZN17llama_model_qwen25graphD0Ev
00000000001b0070 W _ZN17llama_model_qwen2C2ERK18llama_model_params
0000000000275944 W _ZN17llama_model_qwen2D0Ev
0000000000277160 T _ZN17llama_model_qwen317load_arch_hparamsER18llama_model_loader
000000000027723c T _ZN17llama_model_qwen317load_arch_tensorsER18llama_model_loader
0000000000277780 T _ZN17llama_model_qwen35graphC1ERK11llama_modelRK16llm_graph_params
0000000000277780 T _ZN17llama_model_qwen35graphC2ERK11llama_modelRK16llm_graph_params
0000000000277d14 W _ZN17llama_model_qwen35graphD0Ev
00000000001b02bc W _ZN17llama_model_qwen3C2ERK18llama_model_params
0000000000277cec W _ZN17llama_model_qwen3D0Ev
0000000000285350 T _ZN17llama_model_rwkv617load_arch_hparamsER18llama_model_loader
00000000002854c4 T _ZN17llama_model_rwkv617load_arch_tensorsER18llama_model_loader
0000000000285fdc T _ZN17llama_model_rwkv65graphC1ERK11llama_modelRK16llm_graph_params
0000000000285fdc T _ZN17llama_model_rwkv65graphC2ERK11llama_modelRK16llm_graph_params
00000000002865c8 W _ZN17llama_model_rwkv65graphD0Ev
00000000001b15c4 W _ZN17llama_model_rwkv6C2ERK18llama_model_params
00000000002865a0 W _ZN17llama_model_rwkv6D0Ev
0000000000287f60 T _ZN17llama_model_rwkv717load_arch_hparamsER18llama_model_loader
0000000000288148 T _ZN17llama_model_rwkv717load_arch_tensorsER18llama_model_loader
0000000000288cac T _ZN17llama_model_rwkv75graphC1ERK11llama_modelRK16llm_graph_params
0000000000288cac T _ZN17llama_model_rwkv75graphC2ERK11llama_modelRK16llm_graph_params
0000000000289298 W _ZN17llama_model_rwkv75graphD0Ev
00000000001b166c W _ZN17llama_model_rwkv7C2ERK18llama_model_params
0000000000289270 W _ZN17llama_model_rwkv7D0Ev
000000000019b248 T _ZN17llama_model_saver10add_tensorEPK11ggml_tensor
000000000019b504 T _ZN17llama_model_saver17add_kv_from_modelEv
000000000019f1bc T _ZN17llama_model_saver22add_tensors_from_modelEv
000000000019f568 T _ZN17llama_model_saver4saveEP7__sFILE
000000000019f54c T _ZN17llama_model_saver4saveERKNSt6__ndk112basic_stringIcNS0_11char_traitsIcEENS0_9allocatorIcEEEE
000000000019aa80 T _ZN17llama_model_saver6add_kvE6llm_kvPKc
000000000019ad44 T _ZN17llama_model_saver6add_kvE6llm_kvRKNSt6__ndk16vectorINS1_12basic_stringIcNS1_11char_traitsIcEENS1_9allocatorIcEEEENS6_IS8_EEEE
000000000019a9bc T _ZN17llama_model_saver6add_kvE6llm_kvb
000000000019ab44 T _ZN17llama_model_saver6add_kvE6llm_kvc
000000000019a8f0 T _ZN17llama_model_saver6add_kvE6llm_kvf
000000000019a82c T _ZN17llama_model_saver6add_kvE6llm_kvi
000000000019a768 T _ZN17llama_model_saver6add_kvE6llm_kvj
000000000019e4c8 W _ZN17llama_model_saver6add_kvINSt6__ndk112basic_stringIcNS1_11char_traitsIcEENS1_9allocatorIcEEEEEEv6llm_kvRKT_b
000000000019e880 W _ZN17llama_model_saver6add_kvINSt6__ndk15arrayIfLm512EEEEEv6llm_kvRKT_b
000000000019ec24 W _ZN17llama_model_saver6add_kvINSt6__ndk15arrayIiLm4EEEEEv6llm_kvRKT_b
000000000019ea58 W _ZN17llama_model_saver6add_kvINSt6__ndk15arrayIiLm512EEEEEv6llm_kvRKT_b
000000000019e6b4 W _ZN17llama_model_saver6add_kvINSt6__ndk15arrayIjLm512EEEEEv6llm_kvRKT_b
000000000019efd0 W _ZN17llama_model_saver6add_kvINSt6__ndk16vectorIfNS1_9allocatorIfEEEEEEv6llm_kvRKT_b
000000000019edf0 W _ZN17llama_model_saver6add_kvINSt6__ndk16vectorIiNS1_9allocatorIiEEEEEEv6llm_kvRKT_b
000000000019ab64 W _ZN17llama_model_saver6add_kvINSt6__ndk16vectorIjNS1_9allocatorIjEEEEEEv6llm_kvRKT_b
000000000019a6e8 T _ZN17llama_model_saverC1E8llm_archP12gguf_context
000000000019a678 T _ZN17llama_model_saverC1EPK11llama_model
000000000019a6e8 T _ZN17llama_model_saverC2E8llm_archP12gguf_context
000000000019a678 T _ZN17llama_model_saverC2EPK11llama_model
000000000019a740 T _ZN17llama_model_saverD1Ev
000000000019a740 T _ZN17llama_model_saverD2Ev
00000000001cfa8c W _ZN17llama_sampler_dryD2Ev
00000000001404e8 T _ZN17llm_graph_contextC1ERK16llm_graph_params
00000000001404e8 T _ZN17llm_graph_contextC2ERK16llm_graph_params
000000000014a6f8 W _ZN17llm_graph_contextD0Ev
000000000014a6d8 W _ZN17llm_graph_contextD2Ev
0000000000149d04 W _ZN17llm_graph_input_i9can_reuseERK16llm_graph_params
000000000014b058 W _ZN17llm_graph_input_iD0Ev
000000000014a1d4 W _ZN17llm_graph_input_iD2Ev
00000000001e330c W _ZN17llm_tokenizer_bpeC2ERK11llama_vocab
00000000001e428c W _ZN17llm_tokenizer_bpeD0Ev
00000000001e41f0 W _ZN17llm_tokenizer_bpeD2Ev
00000000001e3304 W _ZN17llm_tokenizer_spmD0Ev
00000000001e46f0 W _ZN17llm_tokenizer_ugmC2ERK11llama_vocabRKNSt6__ndk16vectorIcNS3_9allocatorIcEEEE
00000000001e4be4 W _ZN17llm_tokenizer_ugmD0Ev
00000000001e4b84 W _ZN17llm_tokenizer_ugmD2Ev
00000000001e46e8 W _ZN17llm_tokenizer_wpmD0Ev
00000000000fb344 T _ZN18llama_adapter_cvec4initERK11llama_model
00000000000fbae8 T _ZN18llama_adapter_cvec5applyERK11llama_modelPKfmiii
000000000011eff0 W _ZN18llama_adapter_cvecD2Ev
00000000000fbc10 T _ZN18llama_adapter_lora10get_weightEP11ggml_tensor
00000000000fe160 W _ZN18llama_adapter_loraD2Ev
0000000000105ab0 T _ZN18llama_batch_allocr10ubatch_addERKNSt6__ndk16vectorIiNS0_9allocatorIiEEEEjb
0000000000105818 T _ZN18llama_batch_allocr11get_out_idsEv
00000000001063bc T _ZN18llama_batch_allocr11split_equalEjbj
0000000000105304 T _ZN18llama_batch_allocr11split_resetEv
0000000000105820 T _ZN18llama_batch_allocr12split_simpleEj
000000000010473c T _ZN18llama_batch_allocr12ubatch_printERK12llama_ubatchi
0000000000105328 T _ZN18llama_batch_allocr14ubatch_reserveEjj
0000000000102bc4 T _ZN18llama_batch_allocr4initERK11llama_batchRK11llama_vocabPK14llama_memory_ijjb
00000000001044ac T _ZN18llama_batch_allocr5clearEv
0000000000106ff0 T _ZN18llama_batch_allocr9split_seqEj
0000000000102454 T _ZN18llama_batch_allocrC1Ej
0000000000102454 T _ZN18llama_batch_allocrC2Ej
0000000000119c90 W _ZN18llama_batch_allocrD2Ev
000000000011ec98 W _ZN18llama_io_read_file11read_tensorEP11ggml_tensormm
000000000011ec64 W _ZN18llama_io_read_file4readEPvm
000000000011edd8 W _ZN18llama_io_read_file7n_bytesEv
000000000011ec14 W _ZN18llama_io_read_fileD0Ev
000000000011b2a8 W _ZN18llama_io_read_fileD2Ev
000000000011ea8c W _ZN18llama_io_read_host11read_tensorEP11ggml_tensormm
000000000011e9f0 W _ZN18llama_io_read_host4readEPvm
000000000011ebf8 W _ZN18llama_io_read_host7n_bytesEv
000000000011e970 W _ZN18llama_io_read_hostD0Ev
000000000011a788 W _ZN18llama_io_read_hostD2Ev
000000000016accc T _ZN18llama_kv_cache_dsa10init_batchER18llama_batch_allocrjb
000000000016b344 T _ZN18llama_kv_cache_dsa10state_readER15llama_io_read_iij
000000000016b208 T _ZN18llama_kv_cache_dsa11init_updateEP13llama_contextb
000000000016a8ac T _ZN18llama_kv_cache_dsa5clearEb
000000000016a958 T _ZN18llama_kv_cache_dsa6seq_cpEiiii
000000000016a8ec T _ZN18llama_kv_cache_dsa6seq_rmEiii
000000000016aa00 T _ZN18llama_kv_cache_dsa7seq_addEiiii
000000000016aa68 T _ZN18llama_kv_cache_dsa7seq_divEiiii
000000000016a9c0 T _ZN18llama_kv_cache_dsa8seq_keepEi
000000000016b1b0 T _ZN18llama_kv_cache_dsa9init_fullEv
000000000016a40c T _ZN18llama_kv_cache_dsaC1ERK11llama_model9ggml_typeS3_bbbjjjj14llama_swa_typeRKNSt6__ndk18functionIFbiEEERKNS6_IFiiEEE
000000000016a40c T _ZN18llama_kv_cache_dsaC2ERK11llama_model9ggml_typeS3_bbbjjjj14llama_swa_typeRKNSt6__ndk18functionIFbiEEERKNS6_IFiiEEE
000000000016bd68 W _ZN18llama_kv_cache_dsaD0Ev
000000000016bd04 W _ZN18llama_kv_cache_dsaD2Ev
0000000000209ed0 T _ZN18llama_model_arctic17load_arch_hparamsER18llama_model_loader
0000000000209f38 T _ZN18llama_model_arctic17load_arch_tensorsER18llama_model_loader
000000000020a4e4 T _ZN18llama_model_arctic5graphC1ERK11llama_modelRK16llm_graph_params
000000000020a4e4 T _ZN18llama_model_arctic5graphC2ERK11llama_modelRK16llm_graph_params
000000000020aaec W _ZN18llama_model_arctic5graphD0Ev
00000000001b0e8c W _ZN18llama_model_arcticC2ERK18llama_model_params
000000000020aac4 W _ZN18llama_model_arcticD0Ev
000000000020ab2c T _ZN18llama_model_arwkv717load_arch_hparamsER18llama_model_loader
000000000020ad14 T _ZN18llama_model_arwkv717load_arch_tensorsER18llama_model_loader
000000000020b7bc T _ZN18llama_model_arwkv75graphC1ERK11llama_modelRK16llm_graph_params
000000000020b7bc T _ZN18llama_model_arwkv75graphC2ERK11llama_modelRK16llm_graph_params
000000000020bcbc W _ZN18llama_model_arwkv75graphD0Ev
00000000001b16c0 W _ZN18llama_model_arwkv7C2ERK18llama_model_params
000000000020bc94 W _ZN18llama_model_arwkv7D0Ev
000000000020f8d8 T _ZN18llama_model_bitnet17load_arch_hparamsER18llama_model_loader
000000000020f924 T _ZN18llama_model_bitnet17load_arch_tensorsER18llama_model_loader
000000000020ffe0 T _ZN18llama_model_bitnet5graphC1ERK11llama_modelRK16llm_graph_params
000000000020ffe0 T _ZN18llama_model_bitnet5graphC2ERK11llama_modelRK16llm_graph_params
00000000002105e8 W _ZN18llama_model_bitnet5graphD0Ev
00000000001b1228 W _ZN18llama_model_bitnetC2ERK18llama_model_params
00000000002105c0 W _ZN18llama_model_bitnetD0Ev
00000000002134d4 T _ZN18llama_model_cogvlm17load_arch_hparamsER18llama_model_loader
0000000000213520 T _ZN18llama_model_cogvlm17load_arch_tensorsER18llama_model_loader
0000000000213b50 T _ZN18llama_model_cogvlm5graphC1ERK11llama_modelRK16llm_graph_params
0000000000213b50 T _ZN18llama_model_cogvlm5graphC2ERK11llama_modelRK16llm_graph_params
000000000021408c W _ZN18llama_model_cogvlm5graphD0Ev
00000000001b20ec W _ZN18llama_model_cogvlmC2ERK18llama_model_params
0000000000214064 W _ZN18llama_model_cogvlmD0Ev
00000000002261e8 T _ZN18llama_model_dflash17load_arch_hparamsER18llama_model_loader
000000000022639c T _ZN18llama_model_dflash17load_arch_tensorsER18llama_model_loader
0000000000226bac T _ZN18llama_model_dflash5graphILb0EEC1ERK11llama_modelRK16llm_graph_params
0000000000226bac T _ZN18llama_model_dflash5graphILb0EEC2ERK11llama_modelRK16llm_graph_params
0000000000227920 W _ZN18llama_model_dflash5graphILb0EED0Ev
0000000000226ab8 T _ZN18llama_model_dflash5graphILb1EEC1ERK11llama_modelRK16llm_graph_params
0000000000226ab8 T _ZN18llama_model_dflash5graphILb1EEC2ERK11llama_modelRK16llm_graph_params
00000000002278e0 W _ZN18llama_model_dflash5graphILb1EED0Ev
00000000001b2338 W _ZN18llama_model_dflashC2ERK18llama_model_params
00000000002278b8 W _ZN18llama_model_dflashD0Ev
0000000000229320 T _ZN18llama_model_eagle317load_arch_hparamsER18llama_model_loader
00000000002294ec T _ZN18llama_model_eagle317load_arch_tensorsER18llama_model_loader
0000000000229e98 T _ZN18llama_model_eagle35graphILb0EEC1ERK11llama_modelRK16llm_graph_params
0000000000229e98 T _ZN18llama_model_eagle35graphILb0EEC2ERK11llama_modelRK16llm_graph_params
000000000022a7f4 W _ZN18llama_model_eagle35graphILb0EED0Ev
0000000000229de4 T _ZN18llama_model_eagle35graphILb1EEC1ERK11llama_modelRK16llm_graph_params
0000000000229de4 T _ZN18llama_model_eagle35graphILb1EEC2ERK11llama_modelRK16llm_graph_params
000000000022a7b4 W _ZN18llama_model_eagle35graphILb1EED0Ev
00000000001b22e4 W _ZN18llama_model_eagle3C2ERK18llama_model_params
000000000022a78c W _ZN18llama_model_eagle3D0Ev
000000000022da48 T _ZN18llama_model_exaone17load_arch_hparamsER18llama_model_loader
000000000022da94 T _ZN18llama_model_exaone17load_arch_tensorsER18llama_model_loader
000000000022e1a8 T _ZN18llama_model_exaone5graphC1ERK11llama_modelRK16llm_graph_params
000000000022e1a8 T _ZN18llama_model_exaone5graphC2ERK11llama_modelRK16llm_graph_params
000000000022e6e4 W _ZN18llama_model_exaone5graphD0Ev
00000000001b14c8 W _ZN18llama_model_exaoneC2ERK18llama_model_params
000000000022e6bc W _ZN18llama_model_exaoneD0Ev
0000000000230fb0 T _ZN18llama_model_falcon17load_arch_hparamsER18llama_model_loader
0000000000231008 T _ZN18llama_model_falcon17load_arch_tensorsER18llama_model_loader
0000000000231508 T _ZN18llama_model_falcon5graphC1ERK11llama_modelRK16llm_graph_params
0000000000231508 T _ZN18llama_model_falcon5graphC2ERK11llama_modelRK16llm_graph_params
0000000000231a10 W _ZN18llama_model_falcon5graphD0Ev
00000000001afadc W _ZN18llama_model_falconC2ERK18llama_model_params
00000000002319e8 W _ZN18llama_model_falconD0Ev
0000000000233240 T _ZN18llama_model_gemma217load_arch_hparamsER18llama_model_loader
00000000002333d8 T _ZN18llama_model_gemma217load_arch_tensorsER18llama_model_loader
0000000000233890 T _ZN18llama_model_gemma25graphC1ERK11llama_modelRK16llm_graph_params
0000000000233890 T _ZN18llama_model_gemma25graphC2ERK11llama_modelRK16llm_graph_params
0000000000233e5c W _ZN18llama_model_gemma25graphD0Ev
00000000001b07fc W _ZN18llama_model_gemma2C2ERK18llama_model_params
0000000000233e34 W _ZN18llama_model_gemma2D0Ev
0000000000233e9c T _ZN18llama_model_gemma317load_arch_hparamsER18llama_model_loader
0000000000234048 T _ZN18llama_model_gemma317load_arch_tensorsER18llama_model_loader
0000000000234690 W _ZN18llama_model_gemma35graphILb0EEC1ERK11llama_modelRK16llm_graph_params
0000000000234690 W _ZN18llama_model_gemma35graphILb0EEC2ERK11llama_modelRK16llm_graph_params
0000000000235304 W _ZN18llama_model_gemma35graphILb0EED0Ev
0000000000234ca4 W _ZN18llama_model_gemma35graphILb1EEC1ERK11llama_modelRK16llm_graph_params
0000000000234ca4 W _ZN18llama_model_gemma35graphILb1EEC2ERK11llama_modelRK16llm_graph_params
0000000000235344 W _ZN18llama_model_gemma35graphILb1EED0Ev
00000000001b0850 W _ZN18llama_model_gemma3C2ERK18llama_model_params
00000000002352dc W _ZN18llama_model_gemma3D0Ev
0000000000238c64 T _ZN18llama_model_gemma417load_arch_hparamsER18llama_model_loader
0000000000238e1c T _ZN18llama_model_gemma417load_arch_tensorsER18llama_model_loader
000000000023a8cc T _ZN18llama_model_gemma45graph19build_inp_per_layerEv
000000000023aae8 T _ZN18llama_model_gemma45graph24project_per_layer_inputsEP11ggml_tensorS2_
0000000000239a40 T _ZN18llama_model_gemma45graphC1ERK11llama_modelRK16llm_graph_params
0000000000239a40 T _ZN18llama_model_gemma45graphC2ERK11llama_modelRK16llm_graph_params
000000000023ac48 W _ZN18llama_model_gemma45graphD0Ev
00000000001b08f8 W _ZN18llama_model_gemma4C2ERK18llama_model_params
000000000023ac20 W _ZN18llama_model_gemma4D0Ev
000000000024f678 T _ZN18llama_model_laguna17load_arch_hparamsER18llama_model_loader
000000000024f880 T _ZN18llama_model_laguna17load_arch_tensorsER18llama_model_loader
00000000002501cc T _ZN18llama_model_laguna5graphC1ERK11llama_modelRK16llm_graph_params
00000000002501cc T _ZN18llama_model_laguna5graphC2ERK11llama_modelRK16llm_graph_params
0000000000250afc W _ZN18llama_model_laguna5graphD0Ev
00000000001b1b58 W _ZN18llama_model_lagunaC2ERK18llama_model_params
0000000000250ad4 W _ZN18llama_model_lagunaD0Ev
0000000000256d34 T _ZN18llama_model_llama417load_arch_hparamsER18llama_model_loader
0000000000256f08 T _ZN18llama_model_llama417load_arch_tensorsER18llama_model_loader
000000000025779c W _ZN18llama_model_llama45graphILb0EEC1ERK11llama_modelRK16llm_graph_params
000000000025779c W _ZN18llama_model_llama45graphILb0EEC2ERK11llama_modelRK16llm_graph_params
00000000002586dc W _ZN18llama_model_llama45graphILb0EED0Ev
0000000000257f28 W _ZN18llama_model_llama45graphILb1EEC1ERK11llama_modelRK16llm_graph_params
0000000000257f28 W _ZN18llama_model_llama45graphILb1EEC2ERK11llama_modelRK16llm_graph_params
000000000025871c W _ZN18llama_model_llama45graphILb1EED0Ev
00000000001af8e4 W _ZN18llama_model_llama4C2ERK18llama_model_params
00000000002586b4 W _ZN18llama_model_llama4D0Ev
000000000018e604 T _ZN18llama_model_loader13create_tensorERK13llama_hparamsPKNSt6__ndk16vectorINS3_4pairIP19ggml_backend_deviceP24ggml_backend_buffer_typeEENS3_9allocatorISA_EEEESF_SF_SF_RK11LLM_TN_IMPLRKSt16initializer_listIlEi
000000000018fd30 T _ZN18llama_model_loader13init_mappingsEbPNSt6__ndk16vectorINS0_10unique_ptrI11llama_mlockNS0_14default_deleteIS3_EEEENS0_9allocatorIS6_EEEE
0000000000190708 T _ZN18llama_model_loader13load_all_dataEP12ggml_contextRNSt6__ndk113unordered_mapIjP19ggml_backend_bufferNS2_4hashIjEENS2_8equal_toIjEENS2_9allocatorINS2_4pairIKjS5_EEEEEEPNS2_6vectorINS2_10unique_ptrI11llama_mlockNS2_14default_deleteISJ_EEEENSA_ISM_EEEEPFbfPvESQ_
00000000001894e0 T _ZN18llama_model_loader14get_key_or_arrE6llm_kvRjb
0000000000189f70 W _ZN18llama_model_loader14get_key_or_arrINSt6__ndk15arrayIfLm512EEEEEb6llm_kvRT_jb
0000000000189724 W _ZN18llama_model_loader14get_key_or_arrINSt6__ndk15arrayIiLm4EEEEEb6llm_kvRT_jb
0000000000189b3c W _ZN18llama_model_loader14get_key_or_arrINSt6__ndk15arrayIjLm512EEEEEb6llm_kvRT_jb
000000000018a048 W _ZN18llama_model_loader14get_key_or_arrIfLm512EEEbRKNSt6__ndk112basic_stringIcNS1_11char_traitsIcEENS1_9allocatorIcEEEERNS1_5arrayIT_XT0_EEEjb
00000000001897fc W _ZN18llama_model_loader14get_key_or_arrIiLm4EEEbRKNSt6__ndk112basic_stringIcNS1_11char_traitsIcEENS1_9allocatorIcEEEERNS1_5arrayIT_XT0_EEEjb
0000000000189c14 W _ZN18llama_model_loader14get_key_or_arrIjLm512EEEbRKNSt6__ndk112basic_stringIcNS1_11char_traitsIcEENS1_9allocatorIcEEEERNS1_5arrayIT_XT0_EEEjb
000000000018d720 W _ZN18llama_model_loader19llama_tensor_weightC2EPK10llama_filetPK12gguf_contextP11ggml_tensor
000000000018f810 T _ZN18llama_model_loader21create_tensor_as_viewEP12ggml_contextP11ggml_tensorRKNSt6__ndk112basic_stringIcNS4_11char_traitsIcEENS4_9allocatorIcEEEERKSt16initializer_listIlEmb
0000000000187740 W _ZN18llama_model_loader7get_arrINSt6__ndk112basic_stringIcNS1_11char_traitsIcEENS1_9allocatorIcEEEEEEbRKS7_RNS1_6vectorIT_NS5_ISB_EEEEb
0000000000187bac W _ZN18llama_model_loader7get_arrINSt6__ndk15arrayIiLm512EEEEEb6llm_kvRT_b
00000000001884b0 W _ZN18llama_model_loader7get_arrINSt6__ndk15arrayIjLm512EEEEEb6llm_kvRT_b
0000000000187678 W _ZN18llama_model_loader7get_arrINSt6__ndk16vectorINS1_12basic_stringIcNS1_11char_traitsIcEENS1_9allocatorIcEEEENS6_IS8_EEEEEEb6llm_kvRT_b
0000000000188114 W _ZN18llama_model_loader7get_arrINSt6__ndk16vectorIiNS1_9allocatorIiEEEEEEb6llm_kvRT_b
00000000001988cc W _ZN18llama_model_loader7get_arrIfLm512EEEbRKNSt6__ndk112basic_stringIcNS1_11char_traitsIcEENS1_9allocatorIcEEEERNS1_5arrayIT_XT0_EEEb
00000000001881dc W _ZN18llama_model_loader7get_arrIiEEbRKNSt6__ndk112basic_stringIcNS1_11char_traitsIcEENS1_9allocatorIcEEEERNS1_6vectorIT_NS5_ISB_EEEEb
0000000000198514 W _ZN18llama_model_loader7get_arrIiLm4EEEbRKNSt6__ndk112basic_stringIcNS1_11char_traitsIcEENS1_9allocatorIcEEEERNS1_5arrayIT_XT0_EEEb
0000000000187c74 W _ZN18llama_model_loader7get_arrIiLm512EEEbRKNSt6__ndk112basic_stringIcNS1_11char_traitsIcEENS1_9allocatorIcEEEERNS1_5arrayIT_XT0_EEEb
0000000000188578 W _ZN18llama_model_loader7get_arrIjLm512EEEbRKNSt6__ndk112basic_stringIcNS1_11char_traitsIcEENS1_9allocatorIcEEEERNS1_5arrayIT_XT0_EEEb
0000000000189408 T _ZN18llama_model_loader7get_keyI18llama_pooling_typeEEb6llm_kvRT_b
0000000000189158 W _ZN18llama_model_loader7get_keyINSt6__ndk112basic_stringIcNS1_11char_traitsIcEENS1_9allocatorIcEEEEEEb6llm_kvRT_b
0000000000189220 W _ZN18llama_model_loader7get_keyINSt6__ndk112basic_stringIcNS1_11char_traitsIcEENS1_9allocatorIcEEEEEEbRKS7_RT_b
0000000000188a18 W _ZN18llama_model_loader7get_keyIbEEb6llm_kvRT_b
0000000000188ae0 W _ZN18llama_model_loader7get_keyIbEEbRKNSt6__ndk112basic_stringIcNS1_11char_traitsIcEENS1_9allocatorIcEEEERT_b
0000000000188c84 W _ZN18llama_model_loader7get_keyIfEEb6llm_kvRT_b
0000000000188d4c W _ZN18llama_model_loader7get_keyIfEEbRKNSt6__ndk112basic_stringIcNS1_11char_traitsIcEENS1_9allocatorIcEEEERT_b
000000000018dad0 W _ZN18llama_model_loader7get_keyIiEEbRKNSt6__ndk112basic_stringIcNS1_11char_traitsIcEENS1_9allocatorIcEEEERT_b
0000000000188ef0 W _ZN18llama_model_loader7get_keyIjEEb6llm_kvRT_b
0000000000188fb8 W _ZN18llama_model_loader7get_keyIjEEbRKNSt6__ndk112basic_stringIcNS1_11char_traitsIcEENS1_9allocatorIcEEEERT_b
000000000018d930 W _ZN18llama_model_loader7get_keyItEEbRKNSt6__ndk112basic_stringIcNS1_11char_traitsIcEENS1_9allocatorIcEEEERT_b
00000000001872c0 W _ZN18llama_model_loader9get_arr_nIjEENSt6__ndk19enable_ifIXsr3std11is_integralIT_EE5valueEbE4typeE6llm_kvRS3_b
0000000000187388 W _ZN18llama_model_loader9get_arr_nIjEENSt6__ndk19enable_ifIXsr3std11is_integralIT_EE5valueEbE4typeERKNS1_12basic_stringIcNS1_11char_traitsIcEENS1_9allocatorIcEEEERS3_b
000000000018a3a4 T _ZN18llama_model_loaderC1EP12gguf_contextPFvP11ggml_tensorPvES4_RKNSt6__ndk112basic_stringIcNS7_11char_traitsIcEENS7_9allocatorIcEEEERNS7_6vectorISD_NSB_ISD_EEEEP7__sFILEbbbbPK23llama_model_kv_overridePK32llama_model_tensor_buft_override
000000000018a3a4 T _ZN18llama_model_loaderC2EP12gguf_contextPFvP11ggml_tensorPvES4_RKNSt6__ndk112basic_stringIcNS7_11char_traitsIcEENS7_9allocatorIcEEEERNS7_6vectorISD_NSB_ISD_EEEEP7__sFILEbbbbPK23llama_model_kv_overridePK32llama_model_tensor_buft_override
00000000000fac5c W _ZN18llama_model_loaderD2Ev
000000000025b0d0 T _ZN18llama_model_mamba217load_arch_hparamsER18llama_model_loader
000000000025b258 T _ZN18llama_model_mamba217load_arch_tensorsER18llama_model_loader
00000000001b0a9c W _ZN18llama_model_mamba2C2ERK18llama_model_params
000000000025b7c0 W _ZN18llama_model_mamba2D0Ev
000000000025b7e8 T _ZN18llama_model_mellum17load_arch_hparamsER18llama_model_loader
000000000025b930 T _ZN18llama_model_mellum17load_arch_tensorsER18llama_model_loader
000000000025bf78 W _ZN18llama_model_mellum5graphILb0EEC1ERK11llama_modelRK16llm_graph_params
000000000025bf78 W _ZN18llama_model_mellum5graphILb0EEC2ERK11llama_modelRK16llm_graph_params
000000000025cb68 W _ZN18llama_model_mellum5graphILb0EED0Ev
000000000025c55c W _ZN18llama_model_mellum5graphILb1EEC1ERK11llama_modelRK16llm_graph_params
000000000025c55c W _ZN18llama_model_mellum5graphILb1EEC2ERK11llama_modelRK16llm_graph_params
000000000025cba8 W _ZN18llama_model_mellum5graphILb1EED0Ev
00000000001affc8 W _ZN18llama_model_mellumC2ERK18llama_model_params
000000000025cb40 W _ZN18llama_model_mellumD0Ev
000000000026ee20 T _ZN18llama_model_phimoe17load_arch_hparamsER18llama_model_loader
000000000026ee6c T _ZN18llama_model_phimoe17load_arch_tensorsER18llama_model_loader
00000000001b04b4 W _ZN18llama_model_phimoeC2ERK18llama_model_params
000000000026f53c W _ZN18llama_model_phimoeD0Ev
000000000026fe84 T _ZN18llama_model_plamo217load_arch_hparamsER18llama_model_loader
000000000026fff4 T _ZN18llama_model_plamo217load_arch_tensorsER18llama_model_loader
00000000002719ec T _ZN18llama_model_plamo25graph23build_plamo2_attn_layerEP23llm_graph_input_attn_kvP11ggml_tensorS4_RK11llama_modeli
0000000000270d14 T _ZN18llama_model_plamo25graph24build_plamo2_mamba_layerEP18llm_graph_input_rsP11ggml_tensorRK11llama_modelRK12llama_ubatchi
0000000000270948 T _ZN18llama_model_plamo25graphC1ERK11llama_modelRK16llm_graph_params
0000000000270948 T _ZN18llama_model_plamo25graphC2ERK11llama_modelRK16llm_graph_params
0000000000271d8c W _ZN18llama_model_plamo25graphD0Ev
00000000001b055c W _ZN18llama_model_plamo2C2ERK18llama_model_params
0000000000271d64 W _ZN18llama_model_plamo2D0Ev
0000000000271f3c T _ZN18llama_model_plamo317load_arch_hparamsER18llama_model_loader
0000000000272034 T _ZN18llama_model_plamo317load_arch_tensorsER18llama_model_loader
0000000000272648 W _ZN18llama_model_plamo35graphILb0EEC1ERK11llama_modelRK16llm_graph_params
0000000000272648 W _ZN18llama_model_plamo35graphILb0EEC2ERK11llama_modelRK16llm_graph_params
00000000002733ec W _ZN18llama_model_plamo35graphILb0EED0Ev
0000000000272cf4 W _ZN18llama_model_plamo35graphILb1EEC1ERK11llama_modelRK16llm_graph_params
0000000000272cf4 W _ZN18llama_model_plamo35graphILb1EEC2ERK11llama_modelRK16llm_graph_params
000000000027342c W _ZN18llama_model_plamo35graphILb1EED0Ev
00000000001b05b0 W _ZN18llama_model_plamo3C2ERK18llama_model_params
00000000002733c4 W _ZN18llama_model_plamo3D0Ev
0000000000277d54 T _ZN18llama_model_qwen3517load_arch_hparamsER18llama_model_loader
0000000000277fa4 T _ZN18llama_model_qwen3517load_arch_tensorsER18llama_model_loader
000000000027a038 T _ZN18llama_model_qwen355graph10build_qkvzEP11ggml_tensori
0000000000279f74 T _ZN18llama_model_qwen355graph15build_layer_ffnEP11ggml_tensori
0000000000279a80 T _ZN18llama_model_qwen355graph16build_layer_attnEP23llm_graph_input_attn_kvP11ggml_tensorS4_Pii
000000000027a118 T _ZN18llama_model_qwen355graph16build_norm_gatedEP11ggml_tensorS2_S2_i
0000000000279120 T _ZN18llama_model_qwen355graph23build_layer_attn_linearEP18llm_graph_input_rsP11ggml_tensori
0000000000278c30 T _ZN18llama_model_qwen355graphC1ERK11llama_modelRK16llm_graph_params
0000000000278c30 T _ZN18llama_model_qwen355graphC2ERK11llama_modelRK16llm_graph_params
000000000027ac08 W _ZN18llama_model_qwen355graphD0Ev
000000000027a174 T _ZN18llama_model_qwen359graph_mtpC1ERK11llama_modelRK16llm_graph_params
000000000027a174 T _ZN18llama_model_qwen359graph_mtpC2ERK11llama_modelRK16llm_graph_params
000000000027ac48 W _ZN18llama_model_qwen359graph_mtpD0Ev
00000000001b21e8 W _ZN18llama_model_qwen35C2ERK18llama_model_params
000000000027abe0 W _ZN18llama_model_qwen35D0Ev
0000000000282c1c T _ZN18llama_model_refact17load_arch_hparamsER18llama_model_loader
0000000000282c70 T _ZN18llama_model_refact17load_arch_tensorsER18llama_model_loader
0000000000283520 T _ZN18llama_model_refact5graphC1ERK11llama_modelRK16llm_graph_params
0000000000283520 T _ZN18llama_model_refact5graphC2ERK11llama_modelRK16llm_graph_params
0000000000283994 W _ZN18llama_model_refact5graphD0Ev
00000000001afbd8 W _ZN18llama_model_refactC2ERK18llama_model_params
000000000028396c W _ZN18llama_model_refactD0Ev
000000000028ddf0 T _ZN18llama_model_step3517load_arch_hparamsER18llama_model_loader
000000000028dfc0 T _ZN18llama_model_step3517load_arch_tensorsER18llama_model_loader
000000000028f51c T _ZN18llama_model_step355graphC1ERK11llama_modelRK16llm_graph_params
000000000028f51c T _ZN18llama_model_step355graphC2ERK11llama_modelRK16llm_graph_params
0000000000290a94 W _ZN18llama_model_step355graphD0Ev
000000000028fe58 T _ZN18llama_model_step359graph_mtpC1ERK11llama_modelRK16llm_graph_params
000000000028fe58 T _ZN18llama_model_step359graph_mtpC2ERK11llama_modelRK16llm_graph_params
0000000000290ad4 W _ZN18llama_model_step359graph_mtpD0Ev
00000000001b2434 W _ZN18llama_model_step35C2ERK18llama_model_params
0000000000290a6c W _ZN18llama_model_step35D0Ev
00000000002929c4 T _ZN18llama_model_talkie17load_arch_hparamsER18llama_model_loader
0000000000292a2c T _ZN18llama_model_talkie17load_arch_tensorsER18llama_model_loader
0000000000292e44 T _ZN18llama_model_talkie5graphC1ERK11llama_modelRK16llm_graph_params
0000000000292e44 T _ZN18llama_model_talkie5graphC2ERK11llama_modelRK16llm_graph_params
0000000000293464 W _ZN18llama_model_talkie5graphD0Ev
00000000001af9e0 W _ZN18llama_model_talkieC2ERK18llama_model_params
000000000029343c W _ZN18llama_model_talkieD0Ev
00000000002948dc T _ZN18llama_model_xverse17load_arch_hparamsER18llama_model_loader
0000000000294970 T _ZN18llama_model_xverse17load_arch_tensorsER18llama_model_loader
0000000000294d90 T _ZN18llama_model_xverse5graphC1ERK11llama_modelRK16llm_graph_params
0000000000294d90 T _ZN18llama_model_xverse5graphC2ERK11llama_modelRK16llm_graph_params
0000000000295298 W _ZN18llama_model_xverse5graphD0Ev
00000000001b0b44 W _ZN18llama_model_xverseC2ERK18llama_model_params
0000000000295270 W _ZN18llama_model_xverseD0Ev
000000000013bf90 T _ZN18llm_graph_input_rs9can_reuseERK16llm_graph_params
000000000013befc T _ZN18llm_graph_input_rs9set_inputEPK12llama_ubatch
0000000000149e84 W _ZN18llm_graph_input_rsD0Ev
00000000001e4c98 W _ZN18llm_tokenizer_rwkvC2ERK11llama_vocab
00000000001e4e50 W _ZN18llm_tokenizer_rwkvD0Ev
00000000001e4e30 W _ZN18llm_tokenizer_rwkvD2Ev
000000000011ee64 W _ZN19llama_io_write_file12write_tensorEP11ggml_tensormm
000000000011ee30 W _ZN19llama_io_write_file5writeEPKvm
000000000011b8d8 W _ZN19llama_io_write_file7n_bytesEv
000000000011ede0 W _ZN19llama_io_write_fileD0Ev
000000000011b414 W _ZN19llama_io_write_fileD2Ev
000000000011e7e8 W _ZN19llama_io_write_host12write_tensorEP11ggml_tensormm
000000000011e754 W _ZN19llama_io_write_host5writeEPKvm
000000000011e954 W _ZN19llama_io_write_host7n_bytesEv
000000000011e6d4 W _ZN19llama_io_write_hostD0Ev
000000000011a28c W _ZN19llama_io_write_hostD2Ev
000000000016ebf4 T _ZN19llama_kv_cache_dsv410init_batchER18llama_batch_allocrjb
00000000001717b0 T _ZN19llama_kv_cache_dsv410state_readER15llama_io_read_iij
0000000000170448 T _ZN19llama_kv_cache_dsv411init_updateEP13llama_contextb
000000000016eafc T _ZN19llama_kv_cache_dsv416clear_compressedEib
00000000001706c8 T _ZN19llama_kv_cache_dsv45clearEb
0000000000170910 T _ZN19llama_kv_cache_dsv46seq_cpEiiii
00000000001707b0 T _ZN19llama_kv_cache_dsv46seq_rmEiii
0000000000170ad0 T _ZN19llama_kv_cache_dsv47seq_addEiiii
0000000000170ae4 T _ZN19llama_kv_cache_dsv47seq_divEiiii
0000000000170a04 T _ZN19llama_kv_cache_dsv48seq_keepEi
00000000001703f0 T _ZN19llama_kv_cache_dsv49init_fullEv
000000000016db58 T _ZN19llama_kv_cache_dsv4C1ERK11llama_model9ggml_typeS3_bbbbjjjjRKNSt6__ndk18functionIFbiEEERKNS5_IFiiEEE
000000000016db58 T _ZN19llama_kv_cache_dsv4C2ERK11llama_model9ggml_typeS3_bbbbjjjjRKNSt6__ndk18functionIFbiEEERKNS5_IFiiEEE
0000000000178308 W _ZN19llama_kv_cache_dsv4D0Ev
0000000000178214 W _ZN19llama_kv_cache_dsv4D2Ev
0000000000168df0 T _ZN19llama_kv_cache_iswa10init_batchER18llama_batch_allocrjb
0000000000169678 T _ZN19llama_kv_cache_iswa10state_readER15llama_io_read_iij
0000000000169538 T _ZN19llama_kv_cache_iswa11init_updateEP13llama_contextb
00000000001689d0 T _ZN19llama_kv_cache_iswa5clearEb
0000000000168a7c T _ZN19llama_kv_cache_iswa6seq_cpEiiii
0000000000168a10 T _ZN19llama_kv_cache_iswa6seq_rmEiii
0000000000168b24 T _ZN19llama_kv_cache_iswa7seq_addEiiii
0000000000168b8c T _ZN19llama_kv_cache_iswa7seq_divEiiii
0000000000168ae4 T _ZN19llama_kv_cache_iswa8seq_keepEi
00000000001694e0 T _ZN19llama_kv_cache_iswa9init_fullEv
0000000000168560 T _ZN19llama_kv_cache_iswaC1ERK11llama_model9ggml_typeS3_bbbbjjjjP14llama_memory_iRKNSt6__ndk18functionIFbiEEERKNS7_IFiiEEESF_
00000000001685cc T _ZN19llama_kv_cache_iswaC1ERK11llama_modelRK13llama_hparams9ggml_typeS6_bbbbjjjjP14llama_memory_iRKNSt6__ndk18functionIFbiEEERKNSA_IFiiEEESI_
0000000000168560 T _ZN19llama_kv_cache_iswaC2ERK11llama_model9ggml_typeS3_bbbbjjjjP14llama_memory_iRKNSt6__ndk18functionIFbiEEERKNS7_IFiiEEESF_
00000000001685cc T _ZN19llama_kv_cache_iswaC2ERK11llama_modelRK13llama_hparams9ggml_typeS6_bbbbjjjjP14llama_memory_iRKNSt6__ndk18functionIFbiEEERKNSA_IFiiEEESI_
000000000016a090 W _ZN19llama_kv_cache_iswaD0Ev
000000000016a02c W _ZN19llama_kv_cache_iswaD2Ev
0000000000120f78 W _ZN19llama_memory_bufferaSEOS_
000000000017cc3c T _ZN19llama_memory_hybrid10init_batchER18llama_batch_allocrjb
000000000017d8ec T _ZN19llama_memory_hybrid10state_readER15llama_io_read_iij
000000000017d364 T _ZN19llama_memory_hybrid11init_updateEP13llama_contextb
000000000017d3e4 T _ZN19llama_memory_hybrid5clearEb
000000000017d494 T _ZN19llama_memory_hybrid6seq_cpEiiii
000000000017d424 T _ZN19llama_memory_hybrid6seq_rmEiii
000000000017d53c T _ZN19llama_memory_hybrid7seq_addEiiii
000000000017d5a4 T _ZN19llama_memory_hybrid7seq_divEiiii
000000000017d4fc T _ZN19llama_memory_hybrid8seq_keepEi
000000000017d30c T _ZN19llama_memory_hybrid9init_fullEv
000000000017c860 T _ZN19llama_memory_hybridC1ERK11llama_model9ggml_typeS3_bjjj14llama_swa_typeS3_S3_jjjbbRKNSt6__ndk18functionIFbiEEESA_
000000000017c860 T _ZN19llama_memory_hybridC2ERK11llama_model9ggml_typeS3_bjjj14llama_swa_typeS3_S3_jjjbbRKNSt6__ndk18functionIFbiEEESA_
000000000017e1c8 W _ZN19llama_memory_hybridD0Ev
000000000017e164 W _ZN19llama_memory_hybridD2Ev
0000000000208498 T _ZN19llama_model_apertus17load_arch_hparamsER18llama_model_loader
0000000000208580 T _ZN19llama_model_apertus17load_arch_tensorsER18llama_model_loader
0000000000208be0 T _ZN19llama_model_apertus5graphC1ERK11llama_modelRK16llm_graph_params
0000000000208be0 T _ZN19llama_model_apertus5graphC2ERK11llama_modelRK16llm_graph_params
0000000000209224 W _ZN19llama_model_apertus5graphD0Ev
00000000001b2044 W _ZN19llama_model_apertusC2ERK18llama_model_params
00000000002091fc W _ZN19llama_model_apertusD0Ev
0000000000211f58 T _ZN19llama_model_chatglm17load_arch_hparamsER18llama_model_loader
0000000000212020 T _ZN19llama_model_chatglm17load_arch_tensorsER18llama_model_loader
000000000021246c T _ZN19llama_model_chatglm5graphC1ERK11llama_modelRK16llm_graph_params
000000000021246c T _ZN19llama_model_chatglm5graphC2ERK11llama_modelRK16llm_graph_params
0000000000212954 W _ZN19llama_model_chatglm5graphD0Ev
00000000001b112c W _ZN19llama_model_chatglmC2ERK18llama_model_params
000000000021292c W _ZN19llama_model_chatglmD0Ev
00000000002140cc T _ZN19llama_model_cohere217load_arch_hparamsER18llama_model_loader
00000000002141d8 T _ZN19llama_model_cohere217load_arch_tensorsER18llama_model_loader
00000000002145a4 T _ZN19llama_model_cohere25graphC1ERK11llama_modelRK16llm_graph_params
00000000002145a4 T _ZN19llama_model_cohere25graphC2ERK11llama_modelRK16llm_graph_params
0000000000214a94 W _ZN19llama_model_cohere25graphD0Ev
00000000001b0bec W _ZN19llama_model_cohere2C2ERK18llama_model_params
0000000000214a6c W _ZN19llama_model_cohere2D0Ev
000000000022e724 T _ZN19llama_model_exaone417load_arch_hparamsER18llama_model_loader
000000000022e88c T _ZN19llama_model_exaone417load_arch_tensorsER18llama_model_loader
000000000022efb8 W _ZN19llama_model_exaone45graphILb0EEC1ERK11llama_modelRK16llm_graph_params
000000000022efb8 W _ZN19llama_model_exaone45graphILb0EEC2ERK11llama_modelRK16llm_graph_params
000000000022fb60 W _ZN19llama_model_exaone45graphILb0EED0Ev
000000000022f578 W _ZN19llama_model_exaone45graphILb1EEC1ERK11llama_modelRK16llm_graph_params
000000000022f578 W _ZN19llama_model_exaone45graphILb1EEC2ERK11llama_modelRK16llm_graph_params
000000000022fba0 W _ZN19llama_model_exaone45graphILb1EED0Ev
00000000001b151c W _ZN19llama_model_exaone4C2ERK18llama_model_params
000000000022fb38 W _ZN19llama_model_exaone4D0Ev
0000000000235384 T _ZN19llama_model_gemma3n17load_arch_hparamsER18llama_model_loader
0000000000235484 T _ZN19llama_model_gemma3n17load_arch_tensorsER18llama_model_loader
0000000000237754 T _ZN19llama_model_gemma3n5graph13altup_correctEP11ggml_tensorS2_i
0000000000237360 T _ZN19llama_model_gemma3n5graph13altup_predictEP11ggml_tensori
0000000000237688 T _ZN19llama_model_gemma3n5graph13gaussian_topkEP11ggml_tensor
0000000000237328 T _ZN19llama_model_gemma3n5graph14calc_magnitudeEP11ggml_tensor
0000000000236fd4 T _ZN19llama_model_gemma3n5graph19build_inp_per_layerEv
00000000002371f0 T _ZN19llama_model_gemma3n5graph24project_per_layer_inputsEP11ggml_tensorS2_
00000000002379cc T _ZN19llama_model_gemma3n5graph31altup_compute_router_modalitiesEP11ggml_tensori
00000000002375b0 T _ZN19llama_model_gemma3n5graph6laurelEP11ggml_tensori
0000000000235e44 T _ZN19llama_model_gemma3n5graphC1ERK11llama_modelRK16llm_graph_params
0000000000235e44 T _ZN19llama_model_gemma3n5graphC2ERK11llama_modelRK16llm_graph_params
0000000000237a90 W _ZN19llama_model_gemma3n5graphD0Ev
00000000001b08a4 W _ZN19llama_model_gemma3nC2ERK18llama_model_params
0000000000237a68 W _ZN19llama_model_gemma3nD0Ev
000000000023b088 T _ZN19llama_model_glm_dsa17load_arch_hparamsER18llama_model_loader
000000000023b2cc T _ZN19llama_model_glm_dsa17load_arch_tensorsER18llama_model_loader
00000000001b1084 W _ZN19llama_model_glm_dsaC2ERK18llama_model_params
000000000023c064 W _ZN19llama_model_glm_dsaD0Ev
000000000023edd8 T _ZN19llama_model_gptneox17load_arch_hparamsER18llama_model_loader
000000000023efe8 T _ZN19llama_model_gptneox17load_arch_tensorsER18llama_model_loader
000000000023f5c4 T _ZN19llama_model_gptneox5graphC1ERK11llama_modelRK16llm_graph_params
000000000023f5c4 T _ZN19llama_model_gptneox5graphC2ERK11llama_modelRK16llm_graph_params
000000000023fbd4 W _ZN19llama_model_gptneox5graphD0Ev
00000000001b0e38 W _ZN19llama_model_gptneoxC2ERK18llama_model_params
000000000023fbac W _ZN19llama_model_gptneoxD0Ev
0000000000241c6c T _ZN19llama_model_granite17load_arch_hparamsER18llama_model_loader
0000000000241f60 T _ZN19llama_model_granite17load_arch_tensorsER18llama_model_loader
0000000000242e24 T _ZN19llama_model_granite5graph15build_layer_ffnEP11ggml_tensorS2_RK11llama_modeli
0000000000242c04 T _ZN19llama_model_granite5graph21build_attention_layerEP11ggml_tensorS2_P23llm_graph_input_attn_kvRK11llama_modelli
0000000000242810 T _ZN19llama_model_granite5graphC1ERK11llama_modelRK16llm_graph_params
0000000000242810 T _ZN19llama_model_granite5graphC2ERK11llama_modelRK16llm_graph_params
00000000002430fc W _ZN19llama_model_granite5graphD0Ev
00000000001b1714 W _ZN19llama_model_graniteC2ERK18llama_model_params
00000000002430d4 W _ZN19llama_model_graniteD0Ev
0000000000253214 T _ZN19llama_model_lfm2moe17load_arch_hparamsER18llama_model_loader
0000000000253318 T _ZN19llama_model_lfm2moe17load_arch_tensorsER18llama_model_loader
00000000001b1f48 W _ZN19llama_model_lfm2moeC2ERK18llama_model_params
0000000000253c78 W _ZN19llama_model_lfm2moeD0Ev
000000000025dcd4 T _ZN19llama_model_minicpm17load_arch_hparamsER18llama_model_loader
000000000025dde0 T _ZN19llama_model_minicpm17load_arch_tensorsER18llama_model_loader
00000000001b17bc W _ZN19llama_model_minicpmC2ERK18llama_model_params
000000000025e690 W _ZN19llama_model_minicpmD0Ev
000000000026a7d8 T _ZN19llama_model_openelm17load_arch_hparamsER18llama_model_loader
000000000026a844 T _ZN19llama_model_openelm17load_arch_tensorsER18llama_model_loader
000000000026ad44 T _ZN19llama_model_openelm5graphC1ERK11llama_modelRK16llm_graph_params
000000000026ad44 T _ZN19llama_model_openelm5graphC2ERK11llama_modelRK16llm_graph_params
000000000026b384 W _ZN19llama_model_openelm5graphD0Ev
00000000001b0de4 W _ZN19llama_model_openelmC2ERK18llama_model_params
000000000026b35c W _ZN19llama_model_openelmD0Ev
0000000000276744 T _ZN19llama_model_qwen2vl17load_arch_hparamsER18llama_model_loader
0000000000276760 T _ZN19llama_model_qwen2vl17load_arch_tensorsER18llama_model_loader
0000000000276c04 T _ZN19llama_model_qwen2vl5graphC1ERK11llama_modelRK16llm_graph_params
0000000000276c04 T _ZN19llama_model_qwen2vl5graphC2ERK11llama_modelRK16llm_graph_params
0000000000277120 W _ZN19llama_model_qwen2vl5graphD0Ev
00000000001b0214 W _ZN19llama_model_qwen2vlC2ERK18llama_model_params
00000000002770f8 W _ZN19llama_model_qwen2vlD0Ev
000000000028122c T _ZN19llama_model_qwen3vl17load_arch_hparamsER18llama_model_loader
0000000000281308 T _ZN19llama_model_qwen3vl17load_arch_tensorsER18llama_model_loader
000000000028184c T _ZN19llama_model_qwen3vl5graphC1ERK11llama_modelRK16llm_graph_params
000000000028184c T _ZN19llama_model_qwen3vl5graphC2ERK11llama_modelRK16llm_graph_params
0000000000281e68 W _ZN19llama_model_qwen3vl5graphD0Ev
00000000001b0364 W _ZN19llama_model_qwen3vlC2ERK18llama_model_params
0000000000281e40 W _ZN19llama_model_qwen3vlD0Ev
000000000028b028 T _ZN19llama_model_smollm317load_arch_hparamsER18llama_model_loader
000000000028b07c T _ZN19llama_model_smollm317load_arch_tensorsER18llama_model_loader
000000000028b500 T _ZN19llama_model_smollm35graphC1ERK11llama_modelRK16llm_graph_params
000000000028b500 T _ZN19llama_model_smollm35graphC2ERK11llama_modelRK16llm_graph_params
000000000028ba64 W _ZN19llama_model_smollm35graphD0Ev
00000000001b1df8 W _ZN19llama_model_smollm3C2ERK18llama_model_params
000000000028ba3c W _ZN19llama_model_smollm3D0Ev
000000000013bb78 T _ZN19llm_graph_input_cls9set_inputEPK12llama_ubatch
0000000000149e38 W _ZN19llm_graph_input_clsD0Ev
0000000000149e0c W _ZN19llm_graph_input_clsD2Ev
000000000013afb0 T _ZN19llm_graph_input_pos9can_reuseERK16llm_graph_params
000000000013ada0 T _ZN19llm_graph_input_pos9set_inputEPK12llama_ubatch
0000000000149cf4 W _ZN19llm_graph_input_posD0Ev
00000000001bb0d4 W _ZN19quantize_state_implC2ERK11llama_modelPK27llama_model_quantize_params
00000000001bb2fc W _ZN19quantize_state_implD2Ev
0000000000125614 T _ZN20llama_grammar_parser10parse_ruleEPKc
0000000000121d14 T _ZN20llama_grammar_parser13get_symbol_idEPKcm
00000000001226b8 T _ZN20llama_grammar_parser14parse_sequenceEPKcRKNSt6__ndk112basic_stringIcNS2_11char_traitsIcEENS2_9allocatorIcEEEERNS2_6vectorI21llama_grammar_elementNS6_ISC_EEEEb
00000000001222c8 T _ZN20llama_grammar_parser16parse_alternatesEPKcRKNSt6__ndk112basic_stringIcNS2_11char_traitsIcEENS2_9allocatorIcEEEEjb
0000000000121ef4 T _ZN20llama_grammar_parser18generate_symbol_idERKNSt6__ndk112basic_stringIcNS0_11char_traitsIcEENS0_9allocatorIcEEEE
0000000000125aec T _ZN20llama_grammar_parser5parseEPKc
0000000000125f10 T _ZN20llama_grammar_parser5printEP7__sFILE
00000000001221d8 T _ZN20llama_grammar_parser8add_ruleEjRKNSt6__ndk16vectorI21llama_grammar_elementNS0_9allocatorIS2_EEEE
000000000012a7d4 W _ZN20llama_grammar_parserD2Ev
00000000001217d0 W _ZN20llama_io_read_device11read_tensorEP11ggml_tensormm
0000000000121734 W _ZN20llama_io_read_device4readEPvm
00000000001218d0 W _ZN20llama_io_read_device7n_bytesEv
000000000012170c W _ZN20llama_io_read_deviceD0Ev
0000000000121070 W _ZN20llama_io_read_deviceD2Ev
000000000011e6b4 W _ZN20llama_io_write_dummy12write_tensorEP11ggml_tensormm
000000000011a914 W _ZN20llama_io_write_dummy5writeEPKvm
000000000011e6cc W _ZN20llama_io_write_dummy7n_bytesEv
000000000011e6ac W _ZN20llama_io_write_dummyD0Ev
000000000020bcfc T _ZN20llama_model_baichuan17load_arch_hparamsER18llama_model_loader
000000000020bd7c T _ZN20llama_model_baichuan17load_arch_tensorsER18llama_model_loader
000000000020c19c T _ZN20llama_model_baichuan5graphC1ERK11llama_modelRK16llm_graph_params
000000000020c19c T _ZN20llama_model_baichuan5graphC2ERK11llama_modelRK16llm_graph_params
000000000020c6fc W _ZN20llama_model_baichuan5graphD0Ev
00000000001afa88 W _ZN20llama_model_baichuanC2ERK18llama_model_params
000000000020c6d4 W _ZN20llama_model_baichuanD0Ev
0000000000219014 T _ZN20llama_model_deepseek17load_arch_hparamsER18llama_model_loader
00000000002190cc T _ZN20llama_model_deepseek17load_arch_tensorsER18llama_model_loader
0000000000219808 T _ZN20llama_model_deepseek5graphC1ERK11llama_modelRK16llm_graph_params
0000000000219808 T _ZN20llama_model_deepseek5graphC2ERK11llama_modelRK16llm_graph_params
0000000000219e4c W _ZN20llama_model_deepseek5graphD0Ev
00000000001b0ee0 W _ZN20llama_model_deepseekC2ERK18llama_model_params
0000000000219e24 W _ZN20llama_model_deepseekD0Ev
000000000022afd4 T _ZN20llama_model_ernie4_517load_arch_hparamsER18llama_model_loader
000000000022b0f4 T _ZN20llama_model_ernie4_517load_arch_tensorsER18llama_model_loader
000000000022b828 T _ZN20llama_model_ernie4_55graphC1ERK11llama_modelRK16llm_graph_params
000000000022b828 T _ZN20llama_model_ernie4_55graphC2ERK11llama_modelRK16llm_graph_params
000000000022bd2c W _ZN20llama_model_ernie4_55graphD0Ev
00000000001b1bac W _ZN20llama_model_ernie4_5C2ERK18llama_model_params
000000000022bd04 W _ZN20llama_model_ernie4_5D0Ev
000000000022bd6c T _ZN20llama_model_eurobert17load_arch_hparamsER18llama_model_loader
000000000022bdb8 T _ZN20llama_model_eurobert17load_arch_tensorsER18llama_model_loader
000000000022c198 T _ZN20llama_model_eurobert5graphC1ERK11llama_modelRK16llm_graph_params
000000000022c198 T _ZN20llama_model_eurobert5graphC2ERK11llama_modelRK16llm_graph_params
000000000022c630 W _ZN20llama_model_eurobert5graphD0Ev
00000000001afe78 W _ZN20llama_model_eurobertC2ERK18llama_model_params
000000000022c608 W _ZN20llama_model_eurobertD0Ev
000000000023c08c T _ZN20llama_model_glm4_moe17load_arch_hparamsER18llama_model_loader
000000000023c25c T _ZN20llama_model_glm4_moe17load_arch_tensorsER18llama_model_loader
000000000023cc94 T _ZN20llama_model_glm4_moe5graphC1ERK11llama_modelRK16llm_graph_params
000000000023cc94 T _ZN20llama_model_glm4_moe5graphC2ERK11llama_modelRK16llm_graph_params
000000000023d3ec W _ZN20llama_model_glm4_moe5graphD0Ev
00000000001b11d4 W _ZN20llama_model_glm4_moeC2ERK18llama_model_params
000000000023d3c4 W _ZN20llama_model_glm4_moeD0Ev
00000000002444a0 T _ZN20llama_model_grovemoe17load_arch_hparamsER18llama_model_loader
0000000000244550 T _ZN20llama_model_grovemoe17load_arch_tensorsER18llama_model_loader
0000000000244c88 T _ZN20llama_model_grovemoe5graphC1ERK11llama_modelRK16llm_graph_params
0000000000244c88 T _ZN20llama_model_grovemoe5graphC2ERK11llama_modelRK16llm_graph_params
0000000000245338 W _ZN20llama_model_grovemoe5graphD0Ev
00000000001b1ff0 W _ZN20llama_model_grovemoeC2ERK18llama_model_params
0000000000245310 W _ZN20llama_model_grovemoeD0Ev
000000000025e6b8 T _ZN20llama_model_minicpm317load_arch_hparamsER18llama_model_loader
000000000025e738 T _ZN20llama_model_minicpm317load_arch_tensorsER18llama_model_loader
000000000025ee44 T _ZN20llama_model_minicpm35graphC1ERK11llama_modelRK16llm_graph_params
000000000025ee44 T _ZN20llama_model_minicpm35graphC2ERK11llama_modelRK16llm_graph_params
000000000025f918 W _ZN20llama_model_minicpm35graphD0Ev
00000000001b0754 W _ZN20llama_model_minicpm3C2ERK18llama_model_params
000000000025f8f0 W _ZN20llama_model_minicpm3D0Ev
00000000002605d0 T _ZN20llama_model_mistral317load_arch_hparamsER18llama_model_loader
0000000000260728 T _ZN20llama_model_mistral317load_arch_tensorsER18llama_model_loader
0000000000260fd8 T _ZN20llama_model_mistral35graphC1ERK11llama_modelRK16llm_graph_params
0000000000260fd8 T _ZN20llama_model_mistral35graphC2ERK11llama_modelRK16llm_graph_params
000000000026165c W _ZN20llama_model_mistral35graphD0Ev
00000000001b2290 W _ZN20llama_model_mistral3C2ERK18llama_model_params
0000000000261634 W _ZN20llama_model_mistral3D0Ev
00000000001b10d8 W _ZN20llama_model_mistral4C2ERK18llama_model_params
00000000002616fc W _ZN20llama_model_mistral4D0Ev
000000000026477c T _ZN20llama_model_nemotron17load_arch_hparamsER18llama_model_loader
00000000002647c8 T _ZN20llama_model_nemotron17load_arch_tensorsER18llama_model_loader
0000000000264d3c T _ZN20llama_model_nemotron5graphC1ERK11llama_modelRK16llm_graph_params
0000000000264d3c T _ZN20llama_model_nemotron5graphC2ERK11llama_modelRK16llm_graph_params
0000000000265224 W _ZN20llama_model_nemotron5graphD0Ev
00000000001b13cc W _ZN20llama_model_nemotronC2ERK18llama_model_params
00000000002651fc W _ZN20llama_model_nemotronD0Ev
0000000000265264 T _ZN20llama_model_neo_bert17load_arch_hparamsER18llama_model_loader
00000000002652b0 T _ZN20llama_model_neo_bert17load_arch_tensorsER18llama_model_loader
0000000000265780 T _ZN20llama_model_neo_bert5graphC1ERK11llama_modelRK16llm_graph_params
0000000000265780 T _ZN20llama_model_neo_bert5graphC2ERK11llama_modelRK16llm_graph_params
0000000000265bfc W _ZN20llama_model_neo_bert5graphD0Ev
00000000001afe24 W _ZN20llama_model_neo_bertC2ERK18llama_model_params
0000000000265bd4 W _ZN20llama_model_neo_bertD0Ev
00000000002759ac T _ZN20llama_model_qwen2moe17load_arch_hparamsER18llama_model_loader
0000000000275a38 T _ZN20llama_model_qwen2moe17load_arch_tensorsER18llama_model_loader
0000000000276088 T _ZN20llama_model_qwen2moe5graphC1ERK11llama_modelRK16llm_graph_params
0000000000276088 T _ZN20llama_model_qwen2moe5graphC2ERK11llama_modelRK16llm_graph_params
0000000000276704 W _ZN20llama_model_qwen2moe5graphD0Ev
00000000001b0268 W _ZN20llama_model_qwen2moeC2ERK18llama_model_params
00000000002766dc W _ZN20llama_model_qwen2moeD0Ev
000000000027dfe0 T _ZN20llama_model_qwen3moe17load_arch_hparamsER18llama_model_loader
000000000027e054 T _ZN20llama_model_qwen3moe17load_arch_tensorsER18llama_model_loader
000000000027e6a4 T _ZN20llama_model_qwen3moe5graphC1ERK11llama_modelRK16llm_graph_params
000000000027e6a4 T _ZN20llama_model_qwen3moe5graphC2ERK11llama_modelRK16llm_graph_params
000000000027ec54 W _ZN20llama_model_qwen3moe5graphD0Ev
00000000001b0310 W _ZN20llama_model_qwen3moeC2ERK18llama_model_params
000000000027ec2c W _ZN20llama_model_qwen3moeD0Ev
00000000002892d8 T _ZN20llama_model_seed_oss17load_arch_hparamsER18llama_model_loader
0000000000289324 T _ZN20llama_model_seed_oss17load_arch_tensorsER18llama_model_loader
000000000028979c T _ZN20llama_model_seed_oss5graphC1ERK11llama_modelRK16llm_graph_params
000000000028979c T _ZN20llama_model_seed_oss5graphC2ERK11llama_modelRK16llm_graph_params
0000000000289ce8 W _ZN20llama_model_seed_oss5graphD0Ev
00000000001b1a08 W _ZN20llama_model_seed_ossC2ERK18llama_model_params
0000000000289cc0 W _ZN20llama_model_seed_ossD0Ev
000000000028baa4 T _ZN20llama_model_stablelm17load_arch_hparamsER18llama_model_loader
000000000028bb38 T _ZN20llama_model_stablelm17load_arch_tensorsER18llama_model_loader
000000000028c0c8 T _ZN20llama_model_stablelm5graphC1ERK11llama_modelRK16llm_graph_params
000000000028c0c8 T _ZN20llama_model_stablelm5graphC2ERK11llama_modelRK16llm_graph_params
000000000028c654 W _ZN20llama_model_stablelm5graphD0Ev
00000000001aff74 W _ZN20llama_model_stablelmC2ERK18llama_model_params
000000000028c62c W _ZN20llama_model_stablelmD0Ev
0000000000259298 T _ZN20llm_build_mamba_base17build_mamba_layerEP18llm_graph_input_rsP11ggml_tensorRK11llama_modelRK12llama_ubatchi
0000000000259268 T _ZN20llm_build_mamba_baseC1ERK16llm_graph_params
0000000000259268 T _ZN20llm_build_mamba_baseC2ERK16llm_graph_params
000000000025a3a8 W _ZN20llm_build_mamba_baseD0Ev
0000000000284670 T _ZN20llm_build_rwkv6_baseC1ERK11llama_modelRK16llm_graph_params
0000000000284670 T _ZN20llm_build_rwkv6_baseC2ERK11llama_modelRK16llm_graph_params
0000000000285310 W _ZN20llm_build_rwkv6_baseD0Ev
000000000028750c T _ZN20llm_build_rwkv7_baseC1ERK11llama_modelRK16llm_graph_params
000000000028750c T _ZN20llm_build_rwkv7_baseC2ERK11llama_modelRK16llm_graph_params
0000000000287f20 W _ZN20llm_build_rwkv7_baseD0Ev
000000000013dbac T _ZN20llm_graph_input_dsv49can_reuseERK16llm_graph_params
000000000013d118 T _ZN20llm_graph_input_dsv49set_inputEPK12llama_ubatch
000000000014a160 W _ZN20llm_graph_input_dsv4D0Ev
000000000014a0ec W _ZN20llm_graph_input_dsv4D2Ev
000000000013ab60 T _ZN20llm_graph_input_embd9can_reuseERK16llm_graph_params
000000000013aa98 T _ZN20llm_graph_input_embd9set_inputEPK12llama_ubatch
0000000000149ce4 W _ZN20llm_graph_input_embdD0Ev
000000000013b888 T _ZN20llm_graph_input_mean9set_inputEPK12llama_ubatch
0000000000149dc0 W _ZN20llm_graph_input_meanD0Ev
0000000000149d94 W _ZN20llm_graph_input_meanD2Ev
00000000001e4e8c W _ZN20llm_tokenizer_plamo25buildERK11llama_vocab
00000000001e6214 W _ZN20llm_tokenizer_plamo2D0Ev
00000000001e60d0 W _ZN20llm_tokenizer_plamo2D2Ev
000000000016d318 T _ZN21llama_dsv4_comp_state10state_readER15llama_io_read_iij
000000000016c9f8 T _ZN21llama_dsv4_comp_state5clearEib
000000000016c8a0 W _ZN21llama_dsv4_comp_state5layerD2Ev
000000000016cb74 T _ZN21llama_dsv4_comp_state6seq_cpEii
000000000016bdcc T _ZN21llama_dsv4_comp_stateC1ERK11llama_modelbbjjjjPKcRKNSt6__ndk18functionIFbiEEE
000000000016bdcc T _ZN21llama_dsv4_comp_stateC2ERK11llama_modelbbjjjjPKcRKNSt6__ndk18functionIFbiEEE
000000000017b638 W _ZN21llama_dsv4_comp_stateD2Ev
0000000000120e70 W _ZN21llama_io_write_device12write_tensorEP11ggml_tensormm
0000000000120ddc W _ZN21llama_io_write_device5writeEPKvm
0000000000120f70 W _ZN21llama_io_write_device7n_bytesEv
0000000000120db4 W _ZN21llama_io_write_deviceD0Ev
00000000001204bc W _ZN21llama_io_write_deviceD2Ev
0000000000211214 T _ZN21llama_model_chameleon17load_arch_hparamsER18llama_model_loader
0000000000211290 T _ZN21llama_model_chameleon17load_arch_tensorsER18llama_model_loader
0000000000211840 T _ZN21llama_model_chameleon5graphC1ERK11llama_modelRK16llm_graph_params
0000000000211840 T _ZN21llama_model_chameleon5graphC2ERK11llama_modelRK16llm_graph_params
0000000000211f18 W _ZN21llama_model_chameleon5graphD0Ev
00000000001b1864 W _ZN21llama_model_chameleonC2ERK18llama_model_params
0000000000211ef0 W _ZN21llama_model_chameleonD0Ev
0000000000212994 T _ZN21llama_model_codeshell17load_arch_hparamsER18llama_model_loader
00000000002129e0 T _ZN21llama_model_codeshell17load_arch_tensorsER18llama_model_loader
0000000000212f90 T _ZN21llama_model_codeshell5graphC1ERK11llama_modelRK16llm_graph_params
0000000000212f90 T _ZN21llama_model_codeshell5graphC2ERK11llama_modelRK16llm_graph_params
0000000000213494 W _ZN21llama_model_codeshell5graphD0Ev
00000000001b0658 W _ZN21llama_model_codeshellC2ERK18llama_model_params
000000000021346c W _ZN21llama_model_codeshellD0Ev
0000000000216bec T _ZN21llama_model_command_r17load_arch_hparamsER18llama_model_loader
0000000000216c54 T _ZN21llama_model_command_r17load_arch_tensorsER18llama_model_loader
00000000002170f0 T _ZN21llama_model_command_r5graphC1ERK11llama_modelRK16llm_graph_params
00000000002170f0 T _ZN21llama_model_command_r5graphC2ERK11llama_modelRK16llm_graph_params
0000000000217638 W _ZN21llama_model_command_r5graphD0Ev
00000000001b0b98 W _ZN21llama_model_command_rC2ERK18llama_model_params
0000000000217610 W _ZN21llama_model_command_rD0Ev
0000000000219e8c T _ZN21llama_model_deepseek217load_arch_hparamsER18llama_model_loader
000000000021a1ac T _ZN21llama_model_deepseek217load_arch_tensorsER18llama_model_loader
000000000021ac54 T _ZN21llama_model_deepseek25graphC1ERK11llama_modelRK16llm_graph_params
000000000021ac54 T _ZN21llama_model_deepseek25graphC2ERK11llama_modelRK16llm_graph_params
000000000021bce4 W _ZN21llama_model_deepseek25graphD0Ev
00000000001b0f34 W _ZN21llama_model_deepseek2C2ERK18llama_model_params
000000000021bcbc W _ZN21llama_model_deepseek2D0Ev
000000000021e924 T _ZN21llama_model_deepseek417load_arch_hparamsER18llama_model_loader
000000000021ec80 T _ZN21llama_model_deepseek417load_arch_tensorsER18llama_model_loader
0000000000223920 T _ZN21llama_model_deepseek45graphC1ERK11llama_modelRK16llm_graph_params
0000000000223920 T _ZN21llama_model_deepseek45graphC2ERK11llama_modelRK16llm_graph_params
0000000000223ee4 W _ZN21llama_model_deepseek45graphD0Ev
00000000001b1030 W _ZN21llama_model_deepseek4C2ERK18llama_model_params
0000000000223ebc W _ZN21llama_model_deepseek4D0Ev
000000000022fbe0 T _ZN21llama_model_falcon_h117load_arch_hparamsER18llama_model_loader
0000000000230150 T _ZN21llama_model_falcon_h117load_arch_tensorsER18llama_model_loader
00000000002309ec T _ZN21llama_model_falcon_h15graphC1ERK11llama_modelRK16llm_graph_params
00000000002309ec T _ZN21llama_model_falcon_h15graphC2ERK11llama_modelRK16llm_graph_params
0000000000230f70 W _ZN21llama_model_falcon_h15graphD0Ev
00000000001b1ea0 W _ZN21llama_model_falcon_h1C2ERK18llama_model_params
0000000000230f48 W _ZN21llama_model_falcon_h1D0Ev
0000000000248c98 T _ZN21llama_model_internlm217load_arch_hparamsER18llama_model_loader
0000000000248cf0 T _ZN21llama_model_internlm217load_arch_tensorsER18llama_model_loader
0000000000249110 T _ZN21llama_model_internlm25graphC1ERK11llama_modelRK16llm_graph_params
0000000000249110 T _ZN21llama_model_internlm25graphC2ERK11llama_modelRK16llm_graph_params
0000000000249618 W _ZN21llama_model_internlm25graphD0Ev
00000000001b0700 W _ZN21llama_model_internlm2C2ERK18llama_model_params
00000000002495f0 W _ZN21llama_model_internlm2D0Ev
0000000000253ca0 T _ZN21llama_model_llada_moe17load_arch_hparamsER18llama_model_loader
0000000000253d10 T _ZN21llama_model_llada_moe17load_arch_tensorsER18llama_model_loader
00000000002542bc T _ZN21llama_model_llada_moe5graphC1ERK11llama_modelRK16llm_graph_params
00000000002542bc T _ZN21llama_model_llada_moe5graphC2ERK11llama_modelRK16llm_graph_params
000000000025485c W _ZN21llama_model_llada_moe5graphD0Ev
00000000001b016c W _ZN21llama_model_llada_moeC2ERK18llama_model_params
0000000000254834 W _ZN21llama_model_llada_moeD0Ev
000000000025875c T _ZN21llama_model_maincoder17load_arch_hparamsER18llama_model_loader
00000000002587a8 T _ZN21llama_model_maincoder17load_arch_tensorsER18llama_model_loader
0000000000258ca0 T _ZN21llama_model_maincoder5graphC1ERK11llama_modelRK16llm_graph_params
0000000000258ca0 T _ZN21llama_model_maincoder5graphC2ERK11llama_modelRK16llm_graph_params
0000000000259228 W _ZN21llama_model_maincoder5graphD0Ev
00000000001af98c W _ZN21llama_model_maincoderC2ERK18llama_model_params
0000000000259200 W _ZN21llama_model_maincoderD0Ev
000000000026be9c T _ZN21llama_model_paddleocr5graphC1ERK11llama_modelRK16llm_graph_params
000000000026be9c T _ZN21llama_model_paddleocr5graphC2ERK11llama_modelRK16llm_graph_params
000000000026c3b8 W _ZN21llama_model_paddleocr5graphD0Ev
00000000001b1c54 W _ZN21llama_model_paddleocrC2ERK18llama_model_params
000000000026c390 W _ZN21llama_model_paddleocrD0Ev
000000000027ac88 T _ZN21llama_model_qwen35moe17load_arch_hparamsER18llama_model_loader
000000000027aee8 T _ZN21llama_model_qwen35moe17load_arch_tensorsER18llama_model_loader
000000000027d254 T _ZN21llama_model_qwen35moe5graph10build_qkvzEP11ggml_tensori
000000000027d02c T _ZN21llama_model_qwen35moe5graph15build_layer_ffnEP11ggml_tensori
000000000027cb38 T _ZN21llama_model_qwen35moe5graph16build_layer_attnEP23llm_graph_input_attn_kvP11ggml_tensorS4_Pii
000000000027d334 T _ZN21llama_model_qwen35moe5graph16build_norm_gatedEP11ggml_tensorS2_S2_i
000000000027c1d8 T _ZN21llama_model_qwen35moe5graph23build_layer_attn_linearEP18llm_graph_input_rsP11ggml_tensori
000000000027bd74 T _ZN21llama_model_qwen35moe5graphC1ERK11llama_modelRK16llm_graph_params
000000000027bd74 T _ZN21llama_model_qwen35moe5graphC2ERK11llama_modelRK16llm_graph_params
000000000027df60 W _ZN21llama_model_qwen35moe5graphD0Ev
000000000027d390 T _ZN21llama_model_qwen35moe9graph_mtpC1ERK11llama_modelRK16llm_graph_params
000000000027d390 T _ZN21llama_model_qwen35moe9graph_mtpC2ERK11llama_modelRK16llm_graph_params
000000000027dfa0 W _ZN21llama_model_qwen35moe9graph_mtpD0Ev
00000000001b223c W _ZN21llama_model_qwen35moeC2ERK18llama_model_params
000000000027df38 W _ZN21llama_model_qwen35moeD0Ev
000000000027ec94 T _ZN21llama_model_qwen3next17load_arch_hparamsER18llama_model_loader
000000000027ee64 T _ZN21llama_model_qwen3next17load_arch_tensorsER18llama_model_loader
0000000000280dbc T _ZN21llama_model_qwen3next5graph10build_qkvzEP11ggml_tensori
0000000000280b1c T _ZN21llama_model_qwen3next5graph15build_layer_ffnEP11ggml_tensori
0000000000280630 T _ZN21llama_model_qwen3next5graph16build_layer_attnEP23llm_graph_input_attn_kvP11ggml_tensorS4_i
0000000000280d60 T _ZN21llama_model_qwen3next5graph16build_norm_gatedEP11ggml_tensorS2_S2_i
000000000027fc30 T _ZN21llama_model_qwen3next5graph23build_layer_attn_linearEP18llm_graph_input_rsP11ggml_tensori
000000000027f8cc T _ZN21llama_model_qwen3next5graphC1ERK11llama_modelRK16llm_graph_params
000000000027f8cc T _ZN21llama_model_qwen3next5graphC2ERK11llama_modelRK16llm_graph_params
00000000002811ec W _ZN21llama_model_qwen3next5graphD0Ev
00000000001b2194 W _ZN21llama_model_qwen3nextC2ERK18llama_model_params
00000000002811c4 W _ZN21llama_model_qwen3nextD0Ev
000000000028c694 T _ZN21llama_model_starcoder17load_arch_hparamsER18llama_model_loader
000000000028c700 T _ZN21llama_model_starcoder17load_arch_tensorsER18llama_model_loader
000000000028cd48 T _ZN21llama_model_starcoder5graphC1ERK11llama_modelRK16llm_graph_params
000000000028cd48 T _ZN21llama_model_starcoder5graphC2ERK11llama_modelRK16llm_graph_params
000000000028d1e4 W _ZN21llama_model_starcoder5graphD0Ev
00000000001afb84 W _ZN21llama_model_starcoderC2ERK18llama_model_params
000000000028d1bc W _ZN21llama_model_starcoderD0Ev
00000000002923f0 T _ZN21llama_model_t5encoder17load_arch_hparamsER18llama_model_loader
0000000000292440 T _ZN21llama_model_t5encoder17load_arch_tensorsER18llama_model_loader
00000000001b12d0 W _ZN21llama_model_t5encoderC2ERK18llama_model_params
000000000029299c W _ZN21llama_model_t5encoderD0Ev
00000000001c4c28 W _ZN21llama_sampler_backend8get_nameEv
00000000001c1dc0 W _ZN21llama_sampler_backendC2EPKc
00000000001cb310 W _ZN21llama_sampler_backendD2Ev
00000000001645f4 T _ZN22llama_kv_cache_context4nextEv
000000000016462c T _ZN22llama_kv_cache_context5applyEv
0000000000163f68 T _ZN22llama_kv_cache_contextC1E19llama_memory_status
0000000000163fa4 T _ZN22llama_kv_cache_contextC1EP14llama_kv_cache
0000000000164448 T _ZN22llama_kv_cache_contextC1EP14llama_kv_cacheNSt6__ndk16vectorINS0_9slot_infoENS2_9allocatorIS4_EEEENS3_I12llama_ubatchNS5_IS8_EEEE
00000000001643b8 T _ZN22llama_kv_cache_contextC1EP14llama_kv_cacheP13llama_contextbNS0_16stream_copy_infoE
0000000000163f68 T _ZN22llama_kv_cache_contextC2E19llama_memory_status
0000000000163fa4 T _ZN22llama_kv_cache_contextC2EP14llama_kv_cache
0000000000164448 T _ZN22llama_kv_cache_contextC2EP14llama_kv_cacheNSt6__ndk16vectorINS0_9slot_infoENS2_9allocatorIS4_EEEENS3_I12llama_ubatchNS5_IS8_EEEE
00000000001643b8 T _ZN22llama_kv_cache_contextC2EP14llama_kv_cacheP13llama_contextbNS0_16stream_copy_infoE
00000000001645cc T _ZN22llama_kv_cache_contextD0Ev
00000000001644b8 T _ZN22llama_kv_cache_contextD1Ev
00000000001644b8 T _ZN22llama_kv_cache_contextD2Ev
0000000000181bec T _ZN22llama_memory_recurrent10init_batchER18llama_batch_allocrjb
000000000018143c T _ZN22llama_memory_recurrent10set_rs_idxEij
0000000000183dc4 T _ZN22llama_memory_recurrent10state_readER15llama_io_read_iij
00000000001822d4 T _ZN22llama_memory_recurrent11init_updateEP13llama_contextb
000000000018454c T _ZN22llama_memory_recurrent15state_read_dataER15llama_io_read_ij
0000000000183f40 T _ZN22llama_memory_recurrent15state_read_metaER15llama_io_read_iji
0000000000180f84 T _ZN22llama_memory_recurrent5clearEb
0000000000181468 T _ZN22llama_memory_recurrent6seq_cpEiiii
000000000018107c T _ZN22llama_memory_recurrent6seq_rmEiii
0000000000182114 T _ZN22llama_memory_recurrent7prepareERKNSt6__ndk16vectorI12llama_ubatchNS0_9allocatorIS2_EEEE
0000000000181828 T _ZN22llama_memory_recurrent7seq_addEiiii
00000000001818d0 T _ZN22llama_memory_recurrent7seq_divEiiii
0000000000181664 T _ZN22llama_memory_recurrent8seq_keepEi
0000000000182320 T _ZN22llama_memory_recurrent9find_slotERK12llama_ubatch
000000000018227c T _ZN22llama_memory_recurrent9init_fullEv
000000000018030c T _ZN22llama_memory_recurrentC1ERK11llama_model9ggml_typeS3_bjjjRKNSt6__ndk18functionIFbiEEE
000000000018030c T _ZN22llama_memory_recurrentC2ERK11llama_model9ggml_typeS3_bjjjRKNSt6__ndk18functionIFbiEEE
0000000000184e24 W _ZN22llama_memory_recurrentD0Ev
0000000000184d28 W _ZN22llama_memory_recurrentD2Ev
000000000020c73c T _ZN22llama_model_bailingmoe17load_arch_hparamsER18llama_model_loader
000000000020c810 T _ZN22llama_model_bailingmoe17load_arch_tensorsER18llama_model_loader
000000000020ce40 T _ZN22llama_model_bailingmoe5graphC1ERK11llama_modelRK16llm_graph_params
000000000020ce40 T _ZN22llama_model_bailingmoe5graphC2ERK11llama_modelRK16llm_graph_params
000000000020d394 W _ZN22llama_model_bailingmoe5graphD0Ev
00000000001b1960 W _ZN22llama_model_bailingmoeC2ERK18llama_model_params
000000000020d36c W _ZN22llama_model_bailingmoeD0Ev
0000000000214ad4 T _ZN22llama_model_cohere2moe17load_arch_hparamsER18llama_model_loader
0000000000214dac T _ZN22llama_model_cohere2moe17load_arch_tensorsER18llama_model_loader
0000000000215b70 T _ZN22llama_model_cohere2moe5graphC1ERK11llama_modelRK16llm_graph_params
0000000000215b70 T _ZN22llama_model_cohere2moe5graphC2ERK11llama_modelRK16llm_graph_params
0000000000216b6c W _ZN22llama_model_cohere2moe5graphD0Ev
0000000000216220 T _ZN22llama_model_cohere2moe9graph_mtpC1ERK11llama_modelRK16llm_graph_params
0000000000216220 T _ZN22llama_model_cohere2moe9graph_mtpC2ERK11llama_modelRK16llm_graph_params
0000000000216bac W _ZN22llama_model_cohere2moe9graph_mtpD0Ev
00000000001b0c40 W _ZN22llama_model_cohere2moeC2ERK18llama_model_params
0000000000216b44 W _ZN22llama_model_cohere2moeD0Ev
000000000021c5d8 T _ZN22llama_model_deepseek3217load_arch_hparamsER18llama_model_loader
000000000021c850 T _ZN22llama_model_deepseek3217load_arch_tensorsER18llama_model_loader
000000000021d5d4 T _ZN22llama_model_deepseek325graphC1ERK11llama_modelRK16llm_graph_params
000000000021d5d4 T _ZN22llama_model_deepseek325graphC2ERK11llama_modelRK16llm_graph_params
000000000021e8e4 W _ZN22llama_model_deepseek325graphD0Ev
00000000001b0fdc W _ZN22llama_model_deepseek32C2ERK18llama_model_params
000000000021e8bc W _ZN22llama_model_deepseek32D0Ev
000000000022c670 T _ZN22llama_model_exaone_moe17load_arch_hparamsER18llama_model_loader
000000000022c870 T _ZN22llama_model_exaone_moe17load_arch_tensorsER18llama_model_loader
000000000022d328 T _ZN22llama_model_exaone_moe5graphC1ERK11llama_modelRK16llm_graph_params
000000000022d328 T _ZN22llama_model_exaone_moe5graphC2ERK11llama_modelRK16llm_graph_params
000000000022da08 W _ZN22llama_model_exaone_moe5graphD0Ev
00000000001b1570 W _ZN22llama_model_exaone_moeC2ERK18llama_model_params
000000000022d9e0 W _ZN22llama_model_exaone_moeD0Ev
0000000000246190 T _ZN22llama_model_hunyuan_vl17load_arch_hparamsER18llama_model_loader
0000000000246260 T _ZN22llama_model_hunyuan_vl17load_arch_tensorsER18llama_model_loader
0000000000246768 T _ZN22llama_model_hunyuan_vl5graphC1ERK11llama_modelRK16llm_graph_params
0000000000246768 T _ZN22llama_model_hunyuan_vl5graphC2ERK11llama_modelRK16llm_graph_params
0000000000246da0 W _ZN22llama_model_hunyuan_vl5graphD0Ev
00000000001b1cfc W _ZN22llama_model_hunyuan_vlC2ERK18llama_model_params
0000000000246d78 W _ZN22llama_model_hunyuan_vlD0Ev
000000000025f958 T _ZN22llama_model_minimax_m217load_arch_hparamsER18llama_model_loader
000000000025f9d8 T _ZN22llama_model_minimax_m217load_arch_tensorsER18llama_model_loader
000000000025ff6c T _ZN22llama_model_minimax_m25graphC1ERK11llama_modelRK16llm_graph_params
000000000025ff6c T _ZN22llama_model_minimax_m25graphC2ERK11llama_modelRK16llm_graph_params
0000000000260590 W _ZN22llama_model_minimax_m25graphD0Ev
00000000001b2098 W _ZN22llama_model_minimax_m2C2ERK18llama_model_params
0000000000260568 W _ZN22llama_model_minimax_m2D0Ev
0000000000263394 T _ZN22llama_model_nemotron_h17load_arch_hparamsER18llama_model_loader
00000000002635a8 T _ZN22llama_model_nemotron_h17load_arch_tensorsER18llama_model_loader
0000000000264498 T _ZN22llama_model_nemotron_h5graph15build_ffn_layerEP11ggml_tensorRK11llama_modeli
0000000000264350 T _ZN22llama_model_nemotron_h5graph21build_attention_layerEP11ggml_tensorP23llm_graph_input_attn_kvRK11llama_modelli
0000000000264068 T _ZN22llama_model_nemotron_h5graphC1ERK11llama_modelRK16llm_graph_params
0000000000264068 T _ZN22llama_model_nemotron_h5graphC2ERK11llama_modelRK16llm_graph_params
000000000026473c W _ZN22llama_model_nemotron_h5graphD0Ev
00000000001b1420 W _ZN22llama_model_nemotron_hC2ERK18llama_model_params
0000000000264714 W _ZN22llama_model_nemotron_hD0Ev
00000000002666b0 T _ZN22llama_model_nomic_bert17load_arch_hparamsER18llama_model_loader
0000000000266754 T _ZN22llama_model_nomic_bert17load_arch_tensorsER18llama_model_loader
00000000001afd28 W _ZN22llama_model_nomic_bertC2ERK18llama_model_params
00000000002670fc W _ZN22llama_model_nomic_bertD0Ev
0000000000269b30 T _ZN22llama_model_openai_moe17load_arch_hparamsER18llama_model_loader
0000000000269c48 T _ZN22llama_model_openai_moe17load_arch_tensorsER18llama_model_loader
000000000026a274 T _ZN22llama_model_openai_moe5graphC1ERK11llama_modelRK16llm_graph_params
000000000026a274 T _ZN22llama_model_openai_moe5graphC2ERK11llama_modelRK16llm_graph_params
000000000026a798 W _ZN22llama_model_openai_moe5graphD0Ev
00000000001b1e4c W _ZN22llama_model_openai_moeC2ERK18llama_model_params
000000000026a770 W _ZN22llama_model_openai_moeD0Ev
0000000000281ea8 T _ZN22llama_model_qwen3vlmoe17load_arch_hparamsER18llama_model_loader
0000000000281f50 T _ZN22llama_model_qwen3vlmoe17load_arch_tensorsER18llama_model_loader
00000000002825a0 T _ZN22llama_model_qwen3vlmoe5graphC1ERK11llama_modelRK16llm_graph_params
00000000002825a0 T _ZN22llama_model_qwen3vlmoe5graphC2ERK11llama_modelRK16llm_graph_params
0000000000282bdc W _ZN22llama_model_qwen3vlmoe5graphD0Ev
00000000001b03b8 W _ZN22llama_model_qwen3vlmoeC2ERK18llama_model_params
0000000000282bb4 W _ZN22llama_model_qwen3vlmoeD0Ev
0000000000286608 T _ZN22llama_model_rwkv6qwen217load_arch_hparamsER18llama_model_loader
000000000028677c T _ZN22llama_model_rwkv6qwen217load_arch_tensorsER18llama_model_loader
0000000000287024 T _ZN22llama_model_rwkv6qwen25graphC1ERK11llama_modelRK16llm_graph_params
0000000000287024 T _ZN22llama_model_rwkv6qwen25graphC2ERK11llama_modelRK16llm_graph_params
00000000002874cc W _ZN22llama_model_rwkv6qwen25graphD0Ev
00000000001b1618 W _ZN22llama_model_rwkv6qwen2C2ERK18llama_model_params
00000000002874a4 W _ZN22llama_model_rwkv6qwen2D0Ev
000000000028d224 T _ZN22llama_model_starcoder217load_arch_hparamsER18llama_model_loader
000000000028d2f8 T _ZN22llama_model_starcoder217load_arch_tensorsER18llama_model_loader
000000000028d8ac T _ZN22llama_model_starcoder25graphC1ERK11llama_modelRK16llm_graph_params
000000000028d8ac T _ZN22llama_model_starcoder25graphC2ERK11llama_modelRK16llm_graph_params
000000000028ddb0 W _ZN22llama_model_starcoder25graphD0Ev
00000000001b09f4 W _ZN22llama_model_starcoder2C2ERK18llama_model_params
000000000028dd88 W _ZN22llama_model_starcoder2D0Ev
000000000013cc14 T _ZN22llm_graph_input_attn_k9can_reuseERK16llm_graph_params
000000000013cbcc T _ZN22llm_graph_input_attn_k9set_inputEPK12llama_ubatch
0000000000149fb0 W _ZN22llm_graph_input_attn_kD0Ev
0000000000149f84 W _ZN22llm_graph_input_attn_kD2Ev
000000000013ad10 T _ZN22llm_graph_input_embd_h9can_reuseERK16llm_graph_params
000000000013abc8 T _ZN22llm_graph_input_embd_h9set_inputEPK12llama_ubatch
0000000000149cec W _ZN22llm_graph_input_embd_hD0Ev
000000000020d3d4 T _ZN23llama_model_bailingmoe217load_arch_hparamsER18llama_model_loader
000000000020d518 T _ZN23llama_model_bailingmoe217load_arch_tensorsER18llama_model_loader
000000000020df2c T _ZN23llama_model_bailingmoe25graphC1ERK11llama_modelRK16llm_graph_params
000000000020df2c T _ZN23llama_model_bailingmoe25graphC2ERK11llama_modelRK16llm_graph_params
000000000020e5b4 W _ZN23llama_model_bailingmoe25graphD0Ev
00000000001b19b4 W _ZN23llama_model_bailingmoe2C2ERK18llama_model_params
000000000020e58c W _ZN23llama_model_bailingmoe2D0Ev
0000000000241274 T _ZN23llama_model_granite_moe17load_arch_hparamsER18llama_model_loader
0000000000241394 T _ZN23llama_model_granite_moe17load_arch_tensorsER18llama_model_loader
00000000001b1768 W _ZN23llama_model_granite_moeC2ERK18llama_model_params
0000000000241c44 W _ZN23llama_model_granite_moeD0Ev
0000000000245400 T _ZN23llama_model_hunyuan_moe17load_arch_hparamsER18llama_model_loader
0000000000245480 T _ZN23llama_model_hunyuan_moe17load_arch_tensorsER18llama_model_loader
0000000000245aec T _ZN23llama_model_hunyuan_moe5graphC1ERK11llama_modelRK16llm_graph_params
0000000000245aec T _ZN23llama_model_hunyuan_moe5graphC2ERK11llama_modelRK16llm_graph_params
0000000000246150 W _ZN23llama_model_hunyuan_moe5graphD0Ev
00000000001b1ca8 W _ZN23llama_model_hunyuan_moeC2ERK18llama_model_params
0000000000246128 W _ZN23llama_model_hunyuan_moeD0Ev
000000000024d10c T _ZN23llama_model_kimi_linear17load_arch_hparamsER18llama_model_loader
000000000024d290 T _ZN23llama_model_kimi_linear17load_arch_tensorsER18llama_model_loader
000000000024e100 T _ZN23llama_model_kimi_linear5graphC1ERK11llama_modelRK16llm_graph_params
000000000024e100 T _ZN23llama_model_kimi_linear5graphC2ERK11llama_modelRK16llm_graph_params
000000000024f638 W _ZN23llama_model_kimi_linear5graphD0Ev
00000000001b23e0 W _ZN23llama_model_kimi_linearC2ERK18llama_model_params
000000000024f610 W _ZN23llama_model_kimi_linearD0Ev
00000000001af938 W _ZN23llama_model_llama_embedC2ERK18llama_model_params
0000000000255520 W _ZN23llama_model_llama_embedD0Ev
0000000000261724 T _ZN23llama_model_modern_bert17load_arch_hparamsER18llama_model_loader
00000000002618e8 T _ZN23llama_model_modern_bert17load_arch_tensorsER18llama_model_loader
0000000000261f7c T _ZN23llama_model_modern_bert5graphC1ERK11llama_modelRK16llm_graph_params
0000000000261f7c T _ZN23llama_model_modern_bert5graphC2ERK11llama_modelRK16llm_graph_params
000000000026249c W _ZN23llama_model_modern_bert5graphD0Ev
00000000001afdd0 W _ZN23llama_model_modern_bertC2ERK18llama_model_params
0000000000262474 W _ZN23llama_model_modern_bertD0Ev
000000000026c3f8 T _ZN23llama_model_pangu_embed17load_arch_hparamsER18llama_model_loader
000000000026c450 T _ZN23llama_model_pangu_embed17load_arch_tensorsER18llama_model_loader
000000000026ca38 T _ZN23llama_model_pangu_embed5graphC1ERK11llama_modelRK16llm_graph_params
000000000026ca38 T _ZN23llama_model_pangu_embed5graphC2ERK11llama_modelRK16llm_graph_params
000000000026cf5c W _ZN23llama_model_pangu_embed5graphD0Ev
00000000001b2140 W _ZN23llama_model_pangu_embedC2ERK18llama_model_params
000000000026cf34 W _ZN23llama_model_pangu_embedD0Ev
000000000013cb50 T _ZN23llm_graph_input_attn_kv9can_reuseERK16llm_graph_params
000000000013cab0 T _ZN23llm_graph_input_attn_kv9set_inputEPK12llama_ubatch
0000000000149f38 W _ZN23llm_graph_input_attn_kvD0Ev
0000000000149f0c W _ZN23llm_graph_input_attn_kvD2Ev
0000000000161c4c T _ZN23llm_graph_input_k_shift9set_inputEPK12llama_ubatch
0000000000164ccc W _ZN23llm_graph_input_k_shiftD0Ev
000000000013b86c T _ZN23llm_graph_input_out_ids9can_reuseERK16llm_graph_params
000000000013b718 T _ZN23llm_graph_input_out_ids9set_inputEPK12llama_ubatch
0000000000149d48 W _ZN23llm_graph_input_out_idsD0Ev
0000000000149d1c W _ZN23llm_graph_input_out_idsD2Ev
000000000017e8fc T _ZN24llama_memory_hybrid_iswa10init_batchER18llama_batch_allocrjb
000000000017f694 T _ZN24llama_memory_hybrid_iswa10state_readER15llama_io_read_iij
000000000017f110 T _ZN24llama_memory_hybrid_iswa11init_updateEP13llama_contextb
000000000017f190 T _ZN24llama_memory_hybrid_iswa5clearEb
000000000017f240 T _ZN24llama_memory_hybrid_iswa6seq_cpEiiii
000000000017f1d0 T _ZN24llama_memory_hybrid_iswa6seq_rmEiii
000000000017f2e8 T _ZN24llama_memory_hybrid_iswa7seq_addEiiii
000000000017f350 T _ZN24llama_memory_hybrid_iswa7seq_divEiiii
000000000017f2a8 T _ZN24llama_memory_hybrid_iswa8seq_keepEi
000000000017f0b8 T _ZN24llama_memory_hybrid_iswa9init_fullEv
000000000017e528 T _ZN24llama_memory_hybrid_iswaC1ERK11llama_model9ggml_typeS3_bbjjjS3_S3_jjjbbRKNSt6__ndk18functionIFbiEEES9_
000000000017e528 T _ZN24llama_memory_hybrid_iswaC2ERK11llama_model9ggml_typeS3_bbjjjS3_S3_jjjbbRKNSt6__ndk18functionIFbiEEES9_
000000000017ffac W _ZN24llama_memory_hybrid_iswaD0Ev
000000000017ff48 W _ZN24llama_memory_hybrid_iswaD2Ev
000000000021bd24 T _ZN24llama_model_deepseek2ocr17load_arch_hparamsER18llama_model_loader
000000000021be1c T _ZN24llama_model_deepseek2ocr17load_arch_tensorsER18llama_model_loader
00000000001b0f88 W _ZN24llama_model_deepseek2ocrC2ERK18llama_model_params
000000000021c5b0 W _ZN24llama_model_deepseek2ocrD0Ev
000000000022a894 T _ZN24llama_model_ernie4_5_moe5graphC1ERK11llama_modelRK16llm_graph_params
000000000022a894 T _ZN24llama_model_ernie4_5_moe5graphC2ERK11llama_modelRK16llm_graph_params
000000000022af94 W _ZN24llama_model_ernie4_5_moe5graphD0Ev
00000000001b1c00 W _ZN24llama_model_ernie4_5_moeC2ERK18llama_model_params
000000000022af6c W _ZN24llama_model_ernie4_5_moeD0Ev
000000000024bdcc T _ZN24llama_model_jina_bert_v217load_arch_hparamsER18llama_model_loader
000000000024be28 T _ZN24llama_model_jina_bert_v217load_arch_tensorsER18llama_model_loader
00000000001afc80 W _ZN24llama_model_jina_bert_v2C2ERK18llama_model_params
000000000024c6c8 W _ZN24llama_model_jina_bert_v2D0Ev
000000000024c6f0 T _ZN24llama_model_jina_bert_v317load_arch_hparamsER18llama_model_loader
000000000024c73c T _ZN24llama_model_jina_bert_v317load_arch_tensorsER18llama_model_loader
00000000001afcd4 W _ZN24llama_model_jina_bert_v3C2ERK18llama_model_params
000000000024d0e4 W _ZN24llama_model_jina_bert_v3D0Ev
0000000000289d28 T _ZN24llama_model_smallthinker17load_arch_hparamsER18llama_model_loader
0000000000289e80 T _ZN24llama_model_smallthinker17load_arch_tensorsER18llama_model_loader
000000000028a438 W _ZN24llama_model_smallthinker5graphILb0EEC1ERK11llama_modelRK16llm_graph_params
000000000028a438 W _ZN24llama_model_smallthinker5graphILb0EEC2ERK11llama_modelRK16llm_graph_params
000000000028afa8 W _ZN24llama_model_smallthinker5graphILb0EED0Ev
000000000028a9dc W _ZN24llama_model_smallthinker5graphILb1EEC1ERK11llama_modelRK16llm_graph_params
000000000028a9dc W _ZN24llama_model_smallthinker5graphILb1EEC2ERK11llama_modelRK16llm_graph_params
000000000028afe8 W _ZN24llama_model_smallthinker5graphILb1EED0Ev
00000000001b1f9c W _ZN24llama_model_smallthinkerC2ERK18llama_model_params
000000000028af80 W _ZN24llama_model_smallthinkerD0Ev
0000000000225a0c T _ZN24llm_build_delta_net_base15build_delta_netEP11ggml_tensorS1_S1_S1_S1_S1_i
0000000000225a40 T _ZN24llm_build_delta_net_base16build_conv_stateEP18llm_graph_input_rsP11ggml_tensorS3_lli
0000000000225e1c T _ZN24llm_build_delta_net_base20build_recurrent_attnEP18llm_graph_input_rsP11ggml_tensorS3_S3_S3_S3_S3_S3_i
00000000002255d4 T _ZN24llm_build_delta_net_base21build_delta_net_fusedEP11ggml_tensorS1_S1_S1_S1_S1_i
0000000000223f54 T _ZN24llm_build_delta_net_base24build_delta_net_chunkingEP11ggml_tensorS1_S1_S1_S1_S1_i
00000000002250dc T _ZN24llm_build_delta_net_base30build_delta_net_autoregressiveEP11ggml_tensorS1_S1_S1_S1_S1_i
0000000000223f24 T _ZN24llm_build_delta_net_baseC1ERK16llm_graph_params
0000000000223f24 T _ZN24llm_build_delta_net_baseC2ERK16llm_graph_params
00000000002261a8 W _ZN24llm_build_delta_net_baseD0Ev
000000000013d0a4 T _ZN24llm_graph_input_dsv4_raw9set_inputEPK12llama_ubatch
000000000013ed58 T _ZN24llm_graph_input_sampling9can_reuseERK16llm_graph_params
000000000013ead8 T _ZN24llm_graph_input_sampling9set_inputEPK12llama_ubatch
000000000014a4d0 W _ZN24llm_graph_input_samplingD0Ev
000000000014a4b0 W _ZN24llm_graph_input_samplingD2Ev
00000000001b1d50 W _ZN25llama_model_hunyuan_denseC2ERK18llama_model_params
00000000002453d8 W _ZN25llama_model_hunyuan_denseD0Ev
000000000013afd4 T _ZN25llm_graph_input_attn_temp9set_inputEPK12llama_ubatch
0000000000149cfc W _ZN25llm_graph_input_attn_tempD0Ev
00000000001eb1b8 W _ZN25llm_tokenizer_bpe_session14add_new_bigramEii
00000000001e9e64 W _ZN25llm_tokenizer_bpe_session8tokenizeERKNSt6__ndk112basic_stringIcNS0_11char_traitsIcEENS0_9allocatorIcEEEERNS0_6vectorIiNS4_IiEEEE
00000000001e9e3c W _ZN25llm_tokenizer_bpe_sessionD0Ev
00000000001ec9d0 W _ZN25llm_tokenizer_bpe_sessionD2Ev
00000000001ddfb8 W _ZN25llm_tokenizer_spm_session14try_add_bigramEii
00000000001d9554 W _ZN25llm_tokenizer_spm_session8tokenizeERKNSt6__ndk112basic_stringIcNS0_11char_traitsIcEENS0_9allocatorIcEEEERNS0_6vectorIiNS4_IiEEEE
00000000001de33c W _ZN25llm_tokenizer_spm_session9resegmentER10llm_symbolRNSt6__ndk16vectorIiNS2_9allocatorIiEEEE
00000000001d98d0 W _ZN25llm_tokenizer_spm_sessionD2Ev
00000000001df850 W _ZN25llm_tokenizer_ugm_session16normalize_prefixERKNSt6__ndk112basic_stringIcNS0_11char_traitsIcEENS0_9allocatorIcEEEEm
00000000001da35c W _ZN25llm_tokenizer_ugm_session8tokenizeERKNSt6__ndk112basic_stringIcNS0_11char_traitsIcEENS0_9allocatorIcEEEERNS0_6vectorIiNS4_IiEEEE
00000000001df4e0 W _ZN25llm_tokenizer_ugm_session9normalizeERKNSt6__ndk112basic_stringIcNS0_11char_traitsIcEENS0_9allocatorIcEEEEPS6_
00000000001deed0 W _ZN25llm_tokenizer_wpm_session10preprocessERKNSt6__ndk112basic_stringIcNS0_11char_traitsIcEENS0_9allocatorIcEEEERKN11llama_vocab18normalizer_optionsE
00000000001d9bb0 W _ZN25llm_tokenizer_wpm_session8tokenizeERKNSt6__ndk112basic_stringIcNS0_11char_traitsIcEENS0_9allocatorIcEEEERNS0_6vectorIiNS4_IiEEEE
000000000016bc20 T _ZN26llama_kv_cache_dsa_context4nextEv
000000000016bc90 T _ZN26llama_kv_cache_dsa_context5applyEv
000000000016b3ac T _ZN26llama_kv_cache_dsa_contextC1E19llama_memory_status
000000000016b3d4 T _ZN26llama_kv_cache_dsa_contextC1EP18llama_kv_cache_dsa
000000000016b634 T _ZN26llama_kv_cache_dsa_contextC1EP18llama_kv_cache_dsaNSt6__ndk16vectorIN14llama_kv_cache9slot_infoENS2_9allocatorIS5_EEEES8_NS3_I12llama_ubatchNS6_IS9_EEEE
000000000016b4f4 T _ZN26llama_kv_cache_dsa_contextC1EP18llama_kv_cache_dsaP13llama_contextb
000000000016b3ac T _ZN26llama_kv_cache_dsa_contextC2E19llama_memory_status
000000000016b3d4 T _ZN26llama_kv_cache_dsa_contextC2EP18llama_kv_cache_dsa
000000000016b634 T _ZN26llama_kv_cache_dsa_contextC2EP18llama_kv_cache_dsaNSt6__ndk16vectorIN14llama_kv_cache9slot_infoENS2_9allocatorIS5_EEEES8_NS3_I12llama_ubatchNS6_IS9_EEEE
000000000016b4f4 T _ZN26llama_kv_cache_dsa_contextC2EP18llama_kv_cache_dsaP13llama_contextb
000000000016bbf8 T _ZN26llama_kv_cache_dsa_contextD0Ev
000000000016bb18 T _ZN26llama_kv_cache_dsa_contextD1Ev
000000000016bb18 T _ZN26llama_kv_cache_dsa_contextD2Ev
000000000023fc14 T _ZN26llama_model_granite_hybrid17load_arch_hparamsER18llama_model_loader
000000000023fe64 T _ZN26llama_model_granite_hybrid17load_arch_tensorsER18llama_model_loader
0000000000240f5c T _ZN26llama_model_granite_hybrid5graph15build_layer_ffnEP11ggml_tensorS2_RK11llama_modeli
0000000000240d3c T _ZN26llama_model_granite_hybrid5graph21build_attention_layerEP11ggml_tensorS2_P23llm_graph_input_attn_kvRK11llama_modelli
0000000000240a40 T _ZN26llama_model_granite_hybrid5graphC1ERK11llama_modelRK16llm_graph_params
0000000000240a40 T _ZN26llama_model_granite_hybrid5graphC2ERK11llama_modelRK16llm_graph_params
0000000000241234 W _ZN26llama_model_granite_hybrid5graphD0Ev
00000000001b1810 W _ZN26llama_model_granite_hybridC2ERK18llama_model_params
000000000024120c W _ZN26llama_model_granite_hybridD0Ev
00000000001b1474 W _ZN26llama_model_nemotron_h_moeC2ERK18llama_model_params
000000000026336c W _ZN26llama_model_nemotron_h_moeD0Ev
0000000000265c3c T _ZN26llama_model_nomic_bert_moe17load_arch_hparamsER18llama_model_loader
0000000000265ce0 T _ZN26llama_model_nomic_bert_moe17load_arch_tensorsER18llama_model_loader
00000000001afd7c W _ZN26llama_model_nomic_bert_moeC2ERK18llama_model_params
0000000000266688 W _ZN26llama_model_nomic_bert_moeD0Ev
000000000013decc T _ZN26llm_graph_input_attn_cross9set_inputEPK12llama_ubatch
000000000014a1d8 W _ZN26llm_graph_input_attn_crossD0Ev
000000000013cd1c T _ZN26llm_graph_input_attn_k_dsa9can_reuseERK16llm_graph_params
000000000013cc8c T _ZN26llm_graph_input_attn_k_dsa9set_inputEPK12llama_ubatch
000000000014a028 W _ZN26llm_graph_input_attn_k_dsaD0Ev
0000000000149ffc W _ZN26llm_graph_input_attn_k_dsaD2Ev
000000000013c044 T _ZN26llm_graph_input_cross_embd9set_inputEPK12llama_ubatch
0000000000149e8c W _ZN26llm_graph_input_cross_embdD0Ev
000000000013e358 T _ZN26llm_graph_input_mem_hybrid9can_reuseERK16llm_graph_params
000000000013e224 T _ZN26llm_graph_input_mem_hybrid9set_inputEPK12llama_ubatch
000000000014a258 W _ZN26llm_graph_input_mem_hybridD0Ev
000000000014a1e0 W _ZN26llm_graph_input_mem_hybridD2Ev
000000000013b244 T _ZN26llm_graph_input_pos_bucket9set_inputEPK12llama_ubatch
0000000000149d0c W _ZN26llm_graph_input_pos_bucketD0Ev
00000000001da908 W _ZN26llm_tokenizer_rwkv_session8tokenizeERKNSt6__ndk112basic_stringIcNS0_11char_traitsIcEENS0_9allocatorIcEEEERNS0_6vectorIiNS4_IiEEEE
00000000001774c8 T _ZN27llama_kv_cache_dsv4_context4nextEv
000000000017757c T _ZN27llama_kv_cache_dsv4_context5applyEv
000000000017c4b8 W _ZN27llama_kv_cache_dsv4_context9comp_planC2ERKS0_
00000000001735e4 W _ZN27llama_kv_cache_dsv4_context9comp_planD2Ev
0000000000177dd0 W _ZN27llama_kv_cache_dsv4_context9comp_planaSEOS0_
000000000017311c T _ZN27llama_kv_cache_dsv4_contextC1E19llama_memory_status
00000000001731ec T _ZN27llama_kv_cache_dsv4_contextC1EP19llama_kv_cache_dsv4
0000000000173b90 T _ZN27llama_kv_cache_dsv4_contextC1EP19llama_kv_cache_dsv4NSt6__ndk16vectorIN14llama_kv_cache9slot_infoENS2_9allocatorIS5_EEEES8_S8_NS3_I12llama_ubatchNS6_IS9_EEEESB_
0000000000173720 T _ZN27llama_kv_cache_dsv4_contextC1EP19llama_kv_cache_dsv4P13llama_contextbN14llama_kv_cache16stream_copy_infoES5_S5_
000000000017311c T _ZN27llama_kv_cache_dsv4_contextC2E19llama_memory_status
00000000001731ec T _ZN27llama_kv_cache_dsv4_contextC2EP19llama_kv_cache_dsv4
0000000000173b90 T _ZN27llama_kv_cache_dsv4_contextC2EP19llama_kv_cache_dsv4NSt6__ndk16vectorIN14llama_kv_cache9slot_infoENS2_9allocatorIS5_EEEES8_S8_NS3_I12llama_ubatchNS6_IS9_EEEESB_
0000000000173720 T _ZN27llama_kv_cache_dsv4_contextC2EP19llama_kv_cache_dsv4P13llama_contextbN14llama_kv_cache16stream_copy_infoES5_S5_
00000000001774a0 T _ZN27llama_kv_cache_dsv4_contextD0Ev
0000000000177204 T _ZN27llama_kv_cache_dsv4_contextD1Ev
0000000000177204 T _ZN27llama_kv_cache_dsv4_contextD2Ev
0000000000169f48 T _ZN27llama_kv_cache_iswa_context4nextEv
0000000000169fb8 T _ZN27llama_kv_cache_iswa_context5applyEv
00000000001696d4 T _ZN27llama_kv_cache_iswa_contextC1E19llama_memory_status
00000000001696fc T _ZN27llama_kv_cache_iswa_contextC1EP19llama_kv_cache_iswa
000000000016995c T _ZN27llama_kv_cache_iswa_contextC1EP19llama_kv_cache_iswaNSt6__ndk16vectorIN14llama_kv_cache9slot_infoENS2_9allocatorIS5_EEEES8_NS3_I12llama_ubatchNS6_IS9_EEEE
000000000016981c T _ZN27llama_kv_cache_iswa_contextC1EP19llama_kv_cache_iswaP13llama_contextb
00000000001696d4 T _ZN27llama_kv_cache_iswa_contextC2E19llama_memory_status
00000000001696fc T _ZN27llama_kv_cache_iswa_contextC2EP19llama_kv_cache_iswa
000000000016995c T _ZN27llama_kv_cache_iswa_contextC2EP19llama_kv_cache_iswaNSt6__ndk16vectorIN14llama_kv_cache9slot_infoENS2_9allocatorIS5_EEEES8_NS3_I12llama_ubatchNS6_IS9_EEEE
000000000016981c T _ZN27llama_kv_cache_iswa_contextC2EP19llama_kv_cache_iswaP13llama_contextb
0000000000169f20 T _ZN27llama_kv_cache_iswa_contextD0Ev
0000000000169e40 T _ZN27llama_kv_cache_iswa_contextD1Ev
0000000000169e40 T _ZN27llama_kv_cache_iswa_contextD2Ev
000000000017e080 T _ZN27llama_memory_hybrid_context4nextEv
000000000017e0f0 T _ZN27llama_memory_hybrid_context5applyEv
000000000017d958 T _ZN27llama_memory_hybrid_contextC1E19llama_memory_status
000000000017d980 T _ZN27llama_memory_hybrid_contextC1EP19llama_memory_hybrid
000000000017dbe0 T _ZN27llama_memory_hybrid_contextC1EP19llama_memory_hybridNSt6__ndk16vectorIN14llama_kv_cache9slot_infoENS2_9allocatorIS5_EEEENS3_I12llama_ubatchNS6_IS9_EEEE
000000000017daa0 T _ZN27llama_memory_hybrid_contextC1EP19llama_memory_hybridP13llama_contextb
000000000017d958 T _ZN27llama_memory_hybrid_contextC2E19llama_memory_status
000000000017d980 T _ZN27llama_memory_hybrid_contextC2EP19llama_memory_hybrid
000000000017dbe0 T _ZN27llama_memory_hybrid_contextC2EP19llama_memory_hybridNSt6__ndk16vectorIN14llama_kv_cache9slot_infoENS2_9allocatorIS5_EEEENS3_I12llama_ubatchNS6_IS9_EEEE
000000000017daa0 T _ZN27llama_memory_hybrid_contextC2EP19llama_memory_hybridP13llama_contextb
000000000017e30c W _ZN27llama_memory_hybrid_contextD0Ev
000000000017e22c W _ZN27llama_memory_hybrid_contextD2Ev
0000000000231a50 T _ZN27llama_model_gemma_embedding17load_arch_hparamsER18llama_model_loader
0000000000231c40 T _ZN27llama_model_gemma_embedding17load_arch_tensorsER18llama_model_loader
000000000023224c T _ZN27llama_model_gemma_embedding5graphC1ERK11llama_modelRK16llm_graph_params
000000000023224c T _ZN27llama_model_gemma_embedding5graphC2ERK11llama_modelRK16llm_graph_params
0000000000232830 W _ZN27llama_model_gemma_embedding5graphD0Ev
00000000001b09a0 W _ZN27llama_model_gemma_embeddingC2ERK18llama_model_params
0000000000232808 W _ZN27llama_model_gemma_embeddingD0Ev
000000000023aec4 W _ZN27llm_graph_input_logits_bias9can_reuseERK16llm_graph_params
000000000023ae7c W _ZN27llm_graph_input_logits_bias9set_inputEPK12llama_ubatch
000000000023ac88 W _ZN27llm_graph_input_logits_biasC2ERK11llama_vocab
000000000023ae2c W _ZN27llm_graph_input_logits_biasD0Ev
000000000023adf8 W _ZN27llm_graph_input_logits_biasD2Ev
0000000000237ad0 T _ZN28llama_model_gemma4_assistant17load_arch_hparamsER18llama_model_loader
0000000000237c38 T _ZN28llama_model_gemma4_assistant17load_arch_tensorsER18llama_model_loader
0000000000238414 T _ZN28llama_model_gemma4_assistant5graphC1ERK11llama_modelRK16llm_graph_params
0000000000238414 T _ZN28llama_model_gemma4_assistant5graphC2ERK11llama_modelRK16llm_graph_params
0000000000238c24 W _ZN28llama_model_gemma4_assistant5graphD0Ev
00000000001b094c W _ZN28llama_model_gemma4_assistantC2ERK18llama_model_params
0000000000238bfc W _ZN28llama_model_gemma4_assistantD0Ev
00000000002934a4 T _ZN28llama_model_wavtokenizer_dec17load_arch_hparamsER18llama_model_loader
0000000000293508 T _ZN28llama_model_wavtokenizer_dec17load_arch_tensorsER18llama_model_loader
0000000000294248 T _ZN28llama_model_wavtokenizer_dec5graphC1ERK11llama_modelRK16llm_graph_params
0000000000294248 T _ZN28llama_model_wavtokenizer_dec5graphC2ERK11llama_modelRK16llm_graph_params
000000000029489c W _ZN28llama_model_wavtokenizer_dec5graphD0Ev
00000000001b18b8 W _ZN28llama_model_wavtokenizer_decC2ERK18llama_model_params
0000000000294874 W _ZN28llama_model_wavtokenizer_decD0Ev
000000000013cf78 T _ZN28llm_graph_input_attn_kv_iswa9can_reuseERK16llm_graph_params
000000000013cdf8 T _ZN28llm_graph_input_attn_kv_iswa9set_inputEPK12llama_ubatch
000000000014a0a0 W _ZN28llm_graph_input_attn_kv_iswaD0Ev
000000000014a074 W _ZN28llm_graph_input_attn_kv_iswaD2Ev
000000000013e5a4 T _ZN28llm_graph_input_mem_hybrid_k9can_reuseERK16llm_graph_params
000000000013e4c8 T _ZN28llm_graph_input_mem_hybrid_k9set_inputEPK12llama_ubatch
000000000014a348 W _ZN28llm_graph_input_mem_hybrid_kD0Ev
000000000014a2d0 W _ZN28llm_graph_input_mem_hybrid_kD2Ev
000000000013c098 T _ZN29llm_graph_input_attn_no_cache9set_inputEPK12llama_ubatch
0000000000149ec0 W _ZN29llm_graph_input_attn_no_cacheD0Ev
0000000000149e94 W _ZN29llm_graph_input_attn_no_cacheD2Ev
000000000013b6fc T _ZN29llm_graph_input_pos_bucket_kv9set_inputEPK12llama_ubatch
0000000000149d14 W _ZN29llm_graph_input_pos_bucket_kvD0Ev
0000000000184bc0 T _ZN30llama_memory_recurrent_context4nextEv
0000000000184bf8 T _ZN30llama_memory_recurrent_context5applyEv
0000000000184a4c T _ZN30llama_memory_recurrent_contextC1E19llama_memory_status
0000000000184a74 T _ZN30llama_memory_recurrent_contextC1EP22llama_memory_recurrent
0000000000184aa4 T _ZN30llama_memory_recurrent_contextC1EP22llama_memory_recurrentNSt6__ndk16vectorI12llama_ubatchNS2_9allocatorIS4_EEEE
0000000000184a4c T _ZN30llama_memory_recurrent_contextC2E19llama_memory_status
0000000000184a74 T _ZN30llama_memory_recurrent_contextC2EP22llama_memory_recurrent
0000000000184aa4 T _ZN30llama_memory_recurrent_contextC2EP22llama_memory_recurrentNSt6__ndk16vectorI12llama_ubatchNS2_9allocatorIS4_EEEE
0000000000184b98 T _ZN30llama_memory_recurrent_contextD0Ev
0000000000184ae8 T _ZN30llama_memory_recurrent_contextD1Ev
0000000000184ae8 T _ZN30llama_memory_recurrent_contextD2Ev
000000000017283c T _ZN31llama_kv_cache_dsv4_raw_context4nextEv
00000000001728b4 T _ZN31llama_kv_cache_dsv4_raw_context5applyEv
0000000000171f5c T _ZN31llama_kv_cache_dsv4_raw_contextC1EP19llama_kv_cache_iswa
0000000000172418 T _ZN31llama_kv_cache_dsv4_raw_contextC1EP19llama_kv_cache_iswaNSt6__ndk16vectorIN14llama_kv_cache9slot_infoENS2_9allocatorIS5_EEEES8_S8_NS3_I12llama_ubatchNS6_IS9_EEEESB_
0000000000172278 T _ZN31llama_kv_cache_dsv4_raw_contextC1EP19llama_kv_cache_iswaP13llama_contextb
0000000000171f5c T _ZN31llama_kv_cache_dsv4_raw_contextC2EP19llama_kv_cache_iswa
0000000000172418 T _ZN31llama_kv_cache_dsv4_raw_contextC2EP19llama_kv_cache_iswaNSt6__ndk16vectorIN14llama_kv_cache9slot_infoENS2_9allocatorIS5_EEEES8_S8_NS3_I12llama_ubatchNS6_IS9_EEEESB_
0000000000172278 T _ZN31llama_kv_cache_dsv4_raw_contextC2EP19llama_kv_cache_iswaP13llama_contextb
00000000001784c8 W _ZN31llama_kv_cache_dsv4_raw_contextD0Ev
0000000000178334 W _ZN31llama_kv_cache_dsv4_raw_contextD2Ev
000000000013e92c T _ZN31llm_graph_input_mem_hybrid_iswa9can_reuseERK16llm_graph_params
000000000013e710 T _ZN31llm_graph_input_mem_hybrid_iswa9set_inputEPK12llama_ubatch
000000000014a438 W _ZN31llm_graph_input_mem_hybrid_iswaD0Ev
000000000014a3c0 W _ZN31llm_graph_input_mem_hybrid_iswaD2Ev
00000000001ebe18 W _ZN31llm_tokenizer_hybriddna_session14emit_dna_kmersERKNSt6__ndk112basic_stringIcNS0_11char_traitsIcEENS0_9allocatorIcEEEEmiRNS0_6vectorIiNS4_IiEEEE
00000000001e9530 W _ZN31llm_tokenizer_hybriddna_session8tokenizeERKNSt6__ndk112basic_stringIcNS0_11char_traitsIcEENS0_9allocatorIcEEEERNS0_6vectorIiNS4_IiEEEE
00000000001e9508 W _ZN31llm_tokenizer_hybriddna_sessionD0Ev
0000000000173084 T _ZN32llama_kv_cache_dsv4_comp_context4nextEv
0000000000172cd4 T _ZN32llama_kv_cache_dsv4_comp_contextC1EP14llama_kv_cache
0000000000172fac T _ZN32llama_kv_cache_dsv4_comp_contextC1EP14llama_kv_cacheNSt6__ndk16vectorINS0_9slot_infoENS2_9allocatorIS4_EEEENS3_I12llama_ubatchNS5_IS8_EEEE
0000000000172cd4 T _ZN32llama_kv_cache_dsv4_comp_contextC2EP14llama_kv_cache
0000000000172fac T _ZN32llama_kv_cache_dsv4_comp_contextC2EP14llama_kv_cacheNSt6__ndk16vectorINS0_9slot_infoENS2_9allocatorIS4_EEEENS3_I12llama_ubatchNS5_IS8_EEEE
000000000017fe64 T _ZN32llama_memory_hybrid_iswa_context4nextEv
000000000017fed4 T _ZN32llama_memory_hybrid_iswa_context5applyEv
000000000017f6fc T _ZN32llama_memory_hybrid_iswa_contextC1E19llama_memory_status
000000000017f724 T _ZN32llama_memory_hybrid_iswa_contextC1EP24llama_memory_hybrid_iswa
000000000017f984 T _ZN32llama_memory_hybrid_iswa_contextC1EP24llama_memory_hybrid_iswaNSt6__ndk16vectorIN14llama_kv_cache9slot_infoENS2_9allocatorIS5_EEEES8_NS3_I12llama_ubatchNS6_IS9_EEEE
000000000017f844 T _ZN32llama_memory_hybrid_iswa_contextC1EP24llama_memory_hybrid_iswaP13llama_contextb
000000000017f6fc T _ZN32llama_memory_hybrid_iswa_contextC2E19llama_memory_status
000000000017f724 T _ZN32llama_memory_hybrid_iswa_contextC2EP24llama_memory_hybrid_iswa
000000000017f984 T _ZN32llama_memory_hybrid_iswa_contextC2EP24llama_memory_hybrid_iswaNSt6__ndk16vectorIN14llama_kv_cache9slot_infoENS2_9allocatorIS5_EEEES8_NS3_I12llama_ubatchNS6_IS9_EEEE
000000000017f844 T _ZN32llama_memory_hybrid_iswa_contextC2EP24llama_memory_hybrid_iswaP13llama_contextb
00000000001800f0 W _ZN32llama_memory_hybrid_iswa_contextD0Ev
0000000000180010 W _ZN32llama_memory_hybrid_iswa_contextD2Ev
00000000001ecac0 W _ZN32llm_tokenizer_whitespace_session8tokenizeERKNSt6__ndk112basic_stringIcNS0_11char_traitsIcEENS0_9allocatorIcEEEERNS0_6vectorIiNS4_IiEEEE
00000000001eca98 W _ZN32llm_tokenizer_whitespace_sessionD0Ev
0000000000101408 T _ZN6LLM_KVC1E8llm_archPKc
0000000000101408 T _ZN6LLM_KVC2E8llm_archPKc
00000000001874ec W _ZN8GGUFMeta3GKVINS_9ArrayInfoEE6get_kvEPK12gguf_contexti
000000000019827c W _ZN8GGUFMeta3GKVINSt6__ndk112basic_stringIcNS1_11char_traitsIcEENS1_9allocatorIcEEEEE17validate_overrideE28llama_model_kv_override_typePK23llama_model_kv_override
00000000001980ac W _ZN8GGUFMeta3GKVINSt6__ndk112basic_stringIcNS1_11char_traitsIcEENS1_9allocatorIcEEEEE6get_kvEPK12gguf_contexti
0000000000197644 W _ZN8GGUFMeta3GKVIbE17validate_overrideE28llama_model_kv_override_typePK23llama_model_kv_override
00000000001974f4 W _ZN8GGUFMeta3GKVIbE6get_kvEPK12gguf_contexti
0000000000197a2c W _ZN8GGUFMeta3GKVIfE17validate_overrideE28llama_model_kv_override_typePK23llama_model_kv_override
00000000001978dc W _ZN8GGUFMeta3GKVIfE6get_kvEPK12gguf_contexti
0000000000199aa8 W _ZN8GGUFMeta3GKVIiE17validate_overrideE28llama_model_kv_override_typePK23llama_model_kv_override
0000000000199958 W _ZN8GGUFMeta3GKVIiE6get_kvEPK12gguf_contexti
0000000000197e14 W _ZN8GGUFMeta3GKVIjE17validate_overrideE28llama_model_kv_override_typePK23llama_model_kv_override
0000000000197cc4 W _ZN8GGUFMeta3GKVIjE6get_kvEPK12gguf_contexti
00000000001996c0 W _ZN8GGUFMeta3GKVItE17validate_overrideE28llama_model_kv_override_typePK23llama_model_kv_override
0000000000199570 W _ZN8GGUFMeta3GKVItE6get_kvEPK12gguf_contexti
000000000014c6c0 T _ZN9time_measC1ERlb
000000000014c6c0 T _ZN9time_measC2ERlb
000000000014c700 T _ZN9time_measD1Ev
000000000014c700 T _ZN9time_measD2Ev
0000000000185988 T _ZNK10llama_file13has_direct_ioEv
000000000018597c T _ZNK10llama_file14read_alignmentEv
00000000001859c8 W _ZNK10llama_file4impl4seekEmi
00000000001857b0 W _ZNK10llama_file4impl4tellEv
0000000000185f70 W _ZNK10llama_file4impl9write_rawEPKvm
00000000001859c0 T _ZNK10llama_file4seekEmi
0000000000185970 T _ZNK10llama_file4sizeEv
00000000001857a8 T _ZNK10llama_file4tellEv
00000000001859a4 T _ZNK10llama_file7file_idEv
0000000000185f68 T _ZNK10llama_file9write_rawEPKvm
00000000001860b0 T _ZNK10llama_file9write_u32Ej
00000000001861c0 T _ZNK10llama_mmap4addrEv
00000000001861b4 T _ZNK10llama_mmap4sizeEv
0000000000101518 T _ZNK11LLM_TN_IMPL3strEv
00000000001ad110 T _ZNK11llama_model10dev_outputEv
00000000001ad460 T _ZNK11llama_model10get_tensorEPKc
00000000001ab7fc T _ZNK11llama_model10n_elementsEv
00000000001ab808 T _ZNK11llama_model10print_infoEv
00000000001ab2ec T _ZNK11llama_model10split_modeEv
00000000001ae574 T _ZNK11llama_model11build_graphERK16llm_graph_params
00000000001ad11c T _ZNK11llama_model11select_buftEi
00000000001aabbc T _ZNK11llama_model12n_gpu_layersEv
00000000001a4598 T _ZNK11llama_model12tensor_splitEv
00000000001ad5e4 T _ZNK11llama_model13create_memoryERK19llama_memory_paramsRK13llama_cparams
00000000001ad5a0 T _ZNK11llama_model16get_rope_factorsERK13llama_cparamsi
00000000001ab2f8 T _ZNK11llama_model16memory_breakdownEv
00000000001ad518 T _ZNK11llama_model18get_rope_freq_baseERK13llama_cparamsi
00000000001ad55c T _ZNK11llama_model19get_rope_freq_scaleERK13llama_cparamsi
00000000001ad454 T _ZNK11llama_model20has_tensor_overridesEv
00000000001ab290 T _ZNK11llama_model4descEv
00000000001ab2cc T _ZNK11llama_model4sizeEv
00000000001ab2c0 T _ZNK11llama_model5ftypeEv
00000000001a5d20 T _ZNK11llama_model9arch_nameEv
00000000001ad0e0 T _ZNK11llama_model9dev_layerEi
00000000001aabd4 T _ZNK11llama_model9n_devicesEv
00000000001ab2d8 T _ZNK11llama_model9n_tensorsEv
00000000001a5dc8 T _ZNK11llama_model9type_nameEv
00000000001dd908 T _ZNK11llama_vocab10detokenizeEPKiiPcibb
00000000001dd910 T _ZNK11llama_vocab10detokenizeERKNSt6__ndk16vectorIiNS0_9allocatorIiEEEEb
00000000001dcb90 T _ZNK11llama_vocab10is_controlEi
00000000001dcb44 T _ZNK11llama_vocab10is_unknownEi
00000000001dda68 T _ZNK11llama_vocab10print_infoEv
00000000001dcfb0 T _ZNK11llama_vocab10token_maskEv
00000000001dcfc8 T _ZNK11llama_vocab11get_add_bosEv
00000000001dcfd4 T _ZNK11llama_vocab11get_add_eosEv
00000000001dcfe0 T _ZNK11llama_vocab11get_add_sepEv
00000000001dc998 T _ZNK11llama_vocab12get_pre_typeEv
00000000001dcf50 T _ZNK11llama_vocab12token_middleEv
00000000001dcf44 T _ZNK11llama_vocab12token_prefixEv
00000000001dcf5c T _ZNK11llama_vocab12token_suffixEv
00000000001d70f8 T _ZNK11llama_vocab13byte_to_tokenEh
00000000001dd04c T _ZNK11llama_vocab13find_bpe_rankERKNSt6__ndk112basic_stringIcNS0_11char_traitsIcEENS0_9allocatorIcEEEES8_
00000000001dd040 T _ZNK11llama_vocab13max_token_lenEv
00000000001dc9a4 T _ZNK11llama_vocab13n_token_typesEv
00000000001dcd6c T _ZNK11llama_vocab13text_to_tokenERKNSt6__ndk112basic_stringIcNS0_11char_traitsIcEENS0_9allocatorIcEEEE
00000000001dcf80 T _ZNK11llama_vocab13token_fim_midEv
00000000001dcf8c T _ZNK11llama_vocab13token_fim_padEv
00000000001dcf68 T _ZNK11llama_vocab13token_fim_preEv
00000000001dcf98 T _ZNK11llama_vocab13token_fim_repEv
00000000001dcfa4 T _ZNK11llama_vocab13token_fim_sepEv
00000000001dcf74 T _ZNK11llama_vocab13token_fim_sufEv
00000000001dccc8 T _ZNK11llama_vocab13token_to_byteEi
00000000001dd240 T _ZNK11llama_vocab14get_bpe_mergesEv
00000000001d93bc T _ZNK11llama_vocab14get_token_dataEi
00000000001dce88 T _ZNK11llama_vocab14token_get_attrEi
00000000001dcdc4 T _ZNK11llama_vocab14token_get_textEi
00000000001dd8c8 T _ZNK11llama_vocab14token_to_pieceEi
00000000001d9414 T _ZNK11llama_vocab14token_to_pieceEiPciib
00000000001dcbdc T _ZNK11llama_vocab15is_user_definedEi
00000000001dce2c T _ZNK11llama_vocab15token_get_scoreEi
00000000001dcff8 T _ZNK11llama_vocab16get_clean_spacesEv
00000000001dcfec T _ZNK11llama_vocab17get_ignore_mergesEv
00000000001dc95c T _ZNK11llama_vocab17get_tokenizer_preEv
00000000001dd028 T _ZNK11llama_vocab19get_normalizer_optsEv
00000000001dd034 T _ZNK11llama_vocab19get_suppress_tokensEv
00000000001d9930 T _ZNK11llama_vocab19get_tokenizer_modelEv
00000000001dcfbc T _ZNK11llama_vocab20get_add_space_prefixEv
00000000001dd010 T _ZNK11llama_vocab22get_escape_whitespacesEv
00000000001dd60c T _ZNK11llama_vocab24get_precompiled_charsmapEv
00000000001dd004 T _ZNK11llama_vocab28get_remove_extra_whitespacesEv
00000000001dd01c T _ZNK11llama_vocab30get_treat_whitespace_as_suffixEv
00000000001dbd04 T _ZNK11llama_vocab4impl10detokenizeEPKiiPcibb
00000000001d8a50 T _ZNK11llama_vocab4impl10is_controlEi
00000000001d8a08 T _ZNK11llama_vocab4impl10is_unknownEi
00000000001dc100 T _ZNK11llama_vocab4impl10print_infoEv
00000000001d8bc0 T _ZNK11llama_vocab4impl13token_to_byteEi
00000000001d8da8 T _ZNK11llama_vocab4impl14token_get_attrEi
00000000001dbcc8 T _ZNK11llama_vocab4impl14token_to_pieceEi
00000000001dac20 T _ZNK11llama_vocab4impl14token_to_pieceEiPciib
00000000001d8ae0 T _ZNK11llama_vocab4impl15is_user_definedEi
00000000001d8e00 T _ZNK11llama_vocab4impl22tokenizer_st_partitionERNSt6__ndk112forward_listI23fragment_buffer_variantNS1_9allocatorIS3_EEEEb
00000000001d86b8 T _ZNK11llama_vocab4impl24token_to_piece_for_cacheEib
00000000001d8b70 T _ZNK11llama_vocab4impl6is_eogEi
00000000001d8a98 T _ZNK11llama_vocab4impl7is_byteEi
00000000001d8874 T _ZNK11llama_vocab4impl8get_typeEv
00000000001d74c4 T _ZNK11llama_vocab4impl8tokenizeERKNSt6__ndk112basic_stringIcNS1_11char_traitsIcEENS1_9allocatorIcEEEEbb
00000000001d89c0 T _ZNK11llama_vocab4impl9is_normalEi
00000000001d8b28 T _ZNK11llama_vocab4impl9is_unusedEi
00000000001d887c T _ZNK11llama_vocab4impl9type_nameEv
00000000001dcc74 T _ZNK11llama_vocab6is_eogEi
00000000001dbc7c T _ZNK11llama_vocab7is_byteEi
00000000001dc98c T _ZNK11llama_vocab8get_typeEv
00000000001dc83c T _ZNK11llama_vocab8n_tokensEv
00000000001dcf2c T _ZNK11llama_vocab8token_nlEv
00000000001dd674 T _ZNK11llama_vocab8tokenizeEPKciPiibb
00000000001dd8c0 T _ZNK11llama_vocab8tokenizeERKNSt6__ndk112basic_stringIcNS0_11char_traitsIcEENS0_9allocatorIcEEEEbb
00000000001dcaf8 T _ZNK11llama_vocab9is_normalEi
00000000001dcc28 T _ZNK11llama_vocab9is_unusedEi
00000000001dcee4 T _ZNK11llama_vocab9token_bosEv
00000000001dcf08 T _ZNK11llama_vocab9token_eomEv
00000000001dcef0 T _ZNK11llama_vocab9token_eosEv
00000000001dcefc T _ZNK11llama_vocab9token_eotEv
00000000001dcf38 T _ZNK11llama_vocab9token_padEv
00000000001dcf20 T _ZNK11llama_vocab9token_sepEv
00000000001dcf14 T _ZNK11llama_vocab9token_unkEv
00000000001dc9b0 T _ZNK11llama_vocab9type_nameEv
0000000000114e2c T _ZNK13llama_context10get_memoryEv
0000000000114de4 T _ZNK13llama_context11get_cparamsEv
0000000000119e84 T _ZNK13llama_context12graph_get_cbEv
0000000000116edc T _ZNK13llama_context12graph_paramsEP16llm_graph_resultRK12llama_ubatchPK22llama_memory_context_i14llm_graph_type
000000000011505c T _ZNK13llama_context12pooling_typeEv
000000000011b8e0 T _ZNK13llama_context13perf_get_dataEv
000000000011491c T _ZNK13llama_context15graph_max_nodesEj
0000000000114e24 T _ZNK13llama_context15n_threads_batchEv
000000000011b96c T _ZNK13llama_context16memory_breakdownEv
0000000000119c88 T _ZNK13llama_context18get_gf_res_reserveEv
0000000000115b68 T _ZNK13llama_context18get_sampled_tokensEv
00000000001157d4 T _ZNK13llama_context18output_resolve_rowEi
0000000000114df4 T _ZNK13llama_context5n_ctxEv
0000000000114e04 T _ZNK13llama_context7n_batchEv
0000000000114e0c T _ZNK13llama_context8n_ubatchEv
0000000000114ddc T _ZNK13llama_context9get_modelEv
0000000000114dec T _ZNK13llama_context9get_schedEv
0000000000114dfc T _ZNK13llama_context9n_ctx_seqEv
0000000000114e14 T _ZNK13llama_context9n_seq_maxEv
0000000000114e1c T _ZNK13llama_context9n_threadsEv
000000000014bd70 T _ZNK13llama_hparams10is_swa_anyEv
000000000014bf40 T _ZNK13llama_hparams10n_embd_inpEv
000000000014bf98 T _ZNK13llama_hparams10n_embd_outEv
000000000014c044 T _ZNK13llama_hparams12n_embd_k_gqaEj
000000000014c098 T _ZNK13llama_hparams12n_embd_v_gqaEj
000000000014bfac T _ZNK13llama_hparams13n_embd_head_kEj
000000000014bff8 T _ZNK13llama_hparams13n_embd_head_vEj
000000000014bf68 T _ZNK13llama_hparams14n_embd_inp_encEv
000000000014c5a4 T _ZNK13llama_hparams14n_pos_per_embdEv
000000000014c204 T _ZNK13llama_hparams16n_embd_k_gqa_maxEv
000000000014c324 T _ZNK13llama_hparams16n_embd_v_gqa_maxEv
000000000014c5d4 T _ZNK13llama_hparams17n_embd_head_k_mlaEv
000000000014c634 T _ZNK13llama_hparams17n_embd_head_v_mlaEv
000000000014c0ec T _ZNK13llama_hparams24is_n_embd_k_gqa_variableEv
000000000014c178 T _ZNK13llama_hparams24is_n_embd_v_gqa_variableEv
000000000014be1c T _ZNK13llama_hparams4n_ffEj
000000000014be54 T _ZNK13llama_hparams5n_gqaEj
000000000014bea8 T _ZNK13llama_hparams5n_rotEj
000000000014c694 T _ZNK13llama_hparams6has_kvEj
000000000014c5c0 T _ZNK13llama_hparams6is_mlaEv
000000000014bef4 T _ZNK13llama_hparams6is_swaEj
000000000014bdac T _ZNK13llama_hparams6n_headEj
000000000014c558 T _ZNK13llama_hparams7is_recrEj
000000000014baa8 T _ZNK13llama_hparams7n_layerEv
000000000014c444 T _ZNK13llama_hparams8n_embd_rEv
000000000014c4f4 T _ZNK13llama_hparams8n_embd_sEv
000000000014bde4 T _ZNK13llama_hparams9n_head_kvEj
000000000014c6a8 T _ZNK13llama_hparams9use_mropeEv
00000000001619d4 T _ZNK14llama_kv_cache10total_sizeEv
0000000000151800 T _ZNK14llama_kv_cache11seq_pos_maxEi
000000000015176c T _ZNK14llama_kv_cache11seq_pos_minEi
0000000000161d5c T _ZNK14llama_kv_cache11state_writeER16llama_io_write_iij
0000000000155788 T _ZNK14llama_kv_cache12get_n_streamEv
000000000014fb78 T _ZNK14llama_kv_cache12size_k_bytesEv
000000000014fbdc T _ZNK14llama_kv_cache12size_v_bytesEv
0000000000155750 T _ZNK14llama_kv_cache13get_can_shiftEv
000000000015312c T _ZNK14llama_kv_cache13get_has_shiftEv
0000000000155868 T _ZNK14llama_kv_cache13get_k_storageEi
00000000001557b0 T _ZNK14llama_kv_cache13get_layer_idsEv
0000000000161594 T _ZNK14llama_kv_cache15set_input_k_rotEP11ggml_tensor
00000000001617b4 T _ZNK14llama_kv_cache15set_input_v_rotEP11ggml_tensor
0000000000161a38 T _ZNK14llama_kv_cache16build_rope_shiftERK13llama_cparamsP12ggml_contextP11ggml_tensorS6_S6_S6_ffj
00000000001518cc T _ZNK14llama_kv_cache16memory_breakdownEv
0000000000156578 T _ZNK14llama_kv_cache16set_input_k_idxsEP11ggml_tensorPK12llama_ubatchRKNS_9slot_infoE
00000000001567b8 T _ZNK14llama_kv_cache16set_input_v_idxsEP11ggml_tensorPK12llama_ubatchRKNS_9slot_infoE
00000000001626d8 T _ZNK14llama_kv_cache16state_write_dataER16llama_io_write_iRKNS_13cell_ranges_tE
000000000016237c T _ZNK14llama_kv_cache16state_write_metaER16llama_io_write_iRKNS_13cell_ranges_tEi
0000000000155380 T _ZNK14llama_kv_cache17build_graph_shiftEP16llm_graph_resultP13llama_context
00000000001564a4 T _ZNK14llama_kv_cache17build_input_k_rotEP12ggml_context
000000000015651c T _ZNK14llama_kv_cache17build_input_v_rotEP12ggml_context
0000000000156b80 T _ZNK14llama_kv_cache17set_input_k_shiftEP11ggml_tensor
0000000000156c68 T _ZNK14llama_kv_cache17set_input_kq_maskEP11ggml_tensorPK12llama_ubatchb
000000000015641c T _ZNK14llama_kv_cache18build_input_k_idxsEP12ggml_contextRK12llama_ubatch
0000000000156450 T _ZNK14llama_kv_cache18build_input_v_idxsEP12ggml_contextRK12llama_ubatch
0000000000161460 T _ZNK14llama_kv_cache20set_input_pos_bucketEP11ggml_tensorPK12llama_ubatch
0000000000155f5c T _ZNK14llama_kv_cache5cpy_kEP12ggml_contextP11ggml_tensorS3_iRKNS_9slot_infoE
0000000000156150 T _ZNK14llama_kv_cache5cpy_vEP12ggml_contextP11ggml_tensorS3_iRKNS_9slot_infoE
0000000000155a44 T _ZNK14llama_kv_cache5get_kEP12ggml_contextijRKNS_9slot_infoE
0000000000155c7c T _ZNK14llama_kv_cache5get_vEP12ggml_contextijRKNS_9slot_infoE
0000000000155790 T _ZNK14llama_kv_cache6type_kEv
00000000001557a0 T _ZNK14llama_kv_cache6type_vEv
0000000000155970 T _ZNK14llama_kv_cache8get_n_kvERKNS_9slot_infoE
000000000014f984 T _ZNK14llama_kv_cache8get_sizeEv
00000000001531c4 T _ZNK14llama_kv_cache9find_slotERK12llama_ubatchb
00000000002916f4 T _ZNK14llama_model_t516build_arch_graphERK16llm_graph_params
0000000000262cb0 T _ZNK15llama_model_mpt16build_arch_graphERK16llm_graph_params
00000000002739a4 T _ZNK15llama_model_plm16build_arch_graphERK16llm_graph_params
000000000020f01c T _ZNK16llama_model_bert16build_arch_graphERK16llm_graph_params
0000000000217ba8 T _ZNK16llama_model_dbrx16build_arch_graphERK16llm_graph_params
000000000021897c T _ZNK16llama_model_deci16build_arch_graphERK16llm_graph_params
000000000023db88 T _ZNK16llama_model_glm416build_arch_graphERK16llm_graph_params
000000000023e8a0 T _ZNK16llama_model_gpt216build_arch_graphERK16llm_graph_params
0000000000243d44 T _ZNK16llama_model_grok16build_arch_graphERK16llm_graph_params
0000000000249ce4 T _ZNK16llama_model_jais16build_arch_graphERK16llm_graph_params
0000000000251588 T _ZNK16llama_model_lfm216build_arch_graphERK16llm_graph_params
0000000000267508 T _ZNK16llama_model_olmo16build_arch_graphERK16llm_graph_params
000000000026d4e0 T _ZNK16llama_model_phi216build_arch_graphERK16llm_graph_params
000000000026e198 T _ZNK16llama_model_phi316build_arch_graphERK16llm_graph_params
00000000002748ac T _ZNK16llama_model_qwen16build_arch_graphERK16llm_graph_params
0000000000284034 T _ZNK16llama_model_rnd116build_arch_graphERK16llm_graph_params
000000000013fcdc W _ZNK16llm_graph_params11allow_reuseERKS_
000000000013f6ec T _ZNK16llm_graph_result13get_max_nodesEv
0000000000207b88 T _ZNK17llama_model_afmoe16build_arch_graphERK16llm_graph_params
00000000002098cc T _ZNK17llama_model_arcee16build_arch_graphERK16llm_graph_params
0000000000210d0c T _ZNK17llama_model_bloom16build_arch_graphERK16llm_graph_params
000000000022819c T _ZNK17llama_model_dots116build_arch_graphERK16llm_graph_params
0000000000228d78 T _ZNK17llama_model_dream16build_arch_graphERK16llm_graph_params
0000000000232ca0 T _ZNK17llama_model_gemma16build_arch_graphERK16llm_graph_params
0000000000247b34 T _ZNK17llama_model_hy_v316build_arch_graphERK16llm_graph_params
000000000024a8f0 T _ZNK17llama_model_jais216build_arch_graphERK16llm_graph_params
000000000024b898 T _ZNK17llama_model_jamba16build_arch_graphERK16llm_graph_params
0000000000254f18 T _ZNK17llama_model_llada16build_arch_graphERK16llm_graph_params
0000000000255f64 T _ZNK17llama_model_llama16build_arch_graphERK16llm_graph_params
000000000025ada4 T _ZNK17llama_model_mamba16build_arch_graphERK16llm_graph_params
000000000025d4b8 T _ZNK17llama_model_mimo216build_arch_graphERK16llm_graph_params
0000000000268058 T _ZNK17llama_model_olmo216build_arch_graphERK16llm_graph_params
0000000000269460 T _ZNK17llama_model_olmoe16build_arch_graphERK16llm_graph_params
000000000026b898 T _ZNK17llama_model_orion16build_arch_graphERK16llm_graph_params
000000000026f924 T _ZNK17llama_model_plamo16build_arch_graphERK16llm_graph_params
00000000002753ec T _ZNK17llama_model_qwen216build_arch_graphERK16llm_graph_params
0000000000277720 T _ZNK17llama_model_qwen316build_arch_graphERK16llm_graph_params
0000000000285f7c T _ZNK17llama_model_rwkv616build_arch_graphERK16llm_graph_params
0000000000288c4c T _ZNK17llama_model_rwkv716build_arch_graphERK16llm_graph_params
0000000000145b08 T _ZNK17llm_graph_context10build_attnEP22llm_graph_input_attn_kP11ggml_tensorS3_S3_S3_S3_S3_S3_S3_S3_fi
0000000000145380 T _ZNK17llm_graph_context10build_attnEP23llm_graph_input_attn_kvP11ggml_tensorS3_S3_S3_S3_S3_S3_S3_S3_fi
00000000001465d8 T _ZNK17llm_graph_context10build_attnEP26llm_graph_input_attn_crossP11ggml_tensorS3_S3_S3_S3_S3_S3_S3_S3_fi
0000000000145d10 T _ZNK17llm_graph_context10build_attnEP26llm_graph_input_attn_k_dsaP11ggml_tensorS3_S3_S3_S3_S3_S3_S3_S3_S3_fi
0000000000145fc8 T _ZNK17llm_graph_context10build_attnEP28llm_graph_input_attn_kv_iswaP11ggml_tensorS3_S3_S3_S3_S3_S3_S3_S3_fi
0000000000144e8c T _ZNK17llm_graph_context10build_attnEP29llm_graph_input_attn_no_cacheP11ggml_tensorS3_S3_S3_S3_S3_S3_S3_S3_fi
0000000000140774 T _ZNK17llm_graph_context10build_cvecEP11ggml_tensori
0000000000140a1c T _ZNK17llm_graph_context10build_normEP11ggml_tensorS1_S1_13llm_norm_typei
0000000000147f48 T _ZNK17llm_graph_context12build_rs_inpEv
0000000000143d78 T _ZNK17llm_graph_context13build_inp_clsEv
00000000001436dc T _ZNK17llm_graph_context13build_inp_posEv
0000000000140790 T _ZNK17llm_graph_context13build_lora_mmEP11ggml_tensorS1_S1_
0000000000141e5c T _ZNK17llm_graph_context13build_moe_ffnEP11ggml_tensorS1_S1_S1_S1_S1_S1_S1_S1_S1_ll15llm_ffn_op_typebf29llama_expert_gating_func_typeiS1_S1_S1_S1_S1_S1_S1_
0000000000141dcc T _ZNK17llm_graph_context13build_moe_ffnEP11ggml_tensorS1_S1_S1_S1_S1_ll15llm_ffn_op_typebf29llama_expert_gating_func_typeiS1_S1_S1_S1_S1_S1_
00000000001490e8 T _ZNK17llm_graph_context13build_poolingEP11ggml_tensorS1_S1_S1_S1_
0000000000144514 T _ZNK17llm_graph_context14build_attn_mhaEP11ggml_tensorS1_S1_S1_S1_S1_S1_fi
0000000000146e78 T _ZNK17llm_graph_context14build_inp_dsv4Ev
0000000000143230 T _ZNK17llm_graph_context14build_inp_embdEP11ggml_tensor
0000000000143bb8 T _ZNK17llm_graph_context14build_inp_meanEv
00000000001443c4 T _ZNK17llm_graph_context14build_pos_biasEP11ggml_tensorS1_
0000000000149420 T _ZNK17llm_graph_context14build_samplingEv
0000000000148f98 T _ZNK17llm_graph_context15build_dense_outEP11ggml_tensorS1_S1_
00000000001457c4 T _ZNK17llm_graph_context16build_attn_inp_kEv
00000000001408a0 T _ZNK17llm_graph_context16build_lora_mm_idEP11ggml_tensorS1_S1_S1_
0000000000145010 T _ZNK17llm_graph_context17build_attn_inp_kvEv
00000000001439d0 T _ZNK17llm_graph_context17build_inp_out_idsEv
0000000000146448 T _ZNK17llm_graph_context20build_attn_inp_crossEv
0000000000146740 T _ZNK17llm_graph_context20build_attn_inp_k_dsaEv
000000000014384c T _ZNK17llm_graph_context20build_inp_attn_scaleEv
0000000000143f3c T _ZNK17llm_graph_context20build_inp_cross_embdEv
0000000000148524 T _ZNK17llm_graph_context20build_inp_mem_hybridEv
0000000000146b0c T _ZNK17llm_graph_context22build_attn_inp_kv_iswaEv
000000000014881c T _ZNK17llm_graph_context22build_inp_mem_hybrid_kEv
0000000000144c44 T _ZNK17llm_graph_context23build_attn_inp_no_cacheEv
0000000000144234 T _ZNK17llm_graph_context24build_inp_pos_bucket_decEv
00000000001440d0 T _ZNK17llm_graph_context24build_inp_pos_bucket_encEv
0000000000148b14 T _ZNK17llm_graph_context25build_inp_mem_hybrid_iswaEv
000000000014827c T _ZNK17llm_graph_context27build_rwkv_token_shift_loadEP18llm_graph_input_rsRK12llama_ubatchi
0000000000148440 T _ZNK17llm_graph_context28build_rwkv_token_shift_storeEP11ggml_tensorRK12llama_ubatchi
0000000000140700 T _ZNK17llm_graph_context2cbEP11ggml_tensorPKci
0000000000147db0 T _ZNK17llm_graph_context8build_rsEP11ggml_tensorS1_S1_iijjjiRKNSt6__ndk18functionIFS1_P12ggml_contextS1_S1_EEE
00000000001481c8 T _ZNK17llm_graph_context8build_rsEP18llm_graph_input_rsP11ggml_tensoriiRKNSt6__ndk18functionIFS3_P12ggml_contextS3_S3_EEE
0000000000141294 T _ZNK17llm_graph_context9build_ffnEP11ggml_tensorS1_S1_S1_S1_S1_S1_S1_S1_S1_S1_15llm_ffn_op_type17llm_ffn_gate_typei
0000000000140bc0 T _ZNK17llm_graph_context9build_qkvERK11llama_layerP11ggml_tensorllli
00000000000fb2ac T _ZNK18llama_adapter_cvec10tensor_forEi
00000000000fb2f4 T _ZNK18llama_adapter_cvec8apply_toEP12ggml_contextP11ggml_tensori
0000000000105810 T _ZNK18llama_batch_allocr10get_n_usedEv
00000000001051d8 T _ZNK18llama_batch_allocr11seq_pos_maxEi
00000000001051ac T _ZNK18llama_batch_allocr11seq_pos_minEi
0000000000105800 T _ZNK18llama_batch_allocr12get_n_tokensEv
0000000000105808 T _ZNK18llama_batch_allocr13get_n_outputsEv
00000000001057fc T _ZNK18llama_batch_allocr9get_batchEv
000000000016aae0 T _ZNK18llama_kv_cache_dsa11seq_pos_maxEi
000000000016aad0 T _ZNK18llama_kv_cache_dsa11seq_pos_minEi
000000000016b2ec T _ZNK18llama_kv_cache_dsa11state_writeER16llama_io_write_iij
000000000016b278 T _ZNK18llama_kv_cache_dsa13get_can_shiftEv
000000000016aaf0 T _ZNK18llama_kv_cache_dsa16memory_breakdownEv
000000000016b3a4 T _ZNK18llama_kv_cache_dsa7get_lidEv
000000000016b39c T _ZNK18llama_kv_cache_dsa7get_mlaEv
000000000020a484 T _ZNK18llama_model_arctic16build_arch_graphERK16llm_graph_params
000000000020b75c T _ZNK18llama_model_arwkv716build_arch_graphERK16llm_graph_params
000000000020ff80 T _ZNK18llama_model_bitnet16build_arch_graphERK16llm_graph_params
0000000000213af0 T _ZNK18llama_model_cogvlm16build_arch_graphERK16llm_graph_params
00000000002268a0 T _ZNK18llama_model_dflash16build_arch_graphERK16llm_graph_params
0000000000226968 T _ZNK18llama_model_dflash5graphILb1EE18build_inp_embd_encEv
0000000000229bd0 T _ZNK18llama_model_eagle316build_arch_graphERK16llm_graph_params
0000000000229c98 T _ZNK18llama_model_eagle35graphILb1EE18build_inp_embd_encEv
000000000022e148 T _ZNK18llama_model_exaone16build_arch_graphERK16llm_graph_params
00000000002314a8 T _ZNK18llama_model_falcon16build_arch_graphERK16llm_graph_params
0000000000233830 T _ZNK18llama_model_gemma216build_arch_graphERK16llm_graph_params
00000000002345f4 T _ZNK18llama_model_gemma316build_arch_graphERK16llm_graph_params
00000000002399e0 T _ZNK18llama_model_gemma416build_arch_graphERK16llm_graph_params
000000000025016c T _ZNK18llama_model_laguna16build_arch_graphERK16llm_graph_params
00000000002576fc T _ZNK18llama_model_llama416build_arch_graphERK16llm_graph_params
00000000001924a8 T _ZNK18llama_model_loader10ftype_nameEv
000000000018dec0 T _ZNK18llama_model_loader10get_weightEPKc
0000000000192588 T _ZNK18llama_model_loader10print_infoEv
000000000018de8c T _ZNK18llama_model_loader13get_arch_nameEv
0000000000190480 T _ZNK18llama_model_loader13load_data_forEP11ggml_tensor
000000000018e070 T _ZNK18llama_model_loader14require_weightEPKc
000000000018e184 T _ZNK18llama_model_loader15get_tensor_metaEPKc
000000000018e2dc T _ZNK18llama_model_loader17check_tensor_dimsERKNSt6__ndk112basic_stringIcNS0_11char_traitsIcEENS0_9allocatorIcEEEERKNS0_6vectorIlNS4_IlEEEEb
0000000000190354 T _ZNK18llama_model_loader17get_mapping_rangeEPmS0_PPviP12ggml_context
000000000018e1a0 T _ZNK18llama_model_loader19require_tensor_metaERKNSt6__ndk112basic_stringIcNS0_11char_traitsIcEENS0_9allocatorIcEEEE
000000000018faf4 T _ZNK18llama_model_loader20done_getting_tensorsEb
0000000000199284 W _ZNK18llama_model_loader20weight_name_comparerclERKNSt6__ndk112basic_stringIcNS1_11char_traitsIcEENS1_9allocatorIcEEEES9_
000000000018deb8 T _ZNK18llama_model_loader8get_archEv
000000000025b760 T _ZNK18llama_model_mamba216build_arch_graphERK16llm_graph_params
000000000025bedc T _ZNK18llama_model_mellum16build_arch_graphERK16llm_graph_params
000000000026f49c T _ZNK18llama_model_phimoe16build_arch_graphERK16llm_graph_params
00000000002708e8 T _ZNK18llama_model_plamo216build_arch_graphERK16llm_graph_params
00000000002725a8 T _ZNK18llama_model_plamo316build_arch_graphERK16llm_graph_params
0000000000278b8c T _ZNK18llama_model_qwen3516build_arch_graphERK16llm_graph_params
00000000002834c0 T _ZNK18llama_model_refact16build_arch_graphERK16llm_graph_params
000000000028f47c T _ZNK18llama_model_step3516build_arch_graphERK16llm_graph_params
0000000000292de4 T _ZNK18llama_model_talkie16build_arch_graphERK16llm_graph_params
0000000000294d30 T _ZNK18llama_model_xverse16build_arch_graphERK16llm_graph_params
0000000000170b24 T _ZNK19llama_kv_cache_dsv411seq_pos_maxEi
0000000000170af8 T _ZNK19llama_kv_cache_dsv411seq_pos_minEi
0000000000171324 T _ZNK19llama_kv_cache_dsv411state_writeER16llama_io_write_iij
00000000001706c0 T _ZNK19llama_kv_cache_dsv413get_can_shiftEv
0000000000171d90 T _ZNK19llama_kv_cache_dsv413get_csa_stateEv
0000000000171d9c T _ZNK19llama_kv_cache_dsv413get_hca_stateEv
0000000000171da8 T _ZNK19llama_kv_cache_dsv413get_lid_stateEv
0000000000170b50 T _ZNK19llama_kv_cache_dsv416memory_breakdownEv
0000000000171d6c T _ZNK19llama_kv_cache_dsv47get_csaEv
0000000000171d78 T _ZNK19llama_kv_cache_dsv47get_hcaEv
0000000000171d84 T _ZNK19llama_kv_cache_dsv47get_lidEv
0000000000171d60 T _ZNK19llama_kv_cache_dsv47get_rawEv
0000000000168c04 T _ZNK19llama_kv_cache_iswa11seq_pos_maxEi
0000000000168bf4 T _ZNK19llama_kv_cache_iswa11seq_pos_minEi
000000000016961c T _ZNK19llama_kv_cache_iswa11state_writeER16llama_io_write_iij
00000000001695a8 T _ZNK19llama_kv_cache_iswa13get_can_shiftEv
0000000000168c14 T _ZNK19llama_kv_cache_iswa16memory_breakdownEv
00000000001689c8 T _ZNK19llama_kv_cache_iswa7get_swaEv
00000000001689c0 T _ZNK19llama_kv_cache_iswa8get_baseEv
000000000017d660 T _ZNK19llama_memory_hybrid11seq_pos_maxEi
000000000017d60c T _ZNK19llama_memory_hybrid11seq_pos_minEi
000000000017d890 T _ZNK19llama_memory_hybrid11state_writeER16llama_io_write_iij
000000000017d948 T _ZNK19llama_memory_hybrid12get_mem_attnEv
000000000017d950 T _ZNK19llama_memory_hybrid12get_mem_recrEv
000000000017d3d4 T _ZNK19llama_memory_hybrid13get_can_shiftEv
000000000017d6b4 T _ZNK19llama_memory_hybrid16memory_breakdownEv
0000000000208b80 T _ZNK19llama_model_apertus16build_arch_graphERK16llm_graph_params
000000000021240c T _ZNK19llama_model_chatglm16build_arch_graphERK16llm_graph_params
0000000000214544 T _ZNK19llama_model_cohere216build_arch_graphERK16llm_graph_params
000000000022ef1c T _ZNK19llama_model_exaone416build_arch_graphERK16llm_graph_params
0000000000235de4 T _ZNK19llama_model_gemma3n16build_arch_graphERK16llm_graph_params
000000000023c004 T _ZNK19llama_model_glm_dsa16build_arch_graphERK16llm_graph_params
000000000023f564 T _ZNK19llama_model_gptneox16build_arch_graphERK16llm_graph_params
00000000002427b0 T _ZNK19llama_model_granite16build_arch_graphERK16llm_graph_params
0000000000253bdc T _ZNK19llama_model_lfm2moe16build_arch_graphERK16llm_graph_params
000000000025e630 T _ZNK19llama_model_minicpm16build_arch_graphERK16llm_graph_params
000000000026ace4 T _ZNK19llama_model_openelm16build_arch_graphERK16llm_graph_params
0000000000276ba4 T _ZNK19llama_model_qwen2vl16build_arch_graphERK16llm_graph_params
00000000002817ec T _ZNK19llama_model_qwen3vl16build_arch_graphERK16llm_graph_params
000000000028b4a0 T _ZNK19llama_model_smollm316build_arch_graphERK16llm_graph_params
00000000001268e0 T _ZNK20llama_grammar_parser7c_rulesEv
000000000020c13c T _ZNK20llama_model_baichuan16build_arch_graphERK16llm_graph_params
00000000002197a8 T _ZNK20llama_model_deepseek16build_arch_graphERK16llm_graph_params
000000000022b7c8 T _ZNK20llama_model_ernie4_516build_arch_graphERK16llm_graph_params
000000000022c138 T _ZNK20llama_model_eurobert16build_arch_graphERK16llm_graph_params
000000000023cc34 T _ZNK20llama_model_glm4_moe16build_arch_graphERK16llm_graph_params
0000000000244c28 T _ZNK20llama_model_grovemoe16build_arch_graphERK16llm_graph_params
000000000025ede4 T _ZNK20llama_model_minicpm316build_arch_graphERK16llm_graph_params
0000000000260f78 T _ZNK20llama_model_mistral316build_arch_graphERK16llm_graph_params
000000000026169c T _ZNK20llama_model_mistral416build_arch_graphERK16llm_graph_params
0000000000264cdc T _ZNK20llama_model_nemotron16build_arch_graphERK16llm_graph_params
0000000000265720 T _ZNK20llama_model_neo_bert16build_arch_graphERK16llm_graph_params
0000000000276028 T _ZNK20llama_model_qwen2moe16build_arch_graphERK16llm_graph_params
000000000027e644 T _ZNK20llama_model_qwen3moe16build_arch_graphERK16llm_graph_params
000000000028973c T _ZNK20llama_model_seed_oss16build_arch_graphERK16llm_graph_params
000000000028c068 T _ZNK20llama_model_stablelm16build_arch_graphERK16llm_graph_params
0000000000259a7c T _ZNK20llm_build_mamba_base18build_mamba2_layerEP18llm_graph_input_rsP11ggml_tensorRK11llama_modelRK12llama_ubatchi
00000000002847dc T _ZNK20llm_build_rwkv6_base20build_rwkv6_time_mixEP18llm_graph_input_rsP11ggml_tensorS3_RK12llama_ubatchi
00000000002846ac T _ZNK20llm_build_rwkv6_base23build_rwkv6_channel_mixEPK11llama_layerP11ggml_tensorS4_8llm_arch
0000000000287608 T _ZNK20llm_build_rwkv7_base20build_rwkv7_time_mixEP18llm_graph_input_rsP11ggml_tensorS3_RS3_RK12llama_ubatchi
0000000000287548 T _ZNK20llm_build_rwkv7_base23build_rwkv7_channel_mixEPK11llama_layerP11ggml_tensorS4_8llm_arch
00000000001dfba8 W _ZNK20llm_tokenizer_plamo26encodeERKNSt6__ndk112basic_stringIcNS0_11char_traitsIcEENS0_9allocatorIcEEEE
000000000016c8f4 T _ZNK21llama_dsv4_comp_state10total_sizeEv
000000000016cf70 T _ZNK21llama_dsv4_comp_state11state_writeER16llama_io_write_iij
000000000016cd5c T _ZNK21llama_dsv4_comp_state12apply_copiesERKN14llama_kv_cache16stream_copy_infoE
000000000016ce20 T _ZNK21llama_dsv4_comp_state12get_n_streamEv
000000000016ce18 T _ZNK21llama_dsv4_comp_state14get_state_sizeEv
000000000016ce28 T _ZNK21llama_dsv4_comp_state16memory_breakdownEv
000000000016dad0 T _ZNK21llama_dsv4_comp_state6cpy_kvEP12ggml_contextP11ggml_tensorS3_i
000000000016d8a0 T _ZNK21llama_dsv4_comp_state6get_kvEP12ggml_contexti
000000000016db14 T _ZNK21llama_dsv4_comp_state9cpy_scoreEP12ggml_contextP11ggml_tensorS3_i
000000000016ce10 T _ZNK21llama_dsv4_comp_state9get_ratioEv
000000000016d9b8 T _ZNK21llama_dsv4_comp_state9get_scoreEP12ggml_contexti
00000000002117e0 T _ZNK21llama_model_chameleon16build_arch_graphERK16llm_graph_params
0000000000212f30 T _ZNK21llama_model_codeshell16build_arch_graphERK16llm_graph_params
0000000000217090 T _ZNK21llama_model_command_r16build_arch_graphERK16llm_graph_params
000000000021abf4 T _ZNK21llama_model_deepseek216build_arch_graphERK16llm_graph_params
000000000021fa30 T _ZNK21llama_model_deepseek416build_arch_graphERK16llm_graph_params
000000000021fe6c T _ZNK21llama_model_deepseek45graph12build_hc_preEP11ggml_tensorS2_S2_S2_PS2_S3_i
000000000021fa90 T _ZNK21llama_model_deepseek45graph12build_hc_preEP11ggml_tensorS2_i
00000000002205bc T _ZNK21llama_model_deepseek45graph13build_hc_headEP11ggml_tensorS2_S2_S2_
0000000000220348 T _ZNK21llama_model_deepseek45graph13build_hc_postEP11ggml_tensorS2_S2_S2_i
0000000000222594 T _ZNK21llama_model_deepseek45graph15build_attentionERK11llama_modelP20llm_graph_input_dsv4P11ggml_tensorS7_i
0000000000221218 T _ZNK21llama_model_deepseek45graph15build_lid_top_kERK11llama_modelP20llm_graph_input_dsv4P11ggml_tensorS7_S7_i
00000000002219cc T _ZNK21llama_model_deepseek45graph16build_top_k_maskEP11ggml_tensorS2_PKci
000000000021fc6c T _ZNK21llama_model_deepseek45graph17build_hc_sinkhornEP11ggml_tensori
0000000000221f4c T _ZNK21llama_model_deepseek45graph19build_hca_attentionEP20llm_graph_input_dsv4P24llm_graph_input_dsv4_rawP11ggml_tensorS6_S6_fi
0000000000222304 T _ZNK21llama_model_deepseek45graph19build_raw_attentionEP24llm_graph_input_dsv4_rawP11ggml_tensorS4_S4_fi
0000000000221b58 T _ZNK21llama_model_deepseek45graph23build_csa_lid_attentionERK11llama_modelP20llm_graph_input_dsv4P24llm_graph_input_dsv4_rawP11ggml_tensorS9_S9_S9_S9_S9_fi
00000000002206e0 T _ZNK21llama_model_deepseek45graph34build_hca_compressed_kv_from_stateEP11ggml_tensorS2_S2_S2_S2_lPKci
0000000000220b34 T _ZNK21llama_model_deepseek45graph38build_overlap_compressed_kv_from_stateEP11ggml_tensorS2_S2_S2_S2_llPKci
000000000023098c T _ZNK21llama_model_falcon_h116build_arch_graphERK16llm_graph_params
00000000002490b0 T _ZNK21llama_model_internlm216build_arch_graphERK16llm_graph_params
000000000025425c T _ZNK21llama_model_llada_moe16build_arch_graphERK16llm_graph_params
0000000000258c40 T _ZNK21llama_model_maincoder16build_arch_graphERK16llm_graph_params
000000000026be3c T _ZNK21llama_model_paddleocr16build_arch_graphERK16llm_graph_params
000000000027bcd0 T _ZNK21llama_model_qwen35moe16build_arch_graphERK16llm_graph_params
000000000027f86c T _ZNK21llama_model_qwen3next16build_arch_graphERK16llm_graph_params
000000000028cce8 T _ZNK21llama_model_starcoder16build_arch_graphERK16llm_graph_params
000000000029293c T _ZNK21llama_model_t5encoder16build_arch_graphERK16llm_graph_params
0000000000164774 T _ZNK22llama_kv_cache_context10get_statusEv
000000000016477c T _ZNK22llama_kv_cache_context10get_ubatchEv
0000000000164aa0 T _ZNK22llama_kv_cache_context15set_input_k_rotEP11ggml_tensor
0000000000164aa8 T _ZNK22llama_kv_cache_context15set_input_v_rotEP11ggml_tensor
0000000000164a60 T _ZNK22llama_kv_cache_context16set_input_k_idxsEP11ggml_tensorPK12llama_ubatch
0000000000164a78 T _ZNK22llama_kv_cache_context16set_input_v_idxsEP11ggml_tensorPK12llama_ubatch
00000000001648a0 T _ZNK22llama_kv_cache_context17build_input_k_rotEP12ggml_context
000000000016491c T _ZNK22llama_kv_cache_context17build_input_v_rotEP12ggml_context
000000000016497c T _ZNK22llama_kv_cache_context17set_input_k_shiftEP11ggml_tensor
0000000000164a90 T _ZNK22llama_kv_cache_context17set_input_kq_maskEP11ggml_tensorPK12llama_ubatchb
0000000000164814 T _ZNK22llama_kv_cache_context18build_input_k_idxsEP12ggml_contextRK12llama_ubatch
0000000000164848 T _ZNK22llama_kv_cache_context18build_input_v_idxsEP12ggml_contextRK12llama_ubatch
0000000000164a98 T _ZNK22llama_kv_cache_context20set_input_pos_bucketEP11ggml_tensorPK12llama_ubatch
0000000000164804 T _ZNK22llama_kv_cache_context5cpy_kEP12ggml_contextP11ggml_tensorS3_i
000000000016480c T _ZNK22llama_kv_cache_context5cpy_vEP12ggml_contextP11ggml_tensorS3_i
00000000001647c4 T _ZNK22llama_kv_cache_context5get_kEP12ggml_contexti
00000000001647e4 T _ZNK22llama_kv_cache_context5get_vEP12ggml_contexti
000000000016479c T _ZNK22llama_kv_cache_context6type_kEv
00000000001647b0 T _ZNK22llama_kv_cache_context6type_vEv
0000000000164794 T _ZNK22llama_kv_cache_context8get_n_kvEv
0000000000182f48 T _ZNK22llama_memory_recurrent10total_sizeEv
0000000000181a0c T _ZNK22llama_memory_recurrent11seq_pos_maxEi
0000000000181980 T _ZNK22llama_memory_recurrent11seq_pos_minEi
0000000000182fac T _ZNK22llama_memory_recurrent11state_writeER16llama_io_write_iij
0000000000180e54 T _ZNK22llama_memory_recurrent12size_r_bytesEv
0000000000180eb0 T _ZNK22llama_memory_recurrent12size_s_bytesEv
0000000000182f40 T _ZNK22llama_memory_recurrent13get_can_shiftEv
0000000000181a8c T _ZNK22llama_memory_recurrent16memory_breakdownEv
0000000000183b8c T _ZNK22llama_memory_recurrent16state_write_dataER16llama_io_write_iRKNSt6__ndk16vectorINS2_4pairIjjEENS2_9allocatorIS5_EEEE
0000000000183a0c T _ZNK22llama_memory_recurrent16state_write_metaER16llama_io_write_iRKNSt6__ndk16vectorINS2_4pairIjjEENS2_9allocatorIS5_EEEEi
000000000020cde0 T _ZNK22llama_model_bailingmoe16build_arch_graphERK16llm_graph_params
0000000000215ad0 T _ZNK22llama_model_cohere2moe16build_arch_graphERK16llm_graph_params
000000000021d574 T _ZNK22llama_model_deepseek3216build_arch_graphERK16llm_graph_params
000000000022d2c8 T _ZNK22llama_model_exaone_moe16build_arch_graphERK16llm_graph_params
0000000000246708 T _ZNK22llama_model_hunyuan_vl16build_arch_graphERK16llm_graph_params
000000000025ff0c T _ZNK22llama_model_minimax_m216build_arch_graphERK16llm_graph_params
0000000000264008 T _ZNK22llama_model_nemotron_h16build_arch_graphERK16llm_graph_params
000000000026709c T _ZNK22llama_model_nomic_bert16build_arch_graphERK16llm_graph_params
000000000026a214 T _ZNK22llama_model_openai_moe16build_arch_graphERK16llm_graph_params
0000000000282540 T _ZNK22llama_model_qwen3vlmoe16build_arch_graphERK16llm_graph_params
0000000000286fc4 T _ZNK22llama_model_rwkv6qwen216build_arch_graphERK16llm_graph_params
000000000028d84c T _ZNK22llama_model_starcoder216build_arch_graphERK16llm_graph_params
000000000020decc T _ZNK23llama_model_bailingmoe216build_arch_graphERK16llm_graph_params
0000000000241be4 T _ZNK23llama_model_granite_moe16build_arch_graphERK16llm_graph_params
0000000000245a8c T _ZNK23llama_model_hunyuan_moe16build_arch_graphERK16llm_graph_params
000000000024e0a0 T _ZNK23llama_model_kimi_linear16build_arch_graphERK16llm_graph_params
00000000002554c0 T _ZNK23llama_model_llama_embed16build_arch_graphERK16llm_graph_params
0000000000261f1c T _ZNK23llama_model_modern_bert16build_arch_graphERK16llm_graph_params
000000000026c9d8 T _ZNK23llama_model_pangu_embed16build_arch_graphERK16llm_graph_params
000000000017f40c T _ZNK24llama_memory_hybrid_iswa11seq_pos_maxEi
000000000017f3b8 T _ZNK24llama_memory_hybrid_iswa11seq_pos_minEi
000000000017f63c T _ZNK24llama_memory_hybrid_iswa11state_writeER16llama_io_write_iij
000000000017f6ec T _ZNK24llama_memory_hybrid_iswa12get_mem_attnEv
000000000017f6f4 T _ZNK24llama_memory_hybrid_iswa12get_mem_recrEv
000000000017f180 T _ZNK24llama_memory_hybrid_iswa13get_can_shiftEv
000000000017f460 T _ZNK24llama_memory_hybrid_iswa16memory_breakdownEv
000000000021c550 T _ZNK24llama_model_deepseek2ocr16build_arch_graphERK16llm_graph_params
000000000022a834 T _ZNK24llama_model_ernie4_5_moe16build_arch_graphERK16llm_graph_params
000000000024c668 T _ZNK24llama_model_jina_bert_v216build_arch_graphERK16llm_graph_params
000000000024d084 T _ZNK24llama_model_jina_bert_v316build_arch_graphERK16llm_graph_params
000000000028a39c T _ZNK24llama_model_smallthinker16build_arch_graphERK16llm_graph_params
0000000000245378 T _ZNK25llama_model_hunyuan_dense16build_arch_graphERK16llm_graph_params
00000000001d9960 W _ZNK25llm_tokenizer_bpe_session10append_bosERNSt6__ndk16vectorIiNS0_9allocatorIiEEEE
00000000001d9a88 W _ZNK25llm_tokenizer_bpe_session10append_eosERNSt6__ndk16vectorIiNS0_9allocatorIiEEEE
000000000016bcdc T _ZNK26llama_kv_cache_dsa_context10get_statusEv
000000000016bce4 T _ZNK26llama_kv_cache_dsa_context10get_ubatchEv
000000000016bcfc T _ZNK26llama_kv_cache_dsa_context7get_lidEv
000000000016bcf4 T _ZNK26llama_kv_cache_dsa_context7get_mlaEv
00000000002409e0 T _ZNK26llama_model_granite_hybrid16build_arch_graphERK16llm_graph_params
000000000026330c T _ZNK26llama_model_nemotron_h_moe16build_arch_graphERK16llm_graph_params
0000000000266628 T _ZNK26llama_model_nomic_bert_moe16build_arch_graphERK16llm_graph_params
00000000001777a4 T _ZNK27llama_kv_cache_dsv4_context10get_statusEv
00000000001777ac T _ZNK27llama_kv_cache_dsv4_context10get_ubatchEv
0000000000177a34 T _ZNK27llama_kv_cache_dsv4_context12get_csa_planERK12llama_ubatch
00000000001777f4 T _ZNK27llama_kv_cache_dsv4_context12get_csa_planEv
0000000000177fa4 T _ZNK27llama_kv_cache_dsv4_context12get_hca_planERK12llama_ubatch
00000000001778b4 T _ZNK27llama_kv_cache_dsv4_context12get_hca_planEv
00000000001780dc T _ZNK27llama_kv_cache_dsv4_context12get_lid_planERK12llama_ubatch
0000000000177974 T _ZNK27llama_kv_cache_dsv4_context12get_lid_planEv
00000000001777dc T _ZNK27llama_kv_cache_dsv4_context13get_csa_stateEv
00000000001777e4 T _ZNK27llama_kv_cache_dsv4_context13get_hca_stateEv
00000000001777ec T _ZNK27llama_kv_cache_dsv4_context13get_lid_stateEv
00000000001777c4 T _ZNK27llama_kv_cache_dsv4_context7get_csaEv
00000000001777cc T _ZNK27llama_kv_cache_dsv4_context7get_hcaEv
00000000001777d4 T _ZNK27llama_kv_cache_dsv4_context7get_lidEv
00000000001777bc T _ZNK27llama_kv_cache_dsv4_context7get_rawEv
000000000016a004 T _ZNK27llama_kv_cache_iswa_context10get_statusEv
000000000016a00c T _ZNK27llama_kv_cache_iswa_context10get_ubatchEv
000000000016a024 T _ZNK27llama_kv_cache_iswa_context7get_swaEv
000000000016a01c T _ZNK27llama_kv_cache_iswa_context8get_baseEv
000000000017e13c T _ZNK27llama_memory_hybrid_context10get_statusEv
000000000017e144 T _ZNK27llama_memory_hybrid_context10get_ubatchEv
000000000017e154 T _ZNK27llama_memory_hybrid_context8get_attnEv
000000000017e15c T _ZNK27llama_memory_hybrid_context8get_recrEv
00000000002321ec T _ZNK27llama_model_gemma_embedding16build_arch_graphERK16llm_graph_params
00000000002383b4 T _ZNK28llama_model_gemma4_assistant16build_arch_graphERK16llm_graph_params
00000000002941e8 T _ZNK28llama_model_wavtokenizer_dec16build_arch_graphERK16llm_graph_params
0000000000121984 T _ZNK29llama_grammar_trigger_pattern4findERKNSt6__ndk112basic_stringIcNS0_11char_traitsIcEENS0_9allocatorIcEEEE
0000000000184c28 T _ZNK30llama_memory_recurrent_context10get_statusEv
0000000000184c30 T _ZNK30llama_memory_recurrent_context10get_ubatchEv
0000000000184cc4 T _ZNK30llama_memory_recurrent_context6s_copyEi
0000000000184ca4 T _ZNK30llama_memory_recurrent_context7get_r_lEi
0000000000184cb4 T _ZNK30llama_memory_recurrent_context7get_s_lEi
0000000000184c60 T _ZNK30llama_memory_recurrent_context8get_headEv
0000000000184c40 T _ZNK30llama_memory_recurrent_context8get_n_rsEv
0000000000184c7c T _ZNK30llama_memory_recurrent_context8get_rs_zEv
0000000000184c98 T _ZNK30llama_memory_recurrent_context8get_sizeEv
0000000000172960 T _ZNK31llama_kv_cache_dsv4_raw_context10get_statusEv
0000000000172968 T _ZNK31llama_kv_cache_dsv4_raw_context10get_ubatchEv
0000000000172988 T _ZNK31llama_kv_cache_dsv4_raw_context11get_n_writeEv
0000000000172ccc T _ZNK31llama_kv_cache_dsv4_raw_context15set_input_k_rotEP11ggml_tensor
0000000000172c9c T _ZNK31llama_kv_cache_dsv4_raw_context16set_input_k_idxsEP11ggml_tensor
0000000000172c94 T _ZNK31llama_kv_cache_dsv4_raw_context17build_input_k_rotEP12ggml_context
0000000000172cc4 T _ZNK31llama_kv_cache_dsv4_raw_context17set_input_kq_maskEP11ggml_tensorPK12llama_ubatchb
0000000000172c48 T _ZNK31llama_kv_cache_dsv4_raw_context18build_input_k_idxsEP12ggml_contextRK12llama_ubatch
00000000001729d0 T _ZNK31llama_kv_cache_dsv4_raw_context5cpy_kEP12ggml_contextP11ggml_tensorS3_i
00000000001729b0 T _ZNK31llama_kv_cache_dsv4_raw_context5get_kEP12ggml_contexti
0000000000172980 T _ZNK31llama_kv_cache_dsv4_raw_context8get_n_kvEv
0000000000173114 T _ZNK32llama_kv_cache_dsv4_comp_context15set_input_k_rotEP11ggml_tensor
000000000017310c T _ZNK32llama_kv_cache_dsv4_comp_context17build_input_k_rotEP12ggml_context
00000000001730f4 T _ZNK32llama_kv_cache_dsv4_comp_context5cpy_kEP12ggml_contextP11ggml_tensorS3_i
00000000001730d4 T _ZNK32llama_kv_cache_dsv4_comp_context5get_kEP12ggml_contexti
00000000001730cc T _ZNK32llama_kv_cache_dsv4_comp_context8get_n_kvEv
000000000017ff20 T _ZNK32llama_memory_hybrid_iswa_context10get_statusEv
000000000017ff28 T _ZNK32llama_memory_hybrid_iswa_context10get_ubatchEv
000000000017ff38 T _ZNK32llama_memory_hybrid_iswa_context8get_attnEv
000000000017ff40 T _ZNK32llama_memory_hybrid_iswa_context8get_recrEv
0000000000101414 T _ZNK6LLM_KVclE6llm_kv
000000000012dfc8 W _ZNKSt6__ndk111basic_regexIcNS_12regex_traitsIcEEE21__match_at_start_ecmaINS_9allocatorINS_9sub_matchIPKcEEEEEEbS8_S8_RNS_13match_resultsIS8_T_EENS_15regex_constants15match_flag_typeEb
000000000012edd4 W _ZNKSt6__ndk111basic_regexIcNS_12regex_traitsIcEEE27__match_at_start_posix_subsINS_9allocatorINS_9sub_matchIPKcEEEEEEbS8_S8_RNS_13match_resultsIS8_T_EENS_15regex_constants15match_flag_typeEb
000000000012e490 W _ZNKSt6__ndk111basic_regexIcNS_12regex_traitsIcEEE29__match_at_start_posix_nosubsINS_9allocatorINS_9sub_matchIPKcEEEEEEbS8_S8_RNS_13match_resultsIS8_T_EENS_15regex_constants15match_flag_typeEb
000000000012d960 W _ZNKSt6__ndk111basic_regexIcNS_12regex_traitsIcEEE8__searchINS_9allocatorINS_9sub_matchIPKcEEEEEEbS8_S8_RNS_13match_resultsIS8_T_EENS_15regex_constants15match_flag_typeE
00000000001fcb2c W _ZNKSt6__ndk111basic_regexIwNS_12regex_traitsIwEEE21__match_at_start_ecmaINS_9allocatorINS_9sub_matchIPKwEEEEEEbS8_S8_RNS_13match_resultsIS8_T_EENS_15regex_constants15match_flag_typeEb
000000000020552c W _ZNKSt6__ndk111basic_regexIwNS_12regex_traitsIwEEE27__match_at_start_posix_subsINS_9allocatorINS_9sub_matchIPKwEEEEEEbS8_S8_RNS_13match_resultsIS8_T_EENS_15regex_constants15match_flag_typeEb
0000000000204bd4 W _ZNKSt6__ndk111basic_regexIwNS_12regex_traitsIwEEE29__match_at_start_posix_nosubsINS_9allocatorINS_9sub_matchIPKwEEEEEEbS8_S8_RNS_13match_resultsIS8_T_EENS_15regex_constants15match_flag_typeEb
0000000000204740 W _ZNKSt6__ndk111basic_regexIwNS_12regex_traitsIwEEE8__searchINS_9allocatorINS_9sub_matchIPKwEEEEEEbS8_S8_RNS_13match_resultsIS8_T_EENS_15regex_constants15match_flag_typeE
00000000001bfa74 W _ZNKSt6__ndk112__hash_tableINS_17__hash_value_typeINS_12basic_stringIcNS_11char_traitsIcEENS_9allocatorIcEEEENS_6vectorIfNS5_IfEEEEEENS_22__unordered_map_hasherIS7_SB_NS_4hashIS7_EENS_8equal_toIS7_EELb1EEENS_21__unordered_map_equalIS7_SB_SG_SE_Lb1EEENS5_ISB_EEE4findIS7_EENS_21__hash_const_iteratorIPNS_11__hash_nodeISB_PvEEEERKT_
0000000000100b54 W _ZNKSt6__ndk112__hash_tableINS_17__hash_value_typeINS_12basic_stringIcNS_11char_traitsIcEENS_9allocatorIcEEEES7_EENS_22__unordered_map_hasherIS7_S8_NS_4hashIS7_EENS_8equal_toIS7_EELb1EEENS_21__unordered_map_equalIS7_S8_SD_SB_Lb1EEENS5_IS8_EEE4findIS7_EENS_21__hash_const_iteratorIPNS_11__hash_nodeIS8_PvEEEERKT_
00000000001e3124 W _ZNKSt6__ndk112__hash_tableINS_17__hash_value_typeINS_12basic_stringIcNS_11char_traitsIcEENS_9allocatorIcEEEEiEENS_22__unordered_map_hasherIS7_S8_NS_4hashIS7_EENS_8equal_toIS7_EELb1EEENS_21__unordered_map_equalIS7_S8_SD_SB_Lb1EEENS5_IS8_EEE4findIS7_EENS_21__hash_const_iteratorIPNS_11__hash_nodeIS8_PvEEEERKT_
00000000001385c8 W _ZNKSt6__ndk112regex_traitsIcE18__lookup_classnameINS_11__wrap_iterIPKcEEEEtT_S7_bc
0000000000196204 W _ZNKSt6__ndk112regex_traitsIcE18__lookup_classnameIPKcEEtT_S5_bc
000000000013817c W _ZNKSt6__ndk112regex_traitsIcE19__transform_primaryINS_11__wrap_iterIPcEEEENS_12basic_stringIcNS_11char_traitsIcEENS_9allocatorIcEEEET_SC_c
000000000013680c W _ZNKSt6__ndk112regex_traitsIcE19__transform_primaryIPcEENS_12basic_stringIcNS_11char_traitsIcEENS_9allocatorIcEEEET_SA_c
0000000000137ef0 W _ZNKSt6__ndk112regex_traitsIcE20__lookup_collatenameINS_11__wrap_iterIPKcEEEENS_12basic_stringIcNS_11char_traitsIcEENS_9allocatorIcEEEET_SD_c
0000000000195f78 W _ZNKSt6__ndk112regex_traitsIcE20__lookup_collatenameIPKcEENS_12basic_stringIcNS_11char_traitsIcEENS_9allocatorIcEEEET_SB_c
0000000000136580 W _ZNKSt6__ndk112regex_traitsIcE20__lookup_collatenameIPcEENS_12basic_stringIcNS_11char_traitsIcEENS_9allocatorIcEEEET_SA_c
0000000000138a34 W _ZNKSt6__ndk112regex_traitsIcE9transformINS_11__wrap_iterIPcEEEENS_12basic_stringIcNS_11char_traitsIcEENS_9allocatorIcEEEET_SC_
0000000000136410 W _ZNKSt6__ndk112regex_traitsIcE9transformIPcEENS_12basic_stringIcNS_11char_traitsIcEENS_9allocatorIcEEEET_SA_
00000000002029b0 W _ZNKSt6__ndk112regex_traitsIwE18__lookup_classnameINS_11__wrap_iterIPKwEEEEtT_S7_bw
00000000002024e4 W _ZNKSt6__ndk112regex_traitsIwE19__transform_primaryINS_11__wrap_iterIPwEEEENS_12basic_stringIwNS_11char_traitsIwEENS_9allocatorIwEEEET_SC_w
0000000000200594 W _ZNKSt6__ndk112regex_traitsIwE19__transform_primaryIPwEENS_12basic_stringIwNS_11char_traitsIwEENS_9allocatorIwEEEET_SA_w
0000000000202014 W _ZNKSt6__ndk112regex_traitsIwE20__lookup_collatenameINS_11__wrap_iterIPKwEEEENS_12basic_stringIwNS_11char_traitsIwEENS_9allocatorIwEEEET_SD_w
00000000002000c4 W _ZNKSt6__ndk112regex_traitsIwE20__lookup_collatenameIPwEENS_12basic_stringIwNS_11char_traitsIwEENS_9allocatorIwEEEET_SA_w
0000000000202f60 W _ZNKSt6__ndk112regex_traitsIwE9transformINS_11__wrap_iterIPwEEEENS_12basic_stringIwNS_11char_traitsIwEENS_9allocatorIwEEEET_SC_
00000000001fff3c W _ZNKSt6__ndk112regex_traitsIwE9transformIPwEENS_12basic_stringIwNS_11char_traitsIwEENS_9allocatorIwEEEET_SA_
00000000001cccd8 W _ZNKSt6__ndk113match_resultsIPKcNS_9allocatorINS_9sub_matchIS2_EEEEE6formatINS_20back_insert_iteratorINS_12basic_stringIcNS_11char_traitsIcEENS3_IcEEEEEEEET_SG_S2_S2_NS_15regex_constants15match_flag_typeE
0000000000295d2c T _ZNKSt6__ndk113random_device7entropyEv
0000000000295f90 T _ZNKSt6__ndk123__match_any_but_newlineIcE6__execERNS_7__stateIcEE
0000000000295fe0 T _ZNKSt6__ndk123__match_any_but_newlineIwE6__execERNS_7__stateIwEE
00000000001b3bbc W _ZNKSt6__ndk16__treeINS_12__value_typeINS_12basic_stringIcNS_11char_traitsIcEENS_9allocatorIcEEEE15llm_ffn_op_typeEENS_19__map_value_compareIS7_S9_NS_4lessIS7_EELb1EEENS5_IS9_EEE4findIS7_EENS_21__tree_const_iteratorIS9_PNS_11__tree_nodeIS9_PvEElEERKT_
00000000001fa4bc W _ZNKSt6__ndk16__treeINS_12__value_typeINS_12basic_stringIcNS_11char_traitsIcEENS_9allocatorIcEEEEiEENS_19__map_value_compareIS7_S8_NS_4lessIS7_EELb1EEENS5_IS8_EEE4findIS7_EENS_21__tree_const_iteratorIS8_PNS_11__tree_nodeIS8_PvEElEERKT_
00000000001353ec W _ZNSt6__ndk110__back_refIcED0Ev
00000000001fed08 W _ZNSt6__ndk110__back_refIwED0Ev
000000000014b748 W _ZNSt6__ndk110__function6__funcIPFP11ggml_tensorP12ggml_contextS3_S3_ENS_9allocatorIS7_EES6_ED0Ev
00000000001394b8 W _ZNSt6__ndk111__alternateIcED0Ev
0000000000203918 W _ZNSt6__ndk111__alternateIwED0Ev
0000000000132d50 W _ZNSt6__ndk111__end_stateIcED0Ev
00000000001fb670 W _ZNSt6__ndk111__end_stateIwED0Ev
00000000001e6a7c W _ZNSt6__ndk111__introsortINS_17_ClassicAlgPolicyERZN20llm_tokenizer_plamo25buildERK11llama_vocabEUlRKNS_12basic_stringIcNS_11char_traitsIcEENS_9allocatorIcEEEESD_E_PSB_Lb0EEEvT1_SH_T0_NS_15iterator_traitsISH_E15difference_typeEb
0000000000133ec4 W _ZNSt6__ndk111__lookaheadIcNS_12regex_traitsIcEEED0Ev
0000000000133e34 W _ZNSt6__ndk111__lookaheadIcNS_12regex_traitsIcEEED2Ev
00000000001fc8d4 W _ZNSt6__ndk111__lookaheadIwNS_12regex_traitsIwEEED0Ev
00000000001fc844 W _ZNSt6__ndk111__lookaheadIwNS_12regex_traitsIwEEED2Ev
0000000000139d8c W _ZNSt6__ndk111__match_anyIcED0Ev
0000000000204250 W _ZNSt6__ndk111__match_anyIwED0Ev
0000000000134bac W _ZNSt6__ndk111basic_regexIcNS_12regex_traitsIcEEE11__push_charEc
0000000000138f24 W _ZNSt6__ndk111basic_regexIcNS_12regex_traitsIcEEE11__push_loopEmmPNS_16__owns_one_stateIcEEmmb
0000000000133170 W _ZNSt6__ndk111basic_regexIcNS_12regex_traitsIcEEE12__parse_atomINS_11__wrap_iterIPKcEEEET_S9_S9_
0000000000193ebc W _ZNSt6__ndk111basic_regexIcNS_12regex_traitsIcEEE12__parse_atomIPKcEET_S7_S7_
00000000001329bc W _ZNSt6__ndk111basic_regexIcNS_12regex_traitsIcEEE12__parse_grepINS_11__wrap_iterIPKcEEEET_S9_S9_
0000000000193700 W _ZNSt6__ndk111basic_regexIcNS_12regex_traitsIcEEE12__parse_grepIPKcEET_S7_S7_
0000000000193ae8 W _ZNSt6__ndk111basic_regexIcNS_12regex_traitsIcEEE12__parse_termIPKcEET_S7_S7_
0000000000132b60 W _ZNSt6__ndk111basic_regexIcNS_12regex_traitsIcEEE13__parse_egrepINS_11__wrap_iterIPKcEEEET_S9_S9_
00000000001938a4 W _ZNSt6__ndk111basic_regexIcNS_12regex_traitsIcEEE13__parse_egrepIPKcEET_S7_S7_
0000000000134d58 W _ZNSt6__ndk111basic_regexIcNS_12regex_traitsIcEEE15__push_back_refEi
0000000000139e18 W _ZNSt6__ndk111basic_regexIcNS_12regex_traitsIcEEE15__test_back_refEc
000000000013247c W _ZNSt6__ndk111basic_regexIcNS_12regex_traitsIcEEE16__parse_ecma_expINS_11__wrap_iterIPKcEEEET_S9_S9_
0000000000193274 W _ZNSt6__ndk111basic_regexIcNS_12regex_traitsIcEEE16__parse_ecma_expIPKcEET_S7_S7_
0000000000133a14 W _ZNSt6__ndk111basic_regexIcNS_12regex_traitsIcEEE16__push_lookaheadERKS3_bj
0000000000132e7c W _ZNSt6__ndk111basic_regexIcNS_12regex_traitsIcEEE17__parse_assertionINS_11__wrap_iterIPKcEEEET_S9_S9_
0000000000193b7c W _ZNSt6__ndk111basic_regexIcNS_12regex_traitsIcEEE17__parse_assertionIPKcEET_S7_S7_
0000000000137554 W _ZNSt6__ndk111basic_regexIcNS_12regex_traitsIcEEE18__parse_awk_escapeINS_11__wrap_iterIPKcEEEET_S9_S9_PNS_12basic_stringIcNS_11char_traitsIcEENS_9allocatorIcEEEE
0000000000195ca4 W _ZNSt6__ndk111basic_regexIcNS_12regex_traitsIcEEE18__parse_awk_escapeIPKcEET_S7_S7_PNS_12basic_stringIcNS_11char_traitsIcEENS_9allocatorIcEEEE
00000000001395c0 W _ZNSt6__ndk111basic_regexIcNS_12regex_traitsIcEEE18__parse_nondupl_REINS_11__wrap_iterIPKcEEEET_S9_S9_
0000000000196398 W _ZNSt6__ndk111basic_regexIcNS_12regex_traitsIcEEE18__parse_nondupl_REIPKcEET_S7_S7_
0000000000193a48 W _ZNSt6__ndk111basic_regexIcNS_12regex_traitsIcEEE19__parse_alternativeIPKcEET_S7_S7_
000000000013411c W _ZNSt6__ndk111basic_regexIcNS_12regex_traitsIcEEE19__parse_atom_escapeINS_11__wrap_iterIPKcEEEET_S9_S9_
0000000000194744 W _ZNSt6__ndk111basic_regexIcNS_12regex_traitsIcEEE19__parse_atom_escapeIPKcEET_S7_S7_
00000000001373d4 W _ZNSt6__ndk111basic_regexIcNS_12regex_traitsIcEEE20__parse_class_escapeINS_11__wrap_iterIPKcEEEET_S9_S9_RNS_12basic_stringIcNS_11char_traitsIcEENS_9allocatorIcEEEEPNS_20__bracket_expressionIcS2_EE
0000000000195b28 W _ZNSt6__ndk111basic_regexIcNS_12regex_traitsIcEEE20__parse_class_escapeIPKcEET_S7_S7_RNS_12basic_stringIcNS_11char_traitsIcEENS_9allocatorIcEEEEPNS_20__bracket_expressionIcS2_EE
00000000001339a8 W _ZNSt6__ndk111basic_regexIcNS_12regex_traitsIcEEE20__push_word_boundaryEb
00000000001326cc W _ZNSt6__ndk111basic_regexIcNS_12regex_traitsIcEEE21__parse_basic_reg_expINS_11__wrap_iterIPKcEEEET_S9_S9_
0000000000193428 W _ZNSt6__ndk111basic_regexIcNS_12regex_traitsIcEEE21__parse_basic_reg_expIPKcEET_S7_S7_
0000000000139e78 W _ZNSt6__ndk111basic_regexIcNS_12regex_traitsIcEEE22__parse_ERE_expressionINS_11__wrap_iterIPKcEEEET_S9_S9_
0000000000196a7c W _ZNSt6__ndk111basic_regexIcNS_12regex_traitsIcEEE22__parse_ERE_expressionIPKcEET_S7_S7_
00000000001397e4 W _ZNSt6__ndk111basic_regexIcNS_12regex_traitsIcEEE22__parse_RE_dupl_symbolINS_11__wrap_iterIPKcEEEET_S9_S9_PNS_16__owns_one_stateIcEEjj
0000000000196690 W _ZNSt6__ndk111basic_regexIcNS_12regex_traitsIcEEE22__parse_RE_dupl_symbolIPKcEET_S7_S7_PNS_16__owns_one_stateIcEEjj
00000000001333d8 W _ZNSt6__ndk111basic_regexIcNS_12regex_traitsIcEEE23__parse_ERE_dupl_symbolINS_11__wrap_iterIPKcEEEET_S9_S9_PNS_16__owns_one_stateIcEEjj
00000000001940ec W _ZNSt6__ndk111basic_regexIcNS_12regex_traitsIcEEE23__parse_ERE_dupl_symbolIPKcEET_S7_S7_PNS_16__owns_one_stateIcEEjj
000000000013a184 W _ZNSt6__ndk111basic_regexIcNS_12regex_traitsIcEEE23__parse_QUOTED_CHAR_EREINS_11__wrap_iterIPKcEEEET_S9_S9_
0000000000196d90 W _ZNSt6__ndk111basic_regexIcNS_12regex_traitsIcEEE23__parse_QUOTED_CHAR_EREIPKcEET_S7_S7_
00000000001371f4 W _ZNSt6__ndk111basic_regexIcNS_12regex_traitsIcEEE23__parse_character_classINS_11__wrap_iterIPKcEEEET_S9_S9_PNS_20__bracket_expressionIcS2_EE
0000000000136a40 W _ZNSt6__ndk111basic_regexIcNS_12regex_traitsIcEEE23__parse_expression_termINS_11__wrap_iterIPKcEEEET_S9_S9_PNS_20__bracket_expressionIcS2_EE
0000000000195130 W _ZNSt6__ndk111basic_regexIcNS_12regex_traitsIcEEE23__parse_expression_termIPKcEET_S7_S7_PNS_20__bracket_expressionIcS2_EE
00000000001347a0 W _ZNSt6__ndk111basic_regexIcNS_12regex_traitsIcEEE24__parse_character_escapeINS_11__wrap_iterIPKcEEEET_S9_S9_PNS_12basic_stringIcNS_11char_traitsIcEENS_9allocatorIcEEEE
0000000000194d18 W _ZNSt6__ndk111basic_regexIcNS_12regex_traitsIcEEE24__parse_character_escapeIPKcEET_S7_S7_PNS_12basic_stringIcNS_11char_traitsIcEENS_9allocatorIcEEEE
00000000001372a4 W _ZNSt6__ndk111basic_regexIcNS_12regex_traitsIcEEE24__parse_collating_symbolINS_11__wrap_iterIPKcEEEET_S9_S9_RNS_12basic_stringIcNS_11char_traitsIcEENS_9allocatorIcEEEE
0000000000195a08 W _ZNSt6__ndk111basic_regexIcNS_12regex_traitsIcEEE24__parse_collating_symbolIPKcEET_S7_S7_RNS_12basic_stringIcNS_11char_traitsIcEENS_9allocatorIcEEEE
0000000000132854 W _ZNSt6__ndk111basic_regexIcNS_12regex_traitsIcEEE24__parse_extended_reg_expINS_11__wrap_iterIPKcEEEET_S9_S9_
00000000001935a0 W _ZNSt6__ndk111basic_regexIcNS_12regex_traitsIcEEE24__parse_extended_reg_expIPKcEET_S7_S7_
0000000000136eec W _ZNSt6__ndk111basic_regexIcNS_12regex_traitsIcEEE25__parse_equivalence_classINS_11__wrap_iterIPKcEEEET_S9_S9_PNS_20__bracket_expressionIcS2_EE
000000000019571c W _ZNSt6__ndk111basic_regexIcNS_12regex_traitsIcEEE25__parse_equivalence_classIPKcEET_S7_S7_PNS_20__bracket_expressionIcS2_EE
0000000000134420 W _ZNSt6__ndk111basic_regexIcNS_12regex_traitsIcEEE25__parse_pattern_characterINS_11__wrap_iterIPKcEEEET_S9_S9_
0000000000194a30 W _ZNSt6__ndk111basic_regexIcNS_12regex_traitsIcEEE25__parse_pattern_characterIPKcEET_S7_S7_
0000000000134278 W _ZNSt6__ndk111basic_regexIcNS_12regex_traitsIcEEE26__parse_bracket_expressionINS_11__wrap_iterIPKcEEEET_S9_S9_
00000000001948cc W _ZNSt6__ndk111basic_regexIcNS_12regex_traitsIcEEE26__parse_bracket_expressionIPKcEET_S7_S7_
0000000000134530 W _ZNSt6__ndk111basic_regexIcNS_12regex_traitsIcEEE30__parse_character_class_escapeINS_11__wrap_iterIPKcEEEET_S9_S9_
0000000000194aa8 W _ZNSt6__ndk111basic_regexIcNS_12regex_traitsIcEEE30__parse_character_class_escapeIPKcEET_S7_S7_
0000000000139bec W _ZNSt6__ndk111basic_regexIcNS_12regex_traitsIcEEE32__parse_one_char_or_coll_elem_REINS_11__wrap_iterIPKcEEEET_S9_S9_
000000000013a054 W _ZNSt6__ndk111basic_regexIcNS_12regex_traitsIcEEE33__parse_one_char_or_coll_elem_EREINS_11__wrap_iterIPKcEEEET_S9_S9_
0000000000196c58 W _ZNSt6__ndk111basic_regexIcNS_12regex_traitsIcEEE33__parse_one_char_or_coll_elem_EREIPKcEET_S7_S7_
0000000000132248 W _ZNSt6__ndk111basic_regexIcNS_12regex_traitsIcEEE7__parseINS_11__wrap_iterIPKcEEEET_S9_S9_
0000000000192f44 W _ZNSt6__ndk111basic_regexIcNS_12regex_traitsIcEEE7__parseIPKcEET_S7_S7_
000000000012a6a4 W _ZNSt6__ndk111basic_regexIcNS_12regex_traitsIcEEEC2B8ne210000INS_11char_traitsIcEENS_9allocatorIcEEEERKNS_12basic_stringIcT_T0_EENS_15regex_constants18syntax_option_typeE
000000000012a774 W _ZNSt6__ndk111basic_regexIcNS_12regex_traitsIcEEED2Ev
00000000001fe518 W _ZNSt6__ndk111basic_regexIwNS_12regex_traitsIwEEE11__push_charEw
000000000020341c W _ZNSt6__ndk111basic_regexIwNS_12regex_traitsIwEEE11__push_loopEmmPNS_16__owns_one_stateIwEEmmb
00000000001fba90 W _ZNSt6__ndk111basic_regexIwNS_12regex_traitsIwEEE12__parse_atomINS_11__wrap_iterIPKwEEEET_S9_S9_
00000000001fb2f8 W _ZNSt6__ndk111basic_regexIwNS_12regex_traitsIwEEE12__parse_grepINS_11__wrap_iterIPKwEEEET_S9_S9_
00000000001fb4b4 W _ZNSt6__ndk111basic_regexIwNS_12regex_traitsIwEEE13__parse_egrepINS_11__wrap_iterIPKwEEEET_S9_S9_
00000000001fe678 W _ZNSt6__ndk111basic_regexIwNS_12regex_traitsIwEEE15__push_back_refEi
00000000002042dc W _ZNSt6__ndk111basic_regexIwNS_12regex_traitsIwEEE15__test_back_refEw
00000000001fadb8 W _ZNSt6__ndk111basic_regexIwNS_12regex_traitsIwEEE16__parse_ecma_expINS_11__wrap_iterIPKwEEEET_S9_S9_
00000000001fc458 W _ZNSt6__ndk111basic_regexIwNS_12regex_traitsIwEEE16__push_lookaheadERKS3_bj
00000000001fb79c W _ZNSt6__ndk111basic_regexIwNS_12regex_traitsIwEEE17__parse_assertionINS_11__wrap_iterIPKwEEEET_S9_S9_
00000000002012f4 W _ZNSt6__ndk111basic_regexIwNS_12regex_traitsIwEEE18__parse_awk_escapeINS_11__wrap_iterIPKwEEEET_S9_S9_PNS_12basic_stringIwNS_11char_traitsIwEENS_9allocatorIwEEEE
00000000002039d4 W _ZNSt6__ndk111basic_regexIwNS_12regex_traitsIwEEE18__parse_nondupl_REINS_11__wrap_iterIPKwEEEET_S9_S9_
00000000001fdaf8 W _ZNSt6__ndk111basic_regexIwNS_12regex_traitsIwEEE19__parse_atom_escapeINS_11__wrap_iterIPKwEEEET_S9_S9_
0000000000201174 W _ZNSt6__ndk111basic_regexIwNS_12regex_traitsIwEEE20__parse_class_escapeINS_11__wrap_iterIPKwEEEET_S9_S9_RNS_12basic_stringIwNS_11char_traitsIwEENS_9allocatorIwEEEEPNS_20__bracket_expressionIwS2_EE
00000000001fc380 W _ZNSt6__ndk111basic_regexIwNS_12regex_traitsIwEEE20__push_word_boundaryEb
00000000001fb008 W _ZNSt6__ndk111basic_regexIwNS_12regex_traitsIwEEE21__parse_basic_reg_expINS_11__wrap_iterIPKwEEEET_S9_S9_
000000000020436c W _ZNSt6__ndk111basic_regexIwNS_12regex_traitsIwEEE22__parse_ERE_expressionINS_11__wrap_iterIPKwEEEET_S9_S9_
0000000000203c20 W _ZNSt6__ndk111basic_regexIwNS_12regex_traitsIwEEE22__parse_RE_dupl_symbolINS_11__wrap_iterIPKwEEEET_S9_S9_PNS_16__owns_one_stateIwEEjj
00000000001fbcf8 W _ZNSt6__ndk111basic_regexIwNS_12regex_traitsIwEEE23__parse_ERE_dupl_symbolINS_11__wrap_iterIPKwEEEET_S9_S9_PNS_16__owns_one_stateIwEEjj
0000000000204678 W _ZNSt6__ndk111basic_regexIwNS_12regex_traitsIwEEE23__parse_QUOTED_CHAR_EREINS_11__wrap_iterIPKwEEEET_S9_S9_
0000000000200f90 W _ZNSt6__ndk111basic_regexIwNS_12regex_traitsIwEEE23__parse_character_classINS_11__wrap_iterIPKwEEEET_S9_S9_PNS_20__bracket_expressionIwS2_EE
000000000020079c W _ZNSt6__ndk111basic_regexIwNS_12regex_traitsIwEEE23__parse_expression_termINS_11__wrap_iterIPKwEEEET_S9_S9_PNS_20__bracket_expressionIwS2_EE
00000000001fe0e8 W _ZNSt6__ndk111basic_regexIwNS_12regex_traitsIwEEE24__parse_character_escapeINS_11__wrap_iterIPKwEEEET_S9_S9_PNS_12basic_stringIwNS_11char_traitsIwEENS_9allocatorIwEEEE
0000000000201040 W _ZNSt6__ndk111basic_regexIwNS_12regex_traitsIwEEE24__parse_collating_symbolINS_11__wrap_iterIPKwEEEET_S9_S9_RNS_12basic_stringIwNS_11char_traitsIwEENS_9allocatorIwEEEE
00000000001fb190 W _ZNSt6__ndk111basic_regexIwNS_12regex_traitsIwEEE24__parse_extended_reg_expINS_11__wrap_iterIPKwEEEET_S9_S9_
0000000000200c78 W _ZNSt6__ndk111basic_regexIwNS_12regex_traitsIwEEE25__parse_equivalence_classINS_11__wrap_iterIPKwEEEET_S9_S9_PNS_20__bracket_expressionIwS2_EE
00000000001fddb4 W _ZNSt6__ndk111basic_regexIwNS_12regex_traitsIwEEE25__parse_pattern_characterINS_11__wrap_iterIPKwEEEET_S9_S9_
00000000001fdc58 W _ZNSt6__ndk111basic_regexIwNS_12regex_traitsIwEEE26__parse_bracket_expressionINS_11__wrap_iterIPKwEEEET_S9_S9_
00000000001fde78 W _ZNSt6__ndk111basic_regexIwNS_12regex_traitsIwEEE30__parse_character_class_escapeINS_11__wrap_iterIPKwEEEET_S9_S9_
00000000002040b0 W _ZNSt6__ndk111basic_regexIwNS_12regex_traitsIwEEE32__parse_one_char_or_coll_elem_REINS_11__wrap_iterIPKwEEEET_S9_S9_
0000000000204548 W _ZNSt6__ndk111basic_regexIwNS_12regex_traitsIwEEE33__parse_one_char_or_coll_elem_EREINS_11__wrap_iterIPKwEEEET_S9_S9_
00000000001fabd0 W _ZNSt6__ndk111basic_regexIwNS_12regex_traitsIwEEE7__parseINS_11__wrap_iterIPKwEEEET_S9_S9_
00000000001fa810 W _ZNSt6__ndk111basic_regexIwNS_12regex_traitsIwEEEC2B8ne210000INS_11char_traitsIwEENS_9allocatorIwEEEERKNS_12basic_stringIwT_T0_EENS_15regex_constants18syntax_option_typeE
00000000001fab20 W _ZNSt6__ndk111basic_regexIwNS_12regex_traitsIwEEED2Ev
0000000000295d84 T _ZNSt6__ndk111regex_errorC1ENS_15regex_constants10error_typeE
0000000000295d84 T _ZNSt6__ndk111regex_errorC2ENS_15regex_constants10error_typeE
0000000000295df8 T _ZNSt6__ndk111regex_errorD0Ev
0000000000295df0 T _ZNSt6__ndk111regex_errorD1Ev
0000000000295df0 T _ZNSt6__ndk111regex_errorD2Ev
00000000001990c8 W _ZNSt6__ndk112__hash_tableINS_17__hash_value_typeINS_12basic_stringIcNS_11char_traitsIcEENS_9allocatorIcEEEE23llama_model_kv_overrideEENS_22__unordered_map_hasherIS7_S9_NS_4hashIS7_EENS_8equal_toIS7_EELb1EEENS_21__unordered_map_equalIS7_S9_SE_SC_Lb1EEENS5_IS9_EEE11__do_rehashILb1EEEvm
0000000000198c08 W _ZNSt6__ndk112__hash_tableINS_17__hash_value_typeINS_12basic_stringIcNS_11char_traitsIcEENS_9allocatorIcEEEE23llama_model_kv_overrideEENS_22__unordered_map_hasherIS7_S9_NS_4hashIS7_EENS_8equal_toIS7_EELb1EEENS_21__unordered_map_equalIS7_S9_SE_SC_Lb1EEENS5_IS9_EEE25__emplace_unique_key_argsIS7_JNS_4pairIKS7_S8_EEEEENSL_INS_15__hash_iteratorIPNS_11__hash_nodeIS9_PvEEEEbEERKT_DpOT0_
0000000000197314 W _ZNSt6__ndk112__hash_tableINS_17__hash_value_typeINS_12basic_stringIcNS_11char_traitsIcEENS_9allocatorIcEEEE23llama_model_kv_overrideEENS_22__unordered_map_hasherIS7_S9_NS_4hashIS7_EENS_8equal_toIS7_EELb1EEENS_21__unordered_map_equalIS7_S9_SE_SC_Lb1EEENS5_IS9_EEE4findIS7_EENS_15__hash_iteratorIPNS_11__hash_nodeIS9_PvEEEERKT_
000000000010013c W _ZNSt6__ndk112__hash_tableINS_17__hash_value_typeINS_12basic_stringIcNS_11char_traitsIcEENS_9allocatorIcEEEE25llama_adapter_lora_weightEENS_22__unordered_map_hasherIS7_S9_NS_4hashIS7_EENS_8equal_toIS7_EELb1EEENS_21__unordered_map_equalIS7_S9_SE_SC_Lb1EEENS5_IS9_EEE11__do_rehashILb1EEEvm
00000000000ffc84 W _ZNSt6__ndk112__hash_tableINS_17__hash_value_typeINS_12basic_stringIcNS_11char_traitsIcEENS_9allocatorIcEEEE25llama_adapter_lora_weightEENS_22__unordered_map_hasherIS7_S9_NS_4hashIS7_EENS_8equal_toIS7_EELb1EEENS_21__unordered_map_equalIS7_S9_SE_SC_Lb1EEENS5_IS9_EEE25__emplace_unique_key_argsIS7_JRKNS_21piecewise_construct_tENS_5tupleIJRKS7_EEENSO_IJEEEEEENS_4pairINS_15__hash_iteratorIPNS_11__hash_nodeIS9_PvEEEEbEERKT_DpOT0_
0000000000100974 W _ZNSt6__ndk112__hash_tableINS_17__hash_value_typeINS_12basic_stringIcNS_11char_traitsIcEENS_9allocatorIcEEEE25llama_adapter_lora_weightEENS_22__unordered_map_hasherIS7_S9_NS_4hashIS7_EENS_8equal_toIS7_EELb1EEENS_21__unordered_map_equalIS7_S9_SE_SC_Lb1EEENS5_IS9_EEE4findIS7_EENS_15__hash_iteratorIPNS_11__hash_nodeIS9_PvEEEERKT_
00000000001be25c W _ZNSt6__ndk112__hash_tableINS_17__hash_value_typeINS_12basic_stringIcNS_11char_traitsIcEENS_9allocatorIcEEEENS_6vectorIfNS5_IfEEEEEENS_22__unordered_map_hasherIS7_SB_NS_4hashIS7_EENS_8equal_toIS7_EELb1EEENS_21__unordered_map_equalIS7_SB_SG_SE_Lb1EEENS5_ISB_EEE11__do_rehashILb1EEEvm
00000000001bdc74 W _ZNSt6__ndk112__hash_tableINS_17__hash_value_typeINS_12basic_stringIcNS_11char_traitsIcEENS_9allocatorIcEEEENS_6vectorIfNS5_IfEEEEEENS_22__unordered_map_hasherIS7_SB_NS_4hashIS7_EENS_8equal_toIS7_EELb1EEENS_21__unordered_map_equalIS7_SB_SG_SE_Lb1EEENS5_ISB_EEE16__construct_nodeIJRKPKcSA_EEENS_10unique_ptrINS_11__hash_nodeISB_PvEENS_22__hash_node_destructorINS5_ISU_EEEEEEDpOT_
00000000001bdb84 W _ZNSt6__ndk112__hash_tableINS_17__hash_value_typeINS_12basic_stringIcNS_11char_traitsIcEENS_9allocatorIcEEEENS_6vectorIfNS5_IfEEEEEENS_22__unordered_map_hasherIS7_SB_NS_4hashIS7_EENS_8equal_toIS7_EELb1EEENS_21__unordered_map_equalIS7_SB_SG_SE_Lb1EEENS5_ISB_EEE21__emplace_unique_implIJRKPKcSA_EEENS_4pairINS_15__hash_iteratorIPNS_11__hash_nodeISB_PvEEEEbEEDpOT_
00000000000ff5ac W _ZNSt6__ndk112__hash_tableINS_17__hash_value_typeINS_12basic_stringIcNS_11char_traitsIcEENS_9allocatorIcEEEES7_EENS_22__unordered_map_hasherIS7_S8_NS_4hashIS7_EENS_8equal_toIS7_EELb1EEENS_21__unordered_map_equalIS7_S8_SD_SB_Lb1EEENS5_IS8_EEE11__do_rehashILb1EEEvm
00000000000fea90 W _ZNSt6__ndk112__hash_tableINS_17__hash_value_typeINS_12basic_stringIcNS_11char_traitsIcEENS_9allocatorIcEEEES7_EENS_22__unordered_map_hasherIS7_S8_NS_4hashIS7_EENS_8equal_toIS7_EELb1EEENS_21__unordered_map_equalIS7_S8_SD_SB_Lb1EEENS5_IS8_EEE21__emplace_unique_implIJRPKcRKS7_EEENS_4pairINS_15__hash_iteratorIPNS_11__hash_nodeIS8_PvEEEEbEEDpOT_
00000000001e66f4 W _ZNSt6__ndk112__hash_tableINS_17__hash_value_typeINS_12basic_stringIcNS_11char_traitsIcEENS_9allocatorIcEEEEfEENS_22__unordered_map_hasherIS7_S8_NS_4hashIS7_EENS_8equal_toIS7_EELb1EEENS_21__unordered_map_equalIS7_S8_SD_SB_Lb1EEENS5_IS8_EEE11__do_rehashILb1EEEvm
00000000001e623c W _ZNSt6__ndk112__hash_tableINS_17__hash_value_typeINS_12basic_stringIcNS_11char_traitsIcEENS_9allocatorIcEEEEfEENS_22__unordered_map_hasherIS7_S8_NS_4hashIS7_EENS_8equal_toIS7_EELb1EEENS_21__unordered_map_equalIS7_S8_SD_SB_Lb1EEENS5_IS8_EEE25__emplace_unique_key_argsIS7_JRKNS_21piecewise_construct_tENS_5tupleIJRKS7_EEENSN_IJEEEEEENS_4pairINS_15__hash_iteratorIPNS_11__hash_nodeIS8_PvEEEEbEERKT_DpOT0_
00000000001e689c W _ZNSt6__ndk112__hash_tableINS_17__hash_value_typeINS_12basic_stringIcNS_11char_traitsIcEENS_9allocatorIcEEEEfEENS_22__unordered_map_hasherIS7_S8_NS_4hashIS7_EENS_8equal_toIS7_EELb1EEENS_21__unordered_map_equalIS7_S8_SD_SB_Lb1EEENS5_IS8_EEE4findIS7_EENS_15__hash_iteratorIPNS_11__hash_nodeIS8_PvEEEERKT_
00000000001f76b0 W _ZNSt6__ndk112__hash_tableINS_17__hash_value_typeINS_12basic_stringIcNS_11char_traitsIcEENS_9allocatorIcEEEEhEENS_22__unordered_map_hasherIS7_S8_NS_4hashIS7_EENS_8equal_toIS7_EELb1EEENS_21__unordered_map_equalIS7_S8_SD_SB_Lb1EEENS5_IS8_EEE11__do_rehashILb1EEEvm
00000000001f7220 W _ZNSt6__ndk112__hash_tableINS_17__hash_value_typeINS_12basic_stringIcNS_11char_traitsIcEENS_9allocatorIcEEEEhEENS_22__unordered_map_hasherIS7_S8_NS_4hashIS7_EENS_8equal_toIS7_EELb1EEENS_21__unordered_map_equalIS7_S8_SD_SB_Lb1EEENS5_IS8_EEE25__emplace_unique_key_argsIS7_JRKNS_21piecewise_construct_tENS_5tupleIJOS7_EEENSN_IJEEEEEENS_4pairINS_15__hash_iteratorIPNS_11__hash_nodeIS8_PvEEEEbEERKT_DpOT0_
00000000001f7858 W _ZNSt6__ndk112__hash_tableINS_17__hash_value_typeINS_12basic_stringIcNS_11char_traitsIcEENS_9allocatorIcEEEEhEENS_22__unordered_map_hasherIS7_S8_NS_4hashIS7_EENS_8equal_toIS7_EELb1EEENS_21__unordered_map_equalIS7_S8_SD_SB_Lb1EEENS5_IS8_EEE4findIS7_EENS_15__hash_iteratorIPNS_11__hash_nodeIS8_PvEEEERKT_
00000000001e0adc W _ZNSt6__ndk112__hash_tableINS_17__hash_value_typeINS_12basic_stringIcNS_11char_traitsIcEENS_9allocatorIcEEEEiEENS_22__unordered_map_hasherIS7_S8_NS_4hashIS7_EENS_8equal_toIS7_EELb1EEENS_21__unordered_map_equalIS7_S8_SD_SB_Lb1EEENS5_IS8_EEE11__do_rehashILb1EEEvm
00000000001e0624 W _ZNSt6__ndk112__hash_tableINS_17__hash_value_typeINS_12basic_stringIcNS_11char_traitsIcEENS_9allocatorIcEEEEiEENS_22__unordered_map_hasherIS7_S8_NS_4hashIS7_EENS_8equal_toIS7_EELb1EEENS_21__unordered_map_equalIS7_S8_SD_SB_Lb1EEENS5_IS8_EEE25__emplace_unique_key_argsIS7_JRKNS_21piecewise_construct_tENS_5tupleIJRKS7_EEENSN_IJEEEEEENS_4pairINS_15__hash_iteratorIPNS_11__hash_nodeIS8_PvEEEEbEERKT_DpOT0_
00000000001e0c84 W _ZNSt6__ndk112__hash_tableINS_17__hash_value_typeINS_12basic_stringIcNS_11char_traitsIcEENS_9allocatorIcEEEEiEENS_22__unordered_map_hasherIS7_S8_NS_4hashIS7_EENS_8equal_toIS7_EELb1EEENS_21__unordered_map_equalIS7_S8_SD_SB_Lb1EEENS5_IS8_EEE4findIS7_EENS_15__hash_iteratorIPNS_11__hash_nodeIS8_PvEEEERKT_
00000000001e156c W _ZNSt6__ndk112__hash_tableINS_17__hash_value_typeINS_4pairINS_12basic_stringIcNS_11char_traitsIcEENS_9allocatorIcEEEES8_EEiEENS_22__unordered_map_hasherIS9_SA_N11llama_vocab4impl9pair_hashENS_8equal_toIS9_EELb1EEENS_21__unordered_map_equalIS9_SA_SG_SE_Lb1EEENS6_ISA_EEE11__do_rehashILb1EEEvm
00000000001e1004 W _ZNSt6__ndk112__hash_tableINS_17__hash_value_typeINS_4pairINS_12basic_stringIcNS_11char_traitsIcEENS_9allocatorIcEEEES8_EEiEENS_22__unordered_map_hasherIS9_SA_N11llama_vocab4impl9pair_hashENS_8equal_toIS9_EELb1EEENS_21__unordered_map_equalIS9_SA_SG_SE_Lb1EEENS6_ISA_EEE25__emplace_unique_key_argsIS9_JS9_RiEEENS2_INS_15__hash_iteratorIPNS_11__hash_nodeISA_PvEEEEbEERKT_DpOT0_
00000000001ecfcc W _ZNSt6__ndk112__hash_tableINS_17__hash_value_typeINS_4pairINS_12basic_stringIcNS_11char_traitsIcEENS_9allocatorIcEEEES8_EEiEENS_22__unordered_map_hasherIS9_SA_N11llama_vocab4impl9pair_hashENS_8equal_toIS9_EELb1EEENS_21__unordered_map_equalIS9_SA_SG_SE_Lb1EEENS6_ISA_EEE4findIS9_EENS_15__hash_iteratorIPNS_11__hash_nodeISA_PvEEEERKT_
0000000000108990 W _ZNSt6__ndk112__hash_tableINS_17__hash_value_typeINS_6bitsetILm256EEENS_6vectorIiNS_9allocatorIiEEEEEENS_22__unordered_map_hasherIS3_S8_NS_4hashIS3_EENS_8equal_toIS3_EELb1EEENS_21__unordered_map_equalIS3_S8_SD_SB_Lb1EEENS5_IS8_EEE11__do_rehashILb1EEEvm
0000000000108560 W _ZNSt6__ndk112__hash_tableINS_17__hash_value_typeINS_6bitsetILm256EEENS_6vectorIiNS_9allocatorIiEEEEEENS_22__unordered_map_hasherIS3_S8_NS_4hashIS3_EENS_8equal_toIS3_EELb1EEENS_21__unordered_map_equalIS3_S8_SD_SB_Lb1EEENS5_IS8_EEE25__emplace_unique_key_argsIS3_JRKNS_21piecewise_construct_tENS_5tupleIJRKS3_EEENSN_IJEEEEEENS_4pairINS_15__hash_iteratorIPNS_11__hash_nodeIS8_PvEEEEbEERKT_DpOT0_
000000000011fbec W _ZNSt6__ndk112__hash_tableINS_17__hash_value_typeIP18llama_adapter_lorafEENS_22__unordered_map_hasherIS3_S4_NS_4hashIS3_EENS_8equal_toIS3_EELb1EEENS_21__unordered_map_equalIS3_S4_S9_S7_Lb1EEENS_9allocatorIS4_EEE11__do_rehashILb1EEEvm
000000000011f88c W _ZNSt6__ndk112__hash_tableINS_17__hash_value_typeIP18llama_adapter_lorafEENS_22__unordered_map_hasherIS3_S4_NS_4hashIS3_EENS_8equal_toIS3_EELb1EEENS_21__unordered_map_equalIS3_S4_S9_S7_Lb1EEENS_9allocatorIS4_EEE25__emplace_unique_key_argsIS3_JNS_4pairIKS3_fEEEEENSH_INS_15__hash_iteratorIPNS_11__hash_nodeIS4_PvEEEEbEERKT_DpOT0_
000000000011fd94 W _ZNSt6__ndk112__hash_tableINS_17__hash_value_typeIP18llama_adapter_lorafEENS_22__unordered_map_hasherIS3_S4_NS_4hashIS3_EENS_8equal_toIS3_EELb1EEENS_21__unordered_map_equalIS3_S4_S9_S7_Lb1EEENS_9allocatorIS4_EEE4findIS3_EENS_15__hash_iteratorIPNS_11__hash_nodeIS4_PvEEEERKT_
00000000001f7078 W _ZNSt6__ndk112__hash_tableINS_17__hash_value_typeIhNS_12basic_stringIcNS_11char_traitsIcEENS_9allocatorIcEEEEEENS_22__unordered_map_hasherIhS8_NS_4hashIhEENS_8equal_toIhEELb1EEENS_21__unordered_map_equalIhS8_SD_SB_Lb1EEENS5_IS8_EEE11__do_rehashILb1EEEvm
00000000001f6cbc W _ZNSt6__ndk112__hash_tableINS_17__hash_value_typeIhNS_12basic_stringIcNS_11char_traitsIcEENS_9allocatorIcEEEEEENS_22__unordered_map_hasherIhS8_NS_4hashIhEENS_8equal_toIhEELb1EEENS_21__unordered_map_equalIhS8_SD_SB_Lb1EEENS5_IS8_EEE25__emplace_unique_key_argsIhJRKNS_21piecewise_construct_tENS_5tupleIJOhEEENSN_IJEEEEEENS_4pairINS_15__hash_iteratorIPNS_11__hash_nodeIS8_PvEEEEbEERKT_DpOT0_
00000000001ce250 W _ZNSt6__ndk112__hash_tableINS_17__hash_value_typeIiNS_6vectorIiNS_9allocatorIiEEEEEENS_22__unordered_map_hasherIiS6_NS_4hashIiEENS_8equal_toIiEELb1EEENS_21__unordered_map_equalIiS6_SB_S9_Lb1EEENS3_IS6_EEE11__do_rehashILb0EEEvm
00000000001cf144 W _ZNSt6__ndk112__hash_tableINS_17__hash_value_typeIiNS_6vectorIiNS_9allocatorIiEEEEEENS_22__unordered_map_hasherIiS6_NS_4hashIiEENS_8equal_toIiEELb1EEENS_21__unordered_map_equalIiS6_SB_S9_Lb1EEENS3_IS6_EEE14__assign_multiINS_21__hash_const_iteratorIPNS_11__hash_nodeIS6_PvEEEEEEvT_SO_
00000000001cf320 W _ZNSt6__ndk112__hash_tableINS_17__hash_value_typeIiNS_6vectorIiNS_9allocatorIiEEEEEENS_22__unordered_map_hasherIiS6_NS_4hashIiEENS_8equal_toIiEELb1EEENS_21__unordered_map_equalIiS6_SB_S9_Lb1EEENS3_IS6_EEE16__construct_nodeIJRKNS_4pairIKiS5_EEEEENS_10unique_ptrINS_11__hash_nodeIS6_PvEENS_22__hash_node_destructorINS3_ISQ_EEEEEEDpOT_
0000000000167c90 W _ZNSt6__ndk112__hash_tableINS_17__hash_value_typeIiNS_6vectorIjNS_9allocatorIjEEEEEENS_22__unordered_map_hasherIiS6_NS_4hashIiEENS_8equal_toIiEELb1EEENS_21__unordered_map_equalIiS6_SB_S9_Lb1EEENS3_IS6_EEE11__do_rehashILb1EEEvm
00000000001678b8 W _ZNSt6__ndk112__hash_tableINS_17__hash_value_typeIiNS_6vectorIjNS_9allocatorIjEEEEEENS_22__unordered_map_hasherIiS6_NS_4hashIiEENS_8equal_toIiEELb1EEENS_21__unordered_map_equalIiS6_SB_S9_Lb1EEENS3_IS6_EEE25__emplace_unique_key_argsIiJRKNS_21piecewise_construct_tENS_5tupleIJRKiEEENSL_IJEEEEEENS_4pairINS_15__hash_iteratorIPNS_11__hash_nodeIS6_PvEEEEbEERKT_DpOT0_
00000000001cf8c4 W _ZNSt6__ndk112__hash_tableINS_17__hash_value_typeIiiEENS_22__unordered_map_hasherIiS2_NS_4hashIiEENS_8equal_toIiEELb1EEENS_21__unordered_map_equalIiS2_S7_S5_Lb1EEENS_9allocatorIS2_EEE11__do_rehashILb0EEEvm
0000000000165ff4 W _ZNSt6__ndk112__hash_tableINS_17__hash_value_typeIiiEENS_22__unordered_map_hasherIiS2_NS_4hashIiEENS_8equal_toIiEELb1EEENS_21__unordered_map_equalIiS2_S7_S5_Lb1EEENS_9allocatorIS2_EEE11__do_rehashILb1EEEvm
00000000001cf3f4 W _ZNSt6__ndk112__hash_tableINS_17__hash_value_typeIiiEENS_22__unordered_map_hasherIiS2_NS_4hashIiEENS_8equal_toIiEELb1EEENS_21__unordered_map_equalIiS2_S7_S5_Lb1EEENS_9allocatorIS2_EEE14__assign_multiINS_21__hash_const_iteratorIPNS_11__hash_nodeIS2_PvEEEEEEvT_SL_
00000000001cd90c W _ZNSt6__ndk112__hash_tableINS_17__hash_value_typeIiiEENS_22__unordered_map_hasherIiS2_NS_4hashIiEENS_8equal_toIiEELb1EEENS_21__unordered_map_equalIiS2_S7_S5_Lb1EEENS_9allocatorIS2_EEE14__erase_uniqueIiEEmRKT_
000000000016619c W _ZNSt6__ndk112__hash_tableINS_17__hash_value_typeIiiEENS_22__unordered_map_hasherIiS2_NS_4hashIiEENS_8equal_toIiEELb1EEENS_21__unordered_map_equalIiS2_S7_S5_Lb1EEENS_9allocatorIS2_EEE25__emplace_unique_key_argsIiJRKNS_21piecewise_construct_tENS_5tupleIJOiEEENSI_IJEEEEEENS_4pairINS_15__hash_iteratorIPNS_11__hash_nodeIS2_PvEEEEbEERKT_DpOT0_
0000000000165cc8 W _ZNSt6__ndk112__hash_tableINS_17__hash_value_typeIiiEENS_22__unordered_map_hasherIiS2_NS_4hashIiEENS_8equal_toIiEELb1EEENS_21__unordered_map_equalIiS2_S7_S5_Lb1EEENS_9allocatorIS2_EEE25__emplace_unique_key_argsIiJRKNS_21piecewise_construct_tENS_5tupleIJRKiEEENSI_IJEEEEEENS_4pairINS_15__hash_iteratorIPNS_11__hash_nodeIS2_PvEEEEbEERKT_DpOT0_
0000000000168164 W _ZNSt6__ndk112__hash_tableINS_17__hash_value_typeIijEENS_22__unordered_map_hasherIiS2_NS_4hashIiEENS_8equal_toIiEELb1EEENS_21__unordered_map_equalIiS2_S7_S5_Lb1EEENS_9allocatorIS2_EEE11__do_rehashILb1EEEvm
0000000000167e38 W _ZNSt6__ndk112__hash_tableINS_17__hash_value_typeIijEENS_22__unordered_map_hasherIiS2_NS_4hashIiEENS_8equal_toIiEELb1EEENS_21__unordered_map_equalIiS2_S7_S5_Lb1EEENS_9allocatorIS2_EEE25__emplace_unique_key_argsIiJRKNS_21piecewise_construct_tENS_5tupleIJRKiEEENSI_IJEEEEEENS_4pairINS_15__hash_iteratorIPNS_11__hash_nodeIS2_PvEEEEbEERKT_DpOT0_
00000000001b4e78 W _ZNSt6__ndk112__hash_tableINS_17__hash_value_typeIjP19ggml_backend_bufferEENS_22__unordered_map_hasherIjS4_NS_4hashIjEENS_8equal_toIjEELb1EEENS_21__unordered_map_equalIjS4_S9_S7_Lb1EEENS_9allocatorIS4_EEE11__do_rehashILb1EEEvm
00000000001b5608 W _ZNSt6__ndk112__hash_tableINS_17__hash_value_typeIjP19ggml_backend_bufferEENS_22__unordered_map_hasherIjS4_NS_4hashIjEENS_8equal_toIjEELb1EEENS_21__unordered_map_equalIjS4_S9_S7_Lb1EEENS_9allocatorIS4_EEE25__emplace_unique_key_argsIjJRKNS_4pairIKjS3_EEEEENSH_INS_15__hash_iteratorIPNS_11__hash_nodeIS4_PvEEEEbEERKT_DpOT0_
00000000001b5020 W _ZNSt6__ndk112__hash_tableINS_17__hash_value_typeIjP19ggml_backend_bufferEENS_22__unordered_map_hasherIjS4_NS_4hashIjEENS_8equal_toIjEELb1EEENS_21__unordered_map_equalIjS4_S9_S7_Lb1EEENS_9allocatorIS4_EEE25__emplace_unique_key_argsIjJRjRS3_EEENS_4pairINS_15__hash_iteratorIPNS_11__hash_nodeIS4_PvEEEEbEERKT_DpOT0_
0000000000166f88 W _ZNSt6__ndk112__hash_tableINS_17__hash_value_typeIlNS_6vectorIfNS_9allocatorIfEEEEEENS_22__unordered_map_hasherIlS6_NS_4hashIlEENS_8equal_toIlEELb1EEENS_21__unordered_map_equalIlS6_SB_S9_Lb1EEENS3_IS6_EEE11__do_rehashILb1EEEvm
0000000000166bb4 W _ZNSt6__ndk112__hash_tableINS_17__hash_value_typeIlNS_6vectorIfNS_9allocatorIfEEEEEENS_22__unordered_map_hasherIlS6_NS_4hashIlEENS_8equal_toIlEELb1EEENS_21__unordered_map_equalIlS6_SB_S9_Lb1EEENS3_IS6_EEE25__emplace_unique_key_argsIlJRKNS_21piecewise_construct_tENS_5tupleIJRKlEEENSL_IJEEEEEENS_4pairINS_15__hash_iteratorIPNS_11__hash_nodeIS6_PvEEEEbEERKT_DpOT0_
00000000001e8fcc W _ZNSt6__ndk112__hash_tableINS_17__hash_value_typeIliEENS_22__unordered_map_hasherIlS2_NS_4hashIlEENS_8equal_toIlEELb1EEENS_21__unordered_map_equalIlS2_S7_S5_Lb1EEENS_9allocatorIS2_EEE11__do_rehashILb1EEEvm
00000000001e8c98 W _ZNSt6__ndk112__hash_tableINS_17__hash_value_typeIliEENS_22__unordered_map_hasherIlS2_NS_4hashIlEENS_8equal_toIlEELb1EEENS_21__unordered_map_equalIlS2_S7_S5_Lb1EEENS_9allocatorIS2_EEE25__emplace_unique_key_argsIlJRKNS_21piecewise_construct_tENS_5tupleIJRKlEEENSI_IJEEEEEENS_4pairINS_15__hash_iteratorIPNS_11__hash_nodeIS2_PvEEEEbEERKT_DpOT0_
000000000010066c W _ZNSt6__ndk112__hash_tableIP18llama_adapter_loraNS_4hashIS2_EENS_8equal_toIS2_EENS_9allocatorIS2_EEE11__do_rehashILb1EEEvm
000000000010030c W _ZNSt6__ndk112__hash_tableIP18llama_adapter_loraNS_4hashIS2_EENS_8equal_toIS2_EENS_9allocatorIS2_EEE25__emplace_unique_key_argsIS2_JS2_EEENS_4pairINS_15__hash_iteratorIPNS_11__hash_nodeIS2_PvEEEEbEERKT_DpOT0_
0000000000100d34 W _ZNSt6__ndk112__hash_tableIP18llama_adapter_loraNS_4hashIS2_EENS_8equal_toIS2_EENS_9allocatorIS2_EEE4findIS2_EENS_15__hash_iteratorIPNS_11__hash_nodeIS2_PvEEEERKT_
000000000014b3cc W _ZNSt6__ndk112__hash_tableIiNS_4hashIiEENS_8equal_toIiEENS_9allocatorIiEEE11__do_rehashILb1EEEvm
000000000014b0a4 W _ZNSt6__ndk112__hash_tableIiNS_4hashIiEENS_8equal_toIiEENS_9allocatorIiEEE25__emplace_unique_key_argsIiJRKiEEENS_4pairINS_15__hash_iteratorIPNS_11__hash_nodeIiPvEEEEbEERKT_DpOT0_
00000000001ed658 W _ZNSt6__ndk112__hash_tableIjNS_4hashIjEENS_8equal_toIjEENS_9allocatorIjEEE11__do_rehashILb1EEEvm
00000000001ed350 W _ZNSt6__ndk112__hash_tableIjNS_4hashIjEENS_8equal_toIjEENS_9allocatorIjEEE25__emplace_unique_key_argsIjJRKjEEENS_4pairINS_15__hash_iteratorIPNS_11__hash_nodeIjPvEEEEbEERKT_DpOT0_
000000000024313c W _ZNSt6__ndk112__hash_tableIjNS_4hashIjEENS_8equal_toIjEENS_9allocatorIjEEE25__emplace_unique_key_argsIjJjEEENS_4pairINS_15__hash_iteratorIPNS_11__hash_nodeIjPvEEEEbEERKT_DpOT0_
0000000000135060 W _ZNSt6__ndk112__match_charIcED0Ev
00000000001fe980 W _ZNSt6__ndk112__match_charIwED0Ev
000000000029541c T _ZNSt6__ndk112__next_primeEm
00000000000ff754 W _ZNSt6__ndk112basic_stringIcNS_11char_traitsIcEENS_9allocatorIcEEE25__init_copy_ctor_externalEPKcm
00000000000f9bd8 W _ZNSt6__ndk112basic_stringIcNS_11char_traitsIcEENS_9allocatorIcEEEC2B8ne210000ILi0EEEPKc
000000000020288c W _ZNSt6__ndk112basic_stringIwNS_11char_traitsIwEENS_9allocatorIwEEE25__init_copy_ctor_externalEPKwm
0000000000132dd0 W _ZNSt6__ndk113__empty_stateIcED0Ev
00000000001fb6f0 W _ZNSt6__ndk113__empty_stateIwED0Ev
000000000012dc68 W _ZNSt6__ndk113match_resultsINS_11__wrap_iterIPKcEENS_9allocatorINS_9sub_matchIS4_EEEEE8__assignB8ne210000IS3_NS5_INS6_IS3_EEEEEEvS4_S4_RKNS0_IT_T0_EEb
0000000000204a48 W _ZNSt6__ndk113match_resultsINS_11__wrap_iterIPKwEENS_9allocatorINS_9sub_matchIS4_EEEEE8__assignB8ne210000IS3_NS5_INS6_IS3_EEEEEEvS4_S4_RKNS0_IT_T0_EEb
0000000000295bc8 T _ZNSt6__ndk113random_deviceC1ERKNS_12basic_stringIcNS_11char_traitsIcEENS_9allocatorIcEEEE
0000000000295bc8 T _ZNSt6__ndk113random_deviceC2ERKNS_12basic_stringIcNS_11char_traitsIcEENS_9allocatorIcEEEE
0000000000295c74 T _ZNSt6__ndk113random_deviceD1Ev
0000000000295c74 T _ZNSt6__ndk113random_deviceD2Ev
0000000000295c98 T _ZNSt6__ndk113random_deviceclEv
00000000001303a8 W _ZNSt6__ndk114__split_bufferIPNS_7__stateIcEENS_9allocatorIS3_EEE12emplace_backIJRS3_EEEvDpOT_
0000000000130528 W _ZNSt6__ndk114__split_bufferIPNS_7__stateIcEENS_9allocatorIS3_EEE12emplace_backIJS3_EEEvDpOT_
0000000000130c50 W _ZNSt6__ndk114__split_bufferIPNS_7__stateIcEENS_9allocatorIS3_EEE13emplace_frontIJRS3_EEEvDpOT_
00000000001306a8 W _ZNSt6__ndk114__split_bufferIPNS_7__stateIcEENS_9allocatorIS3_EEE13emplace_frontIJS3_EEEvDpOT_
0000000000206154 W _ZNSt6__ndk114__split_bufferIPNS_7__stateIwEENS_9allocatorIS3_EEE12emplace_backIJRS3_EEEvDpOT_
00000000002062d4 W _ZNSt6__ndk114__split_bufferIPNS_7__stateIwEENS_9allocatorIS3_EEE12emplace_backIJS3_EEEvDpOT_
00000000002069fc W _ZNSt6__ndk114__split_bufferIPNS_7__stateIwEENS_9allocatorIS3_EEE13emplace_frontIJRS3_EEEvDpOT_
0000000000206454 W _ZNSt6__ndk114__split_bufferIPNS_7__stateIwEENS_9allocatorIS3_EEE13emplace_frontIJS3_EEEvDpOT_
00000000001bda44 W _ZNSt6__ndk114basic_ofstreamIcNS_11char_traitsIcEEED1Ev
00000000001fa5c0 W _ZNSt6__ndk114regex_iteratorINS_11__wrap_iterIPKcEEcNS_12regex_traitsIcEEEppEv
00000000001fa8e4 W _ZNSt6__ndk114regex_iteratorINS_11__wrap_iterIPKwEEwNS_12regex_traitsIwEEEppEv
00000000001ccf70 W _ZNSt6__ndk114regex_iteratorIPKccNS_12regex_traitsIcEEEppEv
0000000000295ed0 T _ZNSt6__ndk115__get_classnameEPKcb
0000000000133cc8 W _ZNSt6__ndk115__word_boundaryIcNS_12regex_traitsIcEEED0Ev
0000000000133c6c W _ZNSt6__ndk115__word_boundaryIcNS_12regex_traitsIcEEED2Ev
00000000001fc6c0 W _ZNSt6__ndk115__word_boundaryIwNS_12regex_traitsIwEEED0Ev
00000000001fc664 W _ZNSt6__ndk115__word_boundaryIwNS_12regex_traitsIwEEED2Ev
0000000000135150 W _ZNSt6__ndk116__back_ref_icaseIcNS_12regex_traitsIcEEED0Ev
00000000001350f4 W _ZNSt6__ndk116__back_ref_icaseIcNS_12regex_traitsIcEEED2Ev
00000000001fea70 W _ZNSt6__ndk116__back_ref_icaseIwNS_12regex_traitsIwEEED0Ev
00000000001fea14 W _ZNSt6__ndk116__back_ref_icaseIwNS_12regex_traitsIwEEED2Ev
0000000000132e30 W _ZNSt6__ndk116__owns_one_stateIcED0Ev
0000000000139d60 W _ZNSt6__ndk116__owns_one_stateIcED2Ev
00000000001fb750 W _ZNSt6__ndk116__owns_one_stateIwED0Ev
0000000000204224 W _ZNSt6__ndk116__owns_one_stateIwED2Ev
000000000019a49c W _ZNSt6__ndk117__assoc_sub_stateD2Ev
0000000000139430 W _ZNSt6__ndk117__repeat_one_loopIcED0Ev
0000000000203890 W _ZNSt6__ndk117__repeat_one_loopIwED0Ev
00000000002953ec T _ZNSt6__ndk117bad_function_callD0Ev
00000000002953e4 T _ZNSt6__ndk117bad_function_callD1Ev
00000000002953e4 T _ZNSt6__ndk117bad_function_callD2Ev
0000000000135304 W _ZNSt6__ndk118__back_ref_collateIcNS_12regex_traitsIcEEED0Ev
00000000001352a8 W _ZNSt6__ndk118__back_ref_collateIcNS_12regex_traitsIcEEED2Ev
00000000001fec20 W _ZNSt6__ndk118__back_ref_collateIwNS_12regex_traitsIwEEED0Ev
00000000001febc4 W _ZNSt6__ndk118__back_ref_collateIwNS_12regex_traitsIwEEED2Ev
0000000000134e84 W _ZNSt6__ndk118__match_char_icaseIcNS_12regex_traitsIcEEED0Ev
0000000000134e28 W _ZNSt6__ndk118__match_char_icaseIcNS_12regex_traitsIcEEED2Ev
00000000001fe7a4 W _ZNSt6__ndk118__match_char_icaseIwNS_12regex_traitsIwEEED0Ev
00000000001fe748 W _ZNSt6__ndk118__match_char_icaseIwNS_12regex_traitsIwEEED2Ev
000000000010522c W _ZNSt6__ndk118basic_stringstreamIcNS_11char_traitsIcEENS_9allocatorIcEEED1Ev
000000000014aa40 W _ZNSt6__ndk119basic_ostringstreamIcNS_11char_traitsIcEENS_9allocatorIcEEED1Ev
00000000000a9adc V _ZNSt6__ndk119piecewise_constructE
0000000000135ab0 W _ZNSt6__ndk120__bracket_expressionIcNS_12regex_traitsIcEEED0Ev
000000000013591c W _ZNSt6__ndk120__bracket_expressionIcNS_12regex_traitsIcEEED2Ev
00000000001ff4bc W _ZNSt6__ndk120__bracket_expressionIwNS_12regex_traitsIwEEED0Ev
00000000001ff31c W _ZNSt6__ndk120__bracket_expressionIwNS_12regex_traitsIwEEED2Ev
0000000000295e28 T _ZNSt6__ndk120__get_collation_nameEPKc
0000000000133b10 W _ZNSt6__ndk120__l_anchor_multilineIcED0Ev
00000000001fc508 W _ZNSt6__ndk120__l_anchor_multilineIwED0Ev
0000000000134fbc W _ZNSt6__ndk120__match_char_collateIcNS_12regex_traitsIcEEED0Ev
0000000000134f60 W _ZNSt6__ndk120__match_char_collateIcNS_12regex_traitsIcEEED2Ev
00000000001fe8dc W _ZNSt6__ndk120__match_char_collateIwNS_12regex_traitsIwEEED0Ev
00000000001fe880 W _ZNSt6__ndk120__match_char_collateIwNS_12regex_traitsIwEEED2Ev
0000000000133bc8 W _ZNSt6__ndk120__r_anchor_multilineIcED0Ev
00000000001fc5c0 W _ZNSt6__ndk120__r_anchor_multilineIwED0Ev
0000000000108ff4 W _ZNSt6__ndk120__shared_ptr_emplaceIN12llama_ubatch6data_tENS_9allocatorIS2_EEED0Ev
0000000000108fe0 W _ZNSt6__ndk120__shared_ptr_emplaceIN12llama_ubatch6data_tENS_9allocatorIS2_EEED2Ev
00000000001655c0 W _ZNSt6__ndk120__shared_ptr_emplaceINS_6vectorI14llama_kv_cellsNS_9allocatorIS2_EEEENS3_IS5_EEED0Ev
00000000001655ac W _ZNSt6__ndk120__shared_ptr_emplaceINS_6vectorI14llama_kv_cellsNS_9allocatorIS2_EEEENS3_IS5_EEED2Ev
000000000011f0d8 W _ZNSt6__ndk120__shared_ptr_pointerIP18llama_adapter_cvecNS_14default_deleteIS1_EENS_9allocatorIS1_EEED0Ev
0000000000132d6c W _ZNSt6__ndk120__shared_ptr_pointerIPNS_13__empty_stateIcEENS_10shared_ptrIS2_E27__shared_ptr_default_deleteIS2_S2_EENS_9allocatorIS2_EEED0Ev
00000000001fb68c W _ZNSt6__ndk120__shared_ptr_pointerIPNS_13__empty_stateIwEENS_10shared_ptrIS2_E27__shared_ptr_default_deleteIS2_S2_EENS_9allocatorIS2_EEED0Ev
0000000000139558 W _ZNSt6__ndk121__empty_non_own_stateIcED0Ev
00000000002039b8 W _ZNSt6__ndk121__empty_non_own_stateIwED0Ev
00000000001cc324 W _ZNSt6__ndk121discrete_distributionIiEclINS_23mersenne_twister_engineImLm32ELm624ELm397ELm31ELm2567483615ELm11ELm4294967295ELm7ELm2636928640ELm15ELm4022730752ELm18ELm1812433253EEEEEiRT_RKNS1_10param_typeE
0000000000134498 W _ZNSt6__ndk123__match_any_but_newlineIcED0Ev
00000000001fde2c W _ZNSt6__ndk123__match_any_but_newlineIwED0Ev
0000000000138c94 W _ZNSt6__ndk126__end_marked_subexpressionIcED0Ev
000000000020318c W _ZNSt6__ndk126__end_marked_subexpressionIwED0Ev
0000000000138c18 W _ZNSt6__ndk128__begin_marked_subexpressionIcED0Ev
0000000000203110 W _ZNSt6__ndk128__begin_marked_subexpressionIwED0Ev
0000000000120040 W _ZNSt6__ndk13mapIiP13llama_samplerNS_4lessIiEENS_9allocatorINS_4pairIKiS2_EEEEE6insertB8ne210000INS_20__map_const_iteratorINS_21__tree_const_iteratorINS_12__value_typeIiS2_EEPNS_11__tree_nodeISF_PvEElEEEEEEvT_SM_
0000000000185324 W _ZNSt6__ndk13setIiNS_4lessIiEENS_9allocatorIiEEE6insertB8ne210000INS_21__tree_const_iteratorIiPNS_11__tree_nodeIiPvEElEEEEvT_SD_
00000000000fedbc W _ZNSt6__ndk14pairIKNS_12basic_stringIcNS_11char_traitsIcEENS_9allocatorIcEEEES6_EC2B8ne210000IRPKcRS7_TnNS_9enable_ifIXclsr10_CheckArgsE23__is_pair_constructibleIT_T0_EEEiE4typeELi0EEEOSF_OSG_
00000000001f2780 W _ZNSt6__ndk14pairIKNS_12basic_stringIcNS_11char_traitsIcEENS_9allocatorIcEEEEiEC2B8ne210000IRA6_KcN17unicode_cpt_flagsUt_ETnNS_9enable_ifIXclsr10_CheckArgsE23__is_pair_constructibleIT_T0_EEEiE4typeELi0EEEOSG_OSH_
00000000001f282c W _ZNSt6__ndk14pairIKNS_12basic_stringIcNS_11char_traitsIcEENS_9allocatorIcEEEEiEC2B8ne210000IRA7_KcN17unicode_cpt_flagsUt_ETnNS_9enable_ifIXclsr10_CheckArgsE23__is_pair_constructibleIT_T0_EEEiE4typeELi0EEEOSG_OSH_
00000000001f2d68 W _ZNSt6__ndk14pairIKiNS_12basic_stringIcNS_11char_traitsIcEENS_9allocatorIcEEEEEC2B8ne210000IN17unicode_cpt_flagsUt_ERA12_KcTnNS_9enable_ifIXclsr10_CheckArgsE23__is_pair_constructibleIT_T0_EEEiE4typeELi0EEEOSG_OSH_
00000000001f2cac W _ZNSt6__ndk14pairIKiNS_12basic_stringIcNS_11char_traitsIcEENS_9allocatorIcEEEEEC2B8ne210000IN17unicode_cpt_flagsUt_ERA1_KcTnNS_9enable_ifIXclsr10_CheckArgsE23__is_pair_constructibleIT_T0_EEEiE4typeELi0EEEOSG_OSH_
00000000001f2bf0 W _ZNSt6__ndk14pairIKiNS_12basic_stringIcNS_11char_traitsIcEENS_9allocatorIcEEEEEC2B8ne210000IN17unicode_cpt_flagsUt_ERA26_KcTnNS_9enable_ifIXclsr10_CheckArgsE23__is_pair_constructibleIT_T0_EEEiE4typeELi0EEEOSG_OSH_
00000000001f2a78 W _ZNSt6__ndk14pairIKiNS_12basic_stringIcNS_11char_traitsIcEENS_9allocatorIcEEEEEC2B8ne210000IN17unicode_cpt_flagsUt_ERA4_KcTnNS_9enable_ifIXclsr10_CheckArgsE23__is_pair_constructibleIT_T0_EEEiE4typeELi0EEEOSG_OSH_
00000000001f2b34 W _ZNSt6__ndk14pairIKiNS_12basic_stringIcNS_11char_traitsIcEENS_9allocatorIcEEEEEC2B8ne210000IN17unicode_cpt_flagsUt_ERA7_KcTnNS_9enable_ifIXclsr10_CheckArgsE23__is_pair_constructibleIT_T0_EEEiE4typeELi0EEEOSG_OSH_
00000000001363bc W _ZNSt6__ndk14pairINS_12basic_stringIcNS_11char_traitsIcEENS_9allocatorIcEEEES6_ED2Ev
00000000001ffee0 W _ZNSt6__ndk14pairINS_12basic_stringIwNS_11char_traitsIwEENS_9allocatorIwEEEES6_ED2Ev
00000000001390d0 W _ZNSt6__ndk16__loopIcED0Ev
0000000000203530 W _ZNSt6__ndk16__loopIwED0Ev
000000000010206c W _ZNSt6__ndk16__treeINS_12__value_typeI10llm_tensor15llm_tensor_infoEENS_19__map_value_compareIS2_S4_NS_4lessIS2_EELb1EEENS_9allocatorIS4_EEE12__find_equalIS2_EERPNS_16__tree_node_baseIPvEENS_21__tree_const_iteratorIS4_PNS_11__tree_nodeIS4_SE_EElEERPNS_15__tree_end_nodeISG_EESH_RKT_
0000000000101e74 W _ZNSt6__ndk16__treeINS_12__value_typeI10llm_tensorPKcEENS_19__map_value_compareIS2_S5_NS_4lessIS2_EELb1EEENS_9allocatorIS5_EEE12__find_equalIS2_EERPNS_16__tree_node_baseIPvEENS_21__tree_const_iteratorIS5_PNS_11__tree_nodeIS5_SF_EElEERPNS_15__tree_end_nodeISH_EESI_RKT_
00000000001b33e0 W _ZNSt6__ndk16__treeINS_12__value_typeI23llama_rope_scaling_typePKcEENS_19__map_value_compareIS2_S5_NS_4lessIS2_EELb1EEENS_9allocatorIS5_EEE12__find_equalIS2_EERPNS_16__tree_node_baseIPvEENS_21__tree_const_iteratorIS5_PNS_11__tree_nodeIS5_SF_EElEERPNS_15__tree_end_nodeISH_EESI_RKT_
0000000000101c7c W _ZNSt6__ndk16__treeINS_12__value_typeI6llm_kvPKcEENS_19__map_value_compareIS2_S5_NS_4lessIS2_EELb1EEENS_9allocatorIS5_EEE12__find_equalIS2_EERPNS_16__tree_node_baseIPvEENS_21__tree_const_iteratorIS5_PNS_11__tree_nodeIS5_SF_EElEERPNS_15__tree_end_nodeISH_EESI_RKT_
0000000000101a84 W _ZNSt6__ndk16__treeINS_12__value_typeI8llm_archPKcEENS_19__map_value_compareIS2_S5_NS_4lessIS2_EELb1EEENS_9allocatorIS5_EEE12__find_equalIS2_EERPNS_16__tree_node_baseIPvEENS_21__tree_const_iteratorIS5_PNS_11__tree_nodeIS5_SF_EElEERPNS_15__tree_end_nodeISH_EESI_RKT_
00000000001b3710 W _ZNSt6__ndk16__treeINS_12__value_typeINS_12basic_stringIcNS_11char_traitsIcEENS_9allocatorIcEEEE15llm_ffn_op_typeEENS_19__map_value_compareIS7_S9_NS_4lessIS7_EELb1EEENS5_IS9_EEE12__find_equalIS7_EERPNS_16__tree_node_baseIPvEENS_21__tree_const_iteratorIS9_PNS_11__tree_nodeIS9_SI_EElEERPNS_15__tree_end_nodeISK_EESL_RKT_
00000000001b35d8 W _ZNSt6__ndk16__treeINS_12__value_typeINS_12basic_stringIcNS_11char_traitsIcEENS_9allocatorIcEEEE15llm_ffn_op_typeEENS_19__map_value_compareIS7_S9_NS_4lessIS7_EELb1EEENS5_IS9_EEE30__emplace_hint_unique_key_argsIS7_JRKNS_4pairIKS7_S8_EEEEENSH_INS_15__tree_iteratorIS9_PNS_11__tree_nodeIS9_PvEElEEbEENS_21__tree_const_iteratorIS9_SQ_lEERKT_DpOT0_
0000000000110164 W _ZNSt6__ndk16__treeINS_12__value_typeINS_12basic_stringIcNS_11char_traitsIcEENS_9allocatorIcEEEE17llm_chat_templateEENS_19__map_value_compareIS7_S9_NS_4lessIS7_EELb1EEENS5_IS9_EEE12__find_equalIS7_EERPNS_16__tree_node_baseIPvEENS_21__tree_const_iteratorIS9_PNS_11__tree_nodeIS9_SI_EElEERPNS_15__tree_end_nodeISK_EESL_RKT_
000000000011002c W _ZNSt6__ndk16__treeINS_12__value_typeINS_12basic_stringIcNS_11char_traitsIcEENS_9allocatorIcEEEE17llm_chat_templateEENS_19__map_value_compareIS7_S9_NS_4lessIS7_EELb1EEENS5_IS9_EEE30__emplace_hint_unique_key_argsIS7_JRKNS_4pairIKS7_S8_EEEEENSH_INS_15__tree_iteratorIS9_PNS_11__tree_nodeIS9_PvEElEEbEENS_21__tree_const_iteratorIS9_SQ_lEERKT_DpOT0_
00000000000ffa20 W _ZNSt6__ndk16__treeINS_12__value_typeINS_12basic_stringIcNS_11char_traitsIcEENS_9allocatorIcEEEE25llama_adapter_lora_weightEENS_19__map_value_compareIS7_S9_NS_4lessIS7_EELb1EEENS5_IS9_EEE25__emplace_unique_key_argsIS7_JRKNS_21piecewise_construct_tENS_5tupleIJRKS7_EEENSK_IJEEEEEENS_4pairINS_15__tree_iteratorIS9_PNS_11__tree_nodeIS9_PvEElEEbEERKT_DpOT0_
00000000000ff91c W _ZNSt6__ndk16__treeINS_12__value_typeINS_12basic_stringIcNS_11char_traitsIcEENS_9allocatorIcEEEE25llama_adapter_lora_weightEENS_19__map_value_compareIS7_S9_NS_4lessIS7_EELb1EEENS5_IS9_EEE4findIS7_EENS_15__tree_iteratorIS9_PNS_11__tree_nodeIS9_PvEElEERKT_
0000000000199388 W _ZNSt6__ndk16__treeINS_12__value_typeINS_12basic_stringIcNS_11char_traitsIcEENS_9allocatorIcEEEEN18llama_model_loader19llama_tensor_weightEEENS_19__map_value_compareIS7_SA_NS8_20weight_name_comparerELb1EEENS5_ISA_EEE25__emplace_unique_key_argsIS7_JRS7_S9_EEENS_4pairINS_15__tree_iteratorISA_PNS_11__tree_nodeISA_PvEElEEbEERKT_DpOT0_
00000000001de914 W _ZNSt6__ndk16__treeINS_12__value_typeINS_12basic_stringIcNS_11char_traitsIcEENS_9allocatorIcEEEENS_4pairIiiEEEENS_19__map_value_compareIS7_SA_NS_4lessIS7_EELb1EEENS5_ISA_EEE25__emplace_unique_key_argsIS7_JRKNS_21piecewise_construct_tENS_5tupleIJRKS7_EEENSL_IJEEEEEENS8_INS_15__tree_iteratorISA_PNS_11__tree_nodeISA_PvEElEEbEERKT_DpOT0_
00000000001ded70 W _ZNSt6__ndk16__treeINS_12__value_typeINS_12basic_stringIcNS_11char_traitsIcEENS_9allocatorIcEEEENS_4pairIiiEEEENS_19__map_value_compareIS7_SA_NS_4lessIS7_EELb1EEENS5_ISA_EEE4findIS7_EENS_15__tree_iteratorISA_PNS_11__tree_nodeISA_PvEElEERKT_
00000000001f9b14 W _ZNSt6__ndk16__treeINS_12__value_typeINS_12basic_stringIcNS_11char_traitsIcEENS_9allocatorIcEEEEiEENS_19__map_value_compareIS7_S8_NS_4lessIS7_EELb1EEENS5_IS8_EEE12__find_equalIS7_EERPNS_16__tree_node_baseIPvEENS_21__tree_const_iteratorIS8_PNS_11__tree_nodeIS8_SH_EElEERPNS_15__tree_end_nodeISJ_EESK_RKT_
00000000001f99dc W _ZNSt6__ndk16__treeINS_12__value_typeINS_12basic_stringIcNS_11char_traitsIcEENS_9allocatorIcEEEEiEENS_19__map_value_compareIS7_S8_NS_4lessIS7_EELb1EEENS5_IS8_EEE30__emplace_hint_unique_key_argsIS7_JRKNS_4pairIKS7_iEEEEENSG_INS_15__tree_iteratorIS8_PNS_11__tree_nodeIS8_PvEElEEbEENS_21__tree_const_iteratorIS8_SP_lEERKT_DpOT0_
00000000001315bc W _ZNSt6__ndk16__treeINS_12__value_typeINS_12basic_stringIcNS_11char_traitsIcEENS_9allocatorIcEEEEjEENS_19__map_value_compareIS7_S8_NS_4lessIS7_EELb1EEENS5_IS8_EEE25__emplace_unique_key_argsIS7_JRKNS_21piecewise_construct_tENS_5tupleIJOS7_EEENSJ_IJEEEEEENS_4pairINS_15__tree_iteratorIS8_PNS_11__tree_nodeIS8_PvEElEEbEERKT_DpOT0_
000000000013143c W _ZNSt6__ndk16__treeINS_12__value_typeINS_12basic_stringIcNS_11char_traitsIcEENS_9allocatorIcEEEEjEENS_19__map_value_compareIS7_S8_NS_4lessIS7_EELb1EEENS5_IS8_EEE25__emplace_unique_key_argsIS7_JS7_RjEEENS_4pairINS_15__tree_iteratorIS8_PNS_11__tree_nodeIS8_PvEElEEbEERKT_DpOT0_
0000000000131c24 W _ZNSt6__ndk16__treeINS_12__value_typeINS_12basic_stringIcNS_11char_traitsIcEENS_9allocatorIcEEEEjEENS_19__map_value_compareIS7_S8_NS_4lessIS7_EELb1EEENS5_IS8_EEE4findIS7_EENS_15__tree_iteratorIS8_PNS_11__tree_nodeIS8_PvEElEERKT_
0000000000196f24 W _ZNSt6__ndk16__treeINS_12__value_typeIP24ggml_backend_buffer_typeNS_10unique_ptrI12ggml_context20ggml_context_deleterEEEENS_19__map_value_compareIS3_S8_N18llama_model_loader28ggml_backend_buft_comparatorELb1EEENS_9allocatorIS8_EEE12__find_equalIS3_EERPNS_16__tree_node_baseIPvEERPNS_15__tree_end_nodeISK_EERKT_
0000000000196e74 W _ZNSt6__ndk16__treeINS_12__value_typeIP24ggml_backend_buffer_typeNS_10unique_ptrI12ggml_context20ggml_context_deleterEEEENS_19__map_value_compareIS3_S8_N18llama_model_loader28ggml_backend_buft_comparatorELb1EEENS_9allocatorIS8_EEE4findIS3_EENS_15__tree_iteratorIS8_PNS_11__tree_nodeIS8_PvEElEERKT_
00000000001fa2ac W _ZNSt6__ndk16__treeINS_12__value_typeIiNS_12basic_stringIcNS_11char_traitsIcEENS_9allocatorIcEEEEEENS_19__map_value_compareIiS8_NS_4lessIiEELb1EEENS5_IS8_EEE12__find_equalIiEERPNS_16__tree_node_baseIPvEENS_21__tree_const_iteratorIS8_PNS_11__tree_nodeIS8_SH_EElEERPNS_15__tree_end_nodeISJ_EESK_RKT_
00000000001fa170 W _ZNSt6__ndk16__treeINS_12__value_typeIiNS_12basic_stringIcNS_11char_traitsIcEENS_9allocatorIcEEEEEENS_19__map_value_compareIiS8_NS_4lessIiEELb1EEENS5_IS8_EEE30__emplace_hint_unique_key_argsIiJRKNS_4pairIKiS7_EEEEENSG_INS_15__tree_iteratorIS8_PNS_11__tree_nodeIS8_PvEElEEbEENS_21__tree_const_iteratorIS8_SP_lEERKT_DpOT0_
000000000012015c W _ZNSt6__ndk16__treeINS_12__value_typeIiP13llama_samplerEENS_19__map_value_compareIiS4_NS_4lessIiEELb1EEENS_9allocatorIS4_EEE12__find_equalIiEERPNS_16__tree_node_baseIPvEENS_21__tree_const_iteratorIS4_PNS_11__tree_nodeIS4_SE_EElEERPNS_15__tree_end_nodeISG_EESH_RKT_
000000000014ab94 W _ZNSt6__ndk16__treeINS_12__value_typeIiP13llama_samplerEENS_19__map_value_compareIiS4_NS_4lessIiEELb1EEENS_9allocatorIS4_EEE14__assign_multiINS_21__tree_const_iteratorIS4_PNS_11__tree_nodeIS4_PvEElEEEEvT_SJ_
00000000001f9fc0 W _ZNSt6__ndk16__treeINS_12__value_typeIiiEENS_19__map_value_compareIiS2_NS_4lessIiEELb1EEENS_9allocatorIS2_EEE12__find_equalIiEERPNS_16__tree_node_baseIPvEENS_21__tree_const_iteratorIS2_PNS_11__tree_nodeIS2_SC_EElEERPNS_15__tree_end_nodeISE_EESF_RKT_
0000000000185440 W _ZNSt6__ndk16__treeIiNS_4lessIiEENS_9allocatorIiEEE12__find_equalIiEERPNS_16__tree_node_baseIPvEENS_21__tree_const_iteratorIiPNS_11__tree_nodeIiS8_EElEERPNS_15__tree_end_nodeISA_EESB_RKT_
000000000029538c T _ZNSt6__ndk16chrono12steady_clock3nowEv
00000000000bf59b V _ZNSt6__ndk16chrono12steady_clock9is_steadyE
0000000000295378 T _ZNSt6__ndk16chrono12system_clock11from_time_tEl
00000000002952d8 T _ZNSt6__ndk16chrono12system_clock3nowEv
00000000000bf59a V _ZNSt6__ndk16chrono12system_clock9is_steadyE
0000000000295350 T _ZNSt6__ndk16chrono12system_clock9to_time_tERKNS0_10time_pointIS1_NS0_8durationIxNS_5ratioILl1ELl1000000EEEEEEE
00000000001ebc98 W _ZNSt6__ndk16vectorI10llm_symbolNS_9allocatorIS1_EEE18__assign_with_sizeB8ne210000IPS1_S6_EEvT_T0_l
00000000000faf70 W _ZNSt6__ndk16vectorI12llama_deviceNS_9allocatorIS1_EEE18__insert_with_sizeB8ne210000INS_11__wrap_iterIPS1_EES8_EES8_NS6_IPKS1_EET_T0_l
0000000000167130 W _ZNSt6__ndk16vectorI12llama_ubatchNS_9allocatorIS1_EEE24__emplace_back_slow_pathIJS1_EEEPS1_DpOT_
00000000001eb604 W _ZNSt6__ndk16vectorI14llm_bigram_bpeNS_9allocatorIS1_EEE24__emplace_back_slow_pathIJRKS1_EEEPS1_DpOT_
00000000001318d4 W _ZNSt6__ndk16vectorI21llama_grammar_elementNS_9allocatorIS1_EEE18__assign_with_sizeB8ne210000IPS1_S6_EEvT_T0_l
000000000012d05c W _ZNSt6__ndk16vectorI21llama_grammar_elementNS_9allocatorIS1_EEE18__insert_with_sizeB8ne210000INS_11__wrap_iterIPS1_EES8_EES8_NS6_IPKS1_EET_T0_l
0000000000131d28 W _ZNSt6__ndk16vectorI29llama_grammar_trigger_patternNS_9allocatorIS1_EEE24__emplace_back_slow_pathIJEEEPS1_DpOT_
00000000001664c8 W _ZNSt6__ndk16vectorIN14llama_kv_cache8kv_layerENS_9allocatorIS2_EEE24__emplace_back_slow_pathIJRKS2_EEEPS2_DpOT_
0000000000166994 W _ZNSt6__ndk16vectorIN14llama_kv_cache8kv_layerENS_9allocatorIS2_EEE24__emplace_back_slow_pathIJS2_EEEPS2_DpOT_
000000000017bacc W _ZNSt6__ndk16vectorIN14llama_kv_cache9slot_infoENS_9allocatorIS2_EEE18__assign_with_sizeB8ne210000IPS2_S7_EEvT_T0_l
00000000001673fc W _ZNSt6__ndk16vectorIN14llama_kv_cache9slot_infoENS_9allocatorIS2_EEE24__emplace_back_slow_pathIJRKS2_EEEPS2_DpOT_
000000000017b030 W _ZNSt6__ndk16vectorIN14llama_kv_cache9slot_infoENS_9allocatorIS2_EEE24__emplace_back_slow_pathIJS2_EEEPS2_DpOT_
000000000017b25c W _ZNSt6__ndk16vectorIN21llama_dsv4_comp_state5layerENS_9allocatorIS2_EEE24__emplace_back_slow_pathIJS2_EEEPS2_DpOT_
0000000000185114 W _ZNSt6__ndk16vectorIN22llama_memory_recurrent8mem_cellENS_9allocatorIS2_EEE16__init_with_sizeB8ne210000IPS2_S7_EEvT_T0_m
000000000017c2ec W _ZNSt6__ndk16vectorIN27llama_kv_cache_dsv4_context9comp_planENS_9allocatorIS2_EEE16__init_with_sizeB8ne210000IPS2_S7_EEvT_T0_m
0000000000179378 W _ZNSt6__ndk16vectorIN27llama_kv_cache_dsv4_context9comp_planENS_9allocatorIS2_EEE24__emplace_back_slow_pathIJS2_EEEPS2_DpOT_
000000000012d414 W _ZNSt6__ndk16vectorINS0_IPK21llama_grammar_elementNS_9allocatorIS3_EEEENS4_IS6_EEE24__emplace_back_slow_pathIJRKS6_EEEPS6_DpOT_
000000000013a8b0 W _ZNSt6__ndk16vectorINS0_IPK21llama_grammar_elementNS_9allocatorIS3_EEEENS4_IS6_EEE24__emplace_back_slow_pathIJRS6_EEEPS6_DpOT_
000000000017bf8c W _ZNSt6__ndk16vectorINS0_IjNS_9allocatorIjEEEENS1_IS3_EEE18__assign_with_sizeB8ne210000IPS3_S7_EEvT_T0_l
00000000001e4324 W _ZNSt6__ndk16vectorINS_12basic_stringIcNS_11char_traitsIcEENS_9allocatorIcEEEENS4_IS6_EEE18__assign_with_sizeB8ne210000IPKS6_SB_EEvT_T0_l
0000000000138350 W _ZNSt6__ndk16vectorINS_12basic_stringIcNS_11char_traitsIcEENS_9allocatorIcEEEENS4_IS6_EEE24__emplace_back_slow_pathIJRKS6_EEEPS6_DpOT_
00000000001f9828 W _ZNSt6__ndk16vectorINS_12basic_stringIcNS_11char_traitsIcEENS_9allocatorIcEEEENS4_IS6_EEE24__emplace_back_slow_pathIJRS6_EEEPS6_DpOT_
00000000002026d8 W _ZNSt6__ndk16vectorINS_12basic_stringIwNS_11char_traitsIwEENS_9allocatorIwEEEENS4_IS6_EEE24__emplace_back_slow_pathIJRKS6_EEEPS6_DpOT_
00000000001aaf68 W _ZNSt6__ndk16vectorINS_4pairINS_10unique_ptrI12ggml_context20ggml_context_deleterEENS0_INS2_I19ggml_backend_buffer27ggml_backend_buffer_deleterEENS_9allocatorIS8_EEEEEENS9_ISC_EEE12emplace_backIJS5_SB_EEERSC_DpOT_
00000000001c02ac W _ZNSt6__ndk16vectorINS_4pairINS_11basic_regexIcNS_12regex_traitsIcEEEE9ggml_typeEENS_9allocatorIS7_EEE24__emplace_back_slow_pathIJS5_RKS6_EEEPS7_DpOT_
00000000001b49e8 W _ZNSt6__ndk16vectorINS_4pairINS_12basic_stringIcNS_11char_traitsIcEENS_9allocatorIcEEEEP11ggml_tensorEENS5_ISA_EEE24__emplace_back_slow_pathIJPKcRS9_EEEPSA_DpOT_
00000000001b5328 W _ZNSt6__ndk16vectorINS_4pairIP12ggml_contextNS_13unordered_mapIjP19ggml_backend_bufferNS_4hashIjEENS_8equal_toIjEENS_9allocatorINS1_IKjS6_EEEEEEEENSB_ISG_EEE24__emplace_back_slow_pathIJRS3_RSF_EEEPSG_DpOT_
00000000001b41a8 W _ZNSt6__ndk16vectorINS_4pairIP19ggml_backend_deviceP24ggml_backend_buffer_typeEENS_9allocatorIS6_EEE18__insert_with_sizeB8ne210000INS_11__wrap_iterIPS6_EESD_EESD_NSB_IPKS6_EET_T0_l
0000000000130fe8 W _ZNSt6__ndk16vectorINS_4pairImPKcEENS_9allocatorIS4_EEE18__assign_with_sizeB8ne210000IPS4_S9_EEvT_T0_l
0000000000206d94 W _ZNSt6__ndk16vectorINS_4pairImPKwEENS_9allocatorIS4_EEE18__assign_with_sizeB8ne210000IPS4_S9_EEvT_T0_l
000000000012f75c W _ZNSt6__ndk16vectorINS_7__stateIcEENS_9allocatorIS2_EEE24__emplace_back_slow_pathIJS2_EEEPS2_DpOT_
00000000001fd45c W _ZNSt6__ndk16vectorINS_7__stateIwEENS_9allocatorIS2_EEE24__emplace_back_slow_pathIJS2_EEEPS2_DpOT_
0000000000130de4 W _ZNSt6__ndk16vectorINS_9sub_matchIPKcEENS_9allocatorIS4_EEE18__assign_with_sizeB8ne210000IPS4_S9_EEvT_T0_l
0000000000206b90 W _ZNSt6__ndk16vectorINS_9sub_matchIPKwEENS_9allocatorIS4_EEE18__assign_with_sizeB8ne210000IPS4_S9_EEvT_T0_l
0000000000196fe0 W _ZNSt6__ndk16vectorIP18ggml_backend_eventNS_9allocatorIS2_EEE12emplace_backIJRS2_EEES7_DpOT_
00000000001e1714 W _ZNSt6__ndk16vectorIcNS_9allocatorIcEEE18__assign_with_sizeB8ne210000IPKcS6_EEvT_T0_l
00000000001b3f98 W _ZNSt6__ndk16vectorIfNS_9allocatorIfEEE18__assign_with_sizeB8ne210000IPKfS6_EEvT_T0_l
0000000000197104 W _ZNSt6__ndk16vectorIiNS_9allocatorIiEEE18__assign_with_sizeB8ne210000IPKiS6_EEvT_T0_l
0000000000178ad0 W _ZNSt6__ndk16vectorIiNS_9allocatorIiEEE18__assign_with_sizeB8ne210000IPiS5_EEvT_T0_l
00000000001091d8 W _ZNSt6__ndk16vectorIiNS_9allocatorIiEEE18__insert_with_sizeB8ne210000INS_11__wrap_iterIPiEES7_EES7_NS5_IPKiEET_T0_l
00000000001ee310 W _ZNSt6__ndk16vectorIjNS_9allocatorIjEEE12emplace_backIJiEEERjDpOT_
0000000000178e18 W _ZNSt6__ndk16vectorIjNS_9allocatorIjEEE18__assign_with_sizeB8ne210000IPjS5_EEvT_T0_l
000000000012f4f0 W _ZNSt6__ndk17__stateIcEC2ERKS1_
000000000012f450 W _ZNSt6__ndk17__stateIcED2Ev
00000000001fd23c W _ZNSt6__ndk17__stateIwEC2ERKS1_
00000000001fd1e8 W _ZNSt6__ndk17__stateIwED2Ev
00000000001659e8 W _ZNSt6__ndk19allocatorI14llama_kv_cellsE9constructB8ne210000IS1_JS1_EEEvPT_DpOT0_
00000000002a93d0 D _ZTI11llama_model
00000000002a9d58 V _ZTI13llm_tokenizer
00000000002a8498 D _ZTI14llama_kv_cache
00000000002a84b0 V _ZTI14llama_memory_i
00000000002afec0 D _ZTI14llama_model_t5
00000000002a7300 V _ZTI15llama_io_read_i
00000000002adf98 D _ZTI15llama_model_mpt
00000000002aeda8 D _ZTI15llama_model_plm
00000000002a7250 V _ZTI16llama_io_write_i
00000000002a93b8 D _ZTI16llama_model_base
00000000002aac38 D _ZTI16llama_model_bert
00000000002ab300 D _ZTI16llama_model_dbrx
00000000002ab3a8 D _ZTI16llama_model_deci
00000000002ac668 D _ZTI16llama_model_glm4
00000000002ac710 D _ZTI16llama_model_gpt2
00000000002aca20 D _ZTI16llama_model_grok
00000000002aceb8 D _ZTI16llama_model_jais
00000000002ad300 D _ZTI16llama_model_lfm2
00000000002ae388 D _ZTI16llama_model_olmo
00000000002ae900 D _ZTI16llama_model_phi2
00000000002ae9c8 D _ZTI16llama_model_phi3
00000000002aee50 D _ZTI16llama_model_qwen
00000000002af6a0 D _ZTI16llama_model_rnd1
00000000002a82a0 V _ZTI16llm_graph_result
00000000002aa6e0 D _ZTI17llama_model_afmoe
00000000002aa830 D _ZTI17llama_model_arcee
00000000002aad88 D _ZTI17llama_model_bloom
00000000002ab878 D _ZTI17llama_model_dots1
00000000002ab920 D _ZTI17llama_model_dream
00000000002ac0e0 D _ZTI17llama_model_gemma
00000000002acd50 D _ZTI17llama_model_hy_v3
00000000002acf60 D _ZTI17llama_model_jais2
00000000002ad008 D _ZTI17llama_model_jamba
00000000002ad4d8 D _ZTI17llama_model_llada
00000000002ad610 D _ZTI17llama_model_llama
00000000002ad978 D _ZTI17llama_model_mamba
00000000002adb70 D _ZTI17llama_model_mimo2
00000000002ae450 D _ZTI17llama_model_olmo2
00000000002ae510 D _ZTI17llama_model_olmoe
00000000002ae708 D _ZTI17llama_model_orion
00000000002aeaf8 D _ZTI17llama_model_plamo
00000000002aeef8 D _ZTI17llama_model_qwen2
00000000002af0f0 D _ZTI17llama_model_qwen3
00000000002af780 D _ZTI17llama_model_rwkv6
00000000002af8f0 D _ZTI17llama_model_rwkv7
00000000002a82b0 V _ZTI17llm_graph_context
00000000002a7ca8 V _ZTI17llm_graph_input_i
00000000002a9d88 V _ZTI17llm_tokenizer_bpe
00000000002a9d40 V _ZTI17llm_tokenizer_spm
00000000002a9df8 V _ZTI17llm_tokenizer_ugm
00000000002a9dc0 V _ZTI17llm_tokenizer_wpm
00000000002a7348 V _ZTI18llama_io_read_file
00000000002a72e8 V _ZTI18llama_io_read_host
00000000002a8870 D _ZTI18llama_kv_cache_dsa
00000000002aa8d8 D _ZTI18llama_model_arctic
00000000002aa980 D _ZTI18llama_model_arwkv7
00000000002aace0 D _ZTI18llama_model_bitnet
00000000002ab028 D _ZTI18llama_model_cogvlm
00000000002ab7b8 D _ZTI18llama_model_dflash
00000000002ab9e8 D _ZTI18llama_model_eagle3
00000000002abd48 D _ZTI18llama_model_exaone
00000000002abf90 D _ZTI18llama_model_falcon
00000000002ac188 D _ZTI18llama_model_gemma2
00000000002ac250 D _ZTI18llama_model_gemma3
00000000002ac460 D _ZTI18llama_model_gemma4
00000000002ad238 D _ZTI18llama_model_laguna
00000000002ad6f0 D _ZTI18llama_model_llama4
00000000002ada00 D _ZTI18llama_model_mamba2
00000000002adab0 D _ZTI18llama_model_mellum
00000000002aea68 D _ZTI18llama_model_phimoe
00000000002aeba0 D _ZTI18llama_model_plamo2
00000000002aece8 D _ZTI18llama_model_plamo3
00000000002af1b8 D _ZTI18llama_model_qwen35
00000000002af5f8 D _ZTI18llama_model_refact
00000000002afde0 D _ZTI18llama_model_step35
00000000002afff0 D _ZTI18llama_model_talkie
00000000002b0140 D _ZTI18llama_model_xverse
00000000002a7f28 D _ZTI18llm_graph_input_rs
00000000002a9e30 V _ZTI18llm_tokenizer_rwkv
00000000002a7398 V _ZTI19llama_io_write_file
00000000002a7298 V _ZTI19llama_io_write_host
00000000002a89b8 D _ZTI19llama_kv_cache_dsv4
00000000002a8658 D _ZTI19llama_kv_cache_iswa
00000000002a8c58 D _ZTI19llama_memory_hybrid
00000000002aa788 D _ZTI19llama_model_apertus
00000000002aaed8 D _ZTI19llama_model_chatglm
00000000002ab0d0 D _ZTI19llama_model_cohere2
00000000002abe10 D _ZTI19llama_model_exaone4
00000000002ac310 D _ZTI19llama_model_gemma3n
00000000002ac530 D _ZTI19llama_model_glm_dsa
00000000002ac7b8 D _ZTI19llama_model_gptneox
00000000002ac978 D _ZTI19llama_model_granite
00000000002ad3a0 D _ZTI19llama_model_lfm2moe
00000000002adbf8 D _ZTI19llama_model_minicpm
00000000002ae660 D _ZTI19llama_model_openelm
00000000002af048 D _ZTI19llama_model_qwen2vl
00000000002af4a8 D _ZTI19llama_model_qwen3vl
00000000002afb20 D _ZTI19llama_model_smollm3
00000000002a7ee0 D _ZTI19llm_graph_input_cls
00000000002a7d30 D _ZTI19llm_graph_input_pos
00000000002a7518 V _ZTI20llama_io_read_device
00000000002a7238 V _ZTI20llama_io_write_dummy
00000000002aaa40 D _ZTI20llama_model_baichuan
00000000002ab450 D _ZTI20llama_model_deepseek
00000000002abb50 D _ZTI20llama_model_ernie4_5
00000000002abbf8 D _ZTI20llama_model_eurobert
00000000002ac5c0 D _ZTI20llama_model_glm4_moe
00000000002acac8 D _ZTI20llama_model_grovemoe
00000000002adc88 D _ZTI20llama_model_minicpm3
00000000002addd8 D _ZTI20llama_model_mistral3
00000000002ade60 D _ZTI20llama_model_mistral4
00000000002ae158 D _ZTI20llama_model_nemotron
00000000002ae200 D _ZTI20llama_model_neo_bert
00000000002aefa0 D _ZTI20llama_model_qwen2moe
00000000002af358 D _ZTI20llama_model_qwen3moe
00000000002af998 D _ZTI20llama_model_seed_oss
00000000002afbc8 D _ZTI20llama_model_stablelm
00000000002abf00 V _ZTI20llm_build_mamba_base
00000000002af6f0 V _ZTI20llm_build_rwkv6_base
00000000002aa9b0 V _ZTI20llm_build_rwkv7_base
00000000002a8120 D _ZTI20llm_graph_input_dsv4
00000000002a7c90 D _ZTI20llm_graph_input_embd
00000000002a7e98 D _ZTI20llm_graph_input_mean
00000000002a9e68 V _ZTI20llm_tokenizer_plamo2
00000000002a74c8 V _ZTI21llama_io_write_device
00000000002aae30 D _ZTI21llama_model_chameleon
00000000002aaf80 D _ZTI21llama_model_codeshell
00000000002ab258 D _ZTI21llama_model_command_r
00000000002ab4f8 D _ZTI21llama_model_deepseek2
00000000002ab6b8 D _ZTI21llama_model_deepseek4
00000000002abed0 D _ZTI21llama_model_falcon_h1
00000000002ace10 D _ZTI21llama_model_internlm2
00000000002ad430 D _ZTI21llama_model_llada_moe
00000000002ad7b0 D _ZTI21llama_model_maincoder
00000000002ae7b0 D _ZTI21llama_model_paddleocr
00000000002af298 D _ZTI21llama_model_qwen35moe
00000000002af400 D _ZTI21llama_model_qwen3next
00000000002afc70 D _ZTI21llama_model_starcoder
00000000002aff60 D _ZTI21llama_model_t5encoder
00000000002a8508 D _ZTI22llama_kv_cache_context
00000000002a8520 V _ZTI22llama_memory_context_i
00000000002a9068 D _ZTI22llama_memory_recurrent
00000000002aaae8 D _ZTI22llama_model_bailingmoe
00000000002ab198 D _ZTI22llama_model_cohere2moe
00000000002ab610 D _ZTI22llama_model_deepseek32
00000000002abca0 D _ZTI22llama_model_exaone_moe
00000000002acc88 D _ZTI22llama_model_hunyuan_vl
00000000002add30 D _ZTI22llama_model_minimax_m2
00000000002ae0b0 D _ZTI22llama_model_nemotron_h
00000000002ae2f8 D _ZTI22llama_model_nomic_bert
00000000002ae5b8 D _ZTI22llama_model_openai_moe
00000000002af550 D _ZTI22llama_model_qwen3vlmoe
00000000002af828 D _ZTI22llama_model_rwkv6qwen2
00000000002afd18 D _ZTI22llama_model_starcoder2
00000000002a8048 D _ZTI22llm_graph_input_attn_k
00000000002a7ce8 D _ZTI22llm_graph_input_embd_h
00000000002aab90 D _ZTI23llama_model_bailingmoe2
00000000002ac8e8 D _ZTI23llama_model_granite_moe
00000000002acbe0 D _ZTI23llama_model_hunyuan_moe
00000000002ad190 D _ZTI23llama_model_kimi_linear
00000000002ad560 D _ZTI23llama_model_llama_embed
00000000002adef0 D _ZTI23llama_model_modern_bert
00000000002ae858 D _ZTI23llama_model_pangu_embed
00000000002a8000 D _ZTI23llm_graph_input_attn_kv
00000000002a84f0 D _ZTI23llm_graph_input_k_shift
00000000002a7e50 D _ZTI23llm_graph_input_out_ids
00000000002a8e60 D _ZTI24llama_memory_hybrid_iswa
00000000002ab580 D _ZTI24llama_model_deepseek2ocr
00000000002abaa8 D _ZTI24llama_model_ernie4_5_moe
00000000002ad090 D _ZTI24llama_model_jina_bert_v2
00000000002ad100 D _ZTI24llama_model_jina_bert_v3
00000000002afa60 D _ZTI24llama_model_smallthinker
00000000002ab708 V _ZTI24llm_build_delta_net_base
00000000002a8288 D _ZTI24llm_graph_input_sampling
00000000002acb50 D _ZTI25llama_model_hunyuan_dense
00000000002a7d78 D _ZTI25llm_graph_input_attn_temp
00000000002a9ec0 V _ZTI25llm_tokenizer_bpe_session
00000000002a8888 D _ZTI26llama_kv_cache_dsa_context
00000000002ac860 D _ZTI26llama_model_granite_hybrid
00000000002ae020 D _ZTI26llama_model_nemotron_h_moe
00000000002ae288 D _ZTI26llama_model_nomic_bert_moe
00000000002a8168 D _ZTI26llm_graph_input_attn_cross
00000000002a8090 D _ZTI26llm_graph_input_attn_k_dsa
00000000002a7f70 D _ZTI26llm_graph_input_cross_embd
00000000002a81b0 D _ZTI26llm_graph_input_mem_hybrid
00000000002a7dc0 D _ZTI26llm_graph_input_pos_bucket
00000000002a89e8 D _ZTI27llama_kv_cache_dsv4_context
00000000002a8670 D _ZTI27llama_kv_cache_iswa_context
00000000002a8c70 D _ZTI27llama_memory_hybrid_context
00000000002ac038 D _ZTI27llama_model_gemma_embedding
00000000002ac4c0 V _ZTI27llm_graph_input_logits_bias
00000000002ac3b8 D _ZTI28llama_model_gemma4_assistant
00000000002b0098 D _ZTI28llama_model_wavtokenizer_dec
00000000002a80d8 D _ZTI28llm_graph_input_attn_kv_iswa
00000000002a81f8 D _ZTI28llm_graph_input_mem_hybrid_k
00000000002a7fb8 D _ZTI29llm_graph_input_attn_no_cache
00000000002a7e08 D _ZTI29llm_graph_input_pos_bucket_kv
00000000002a9080 D _ZTI30llama_memory_recurrent_context
00000000002a89d0 D _ZTI31llama_kv_cache_dsv4_raw_context
00000000002a8240 D _ZTI31llm_graph_input_mem_hybrid_iswa
00000000002a9ea8 V _ZTI31llm_tokenizer_hybriddna_session
00000000002a8e78 D _ZTI32llama_memory_hybrid_iswa_context
00000000002a9f20 V _ZTI32llm_tokenizer_whitespace_session
00000000002a8390 V _ZTIFP11ggml_tensorP12ggml_contextS0_S0_E
00000000002afed8 V _ZTIN14llama_model_t55graphILb0EEE
00000000002afef0 V _ZTIN14llama_model_t55graphILb1EEE
00000000002adfb0 V _ZTIN15llama_model_mpt5graphE
00000000002aedc0 V _ZTIN15llama_model_plm5graphE
00000000002aac50 V _ZTIN16llama_model_bert5graphE
00000000002ab318 V _ZTIN16llama_model_dbrx5graphE
00000000002ab3c0 V _ZTIN16llama_model_deci5graphE
00000000002ac680 V _ZTIN16llama_model_glm45graphE
00000000002ac728 V _ZTIN16llama_model_gpt25graphE
00000000002aca38 V _ZTIN16llama_model_grok5graphE
00000000002aced0 V _ZTIN16llama_model_jais5graphE
00000000002ad330 V _ZTIN16llama_model_lfm25graphILb0EEE
00000000002ad318 V _ZTIN16llama_model_lfm25graphILb1EEE
00000000002ae3a0 V _ZTIN16llama_model_olmo5graphE
00000000002ae918 V _ZTIN16llama_model_phi25graphE
00000000002ae9e0 V _ZTIN16llama_model_phi35graphILb0EEE
00000000002ae9f8 V _ZTIN16llama_model_phi35graphILb1EEE
00000000002aee68 V _ZTIN16llama_model_qwen5graphE
00000000002af6b8 V _ZTIN16llama_model_rnd15graphE
00000000002aa6f8 V _ZTIN17llama_model_afmoe5graphE
00000000002aa848 V _ZTIN17llama_model_arcee5graphE
00000000002aada0 V _ZTIN17llama_model_bloom5graphE
00000000002ab890 V _ZTIN17llama_model_dots15graphE
00000000002ab938 V _ZTIN17llama_model_dream5graphE
00000000002ac0f8 V _ZTIN17llama_model_gemma5graphE
00000000002acd68 V _ZTIN17llama_model_hy_v35graphE
00000000002acd80 V _ZTIN17llama_model_hy_v39graph_mtpE
00000000002acf78 V _ZTIN17llama_model_jais25graphE
00000000002ad020 V _ZTIN17llama_model_jamba5graphE
00000000002ad4f0 V _ZTIN17llama_model_llada5graphE
00000000002ad628 V _ZTIN17llama_model_llama5graphILb0EEE
00000000002ad640 V _ZTIN17llama_model_llama5graphILb1EEE
00000000002ad990 V _ZTIN17llama_model_mamba5graphE
00000000002adb88 V _ZTIN17llama_model_mimo25graphE
00000000002ae468 V _ZTIN17llama_model_olmo25graphILb0EEE
00000000002ae480 V _ZTIN17llama_model_olmo25graphILb1EEE
00000000002ae528 V _ZTIN17llama_model_olmoe5graphE
00000000002ae720 V _ZTIN17llama_model_orion5graphE
00000000002aeb10 V _ZTIN17llama_model_plamo5graphE
00000000002aef10 V _ZTIN17llama_model_qwen25graphE
00000000002af108 V _ZTIN17llama_model_qwen35graphE
00000000002af798 V _ZTIN17llama_model_rwkv65graphE
00000000002af908 V _ZTIN17llama_model_rwkv75graphE
00000000002aa8f0 V _ZTIN18llama_model_arctic5graphE
00000000002aa998 V _ZTIN18llama_model_arwkv75graphE
00000000002aacf8 V _ZTIN18llama_model_bitnet5graphE
00000000002ab040 V _ZTIN18llama_model_cogvlm5graphE
00000000002ab7e8 V _ZTIN18llama_model_dflash5graphILb0EEE
00000000002ab7d0 V _ZTIN18llama_model_dflash5graphILb1EEE
00000000002aba18 V _ZTIN18llama_model_eagle35graphILb0EEE
00000000002aba00 V _ZTIN18llama_model_eagle35graphILb1EEE
00000000002abd60 V _ZTIN18llama_model_exaone5graphE
00000000002abfa8 V _ZTIN18llama_model_falcon5graphE
00000000002ac1a0 V _ZTIN18llama_model_gemma25graphE
00000000002ac268 V _ZTIN18llama_model_gemma35graphILb0EEE
00000000002ac280 V _ZTIN18llama_model_gemma35graphILb1EEE
00000000002ac478 V _ZTIN18llama_model_gemma45graphE
00000000002ad250 V _ZTIN18llama_model_laguna5graphE
00000000002ad708 V _ZTIN18llama_model_llama45graphILb0EEE
00000000002ad720 V _ZTIN18llama_model_llama45graphILb1EEE
00000000002adac8 V _ZTIN18llama_model_mellum5graphILb0EEE
00000000002adae0 V _ZTIN18llama_model_mellum5graphILb1EEE
00000000002aebb8 V _ZTIN18llama_model_plamo25graphE
00000000002aed00 V _ZTIN18llama_model_plamo35graphILb0EEE
00000000002aed18 V _ZTIN18llama_model_plamo35graphILb1EEE
00000000002af1d0 V _ZTIN18llama_model_qwen355graphE
00000000002af1e8 V _ZTIN18llama_model_qwen359graph_mtpE
00000000002af610 V _ZTIN18llama_model_refact5graphE
00000000002afdf8 V _ZTIN18llama_model_step355graphE
00000000002afe10 V _ZTIN18llama_model_step359graph_mtpE
00000000002b0008 V _ZTIN18llama_model_talkie5graphE
00000000002b0158 V _ZTIN18llama_model_xverse5graphE
00000000002aa7a0 V _ZTIN19llama_model_apertus5graphE
00000000002aaef0 V _ZTIN19llama_model_chatglm5graphE
00000000002ab0e8 V _ZTIN19llama_model_cohere25graphE
00000000002abe28 V _ZTIN19llama_model_exaone45graphILb0EEE
00000000002abe40 V _ZTIN19llama_model_exaone45graphILb1EEE
00000000002ac328 V _ZTIN19llama_model_gemma3n5graphE
00000000002ac7d0 V _ZTIN19llama_model_gptneox5graphE
00000000002ac990 V _ZTIN19llama_model_granite5graphE
00000000002ae678 V _ZTIN19llama_model_openelm5graphE
00000000002af060 V _ZTIN19llama_model_qwen2vl5graphE
00000000002af4c0 V _ZTIN19llama_model_qwen3vl5graphE
00000000002afb38 V _ZTIN19llama_model_smollm35graphE
00000000002aaa58 V _ZTIN20llama_model_baichuan5graphE
00000000002ab468 V _ZTIN20llama_model_deepseek5graphE
00000000002abb68 V _ZTIN20llama_model_ernie4_55graphE
00000000002abc10 V _ZTIN20llama_model_eurobert5graphE
00000000002ac5d8 V _ZTIN20llama_model_glm4_moe5graphE
00000000002acae0 V _ZTIN20llama_model_grovemoe5graphE
00000000002adca0 V _ZTIN20llama_model_minicpm35graphE
00000000002addf0 V _ZTIN20llama_model_mistral35graphE
00000000002ae170 V _ZTIN20llama_model_nemotron5graphE
00000000002ae218 V _ZTIN20llama_model_neo_bert5graphE
00000000002aefb8 V _ZTIN20llama_model_qwen2moe5graphE
00000000002af370 V _ZTIN20llama_model_qwen3moe5graphE
00000000002af9b0 V _ZTIN20llama_model_seed_oss5graphE
00000000002afbe0 V _ZTIN20llama_model_stablelm5graphE
00000000002aae48 V _ZTIN21llama_model_chameleon5graphE
00000000002aaf98 V _ZTIN21llama_model_codeshell5graphE
00000000002ab270 V _ZTIN21llama_model_command_r5graphE
00000000002ab510 V _ZTIN21llama_model_deepseek25graphE
00000000002ab6d0 V _ZTIN21llama_model_deepseek45graphE
00000000002abee8 V _ZTIN21llama_model_falcon_h15graphE
00000000002ace28 V _ZTIN21llama_model_internlm25graphE
00000000002ad448 V _ZTIN21llama_model_llada_moe5graphE
00000000002ad7c8 V _ZTIN21llama_model_maincoder5graphE
00000000002ae7c8 V _ZTIN21llama_model_paddleocr5graphE
00000000002af2b0 V _ZTIN21llama_model_qwen35moe5graphE
00000000002af2c8 V _ZTIN21llama_model_qwen35moe9graph_mtpE
00000000002af418 V _ZTIN21llama_model_qwen3next5graphE
00000000002afc88 V _ZTIN21llama_model_starcoder5graphE
00000000002aab00 V _ZTIN22llama_model_bailingmoe5graphE
00000000002ab1b0 V _ZTIN22llama_model_cohere2moe5graphE
00000000002ab1c8 V _ZTIN22llama_model_cohere2moe9graph_mtpE
00000000002ab628 V _ZTIN22llama_model_deepseek325graphE
00000000002abcb8 V _ZTIN22llama_model_exaone_moe5graphE
00000000002acca0 V _ZTIN22llama_model_hunyuan_vl5graphE
00000000002add48 V _ZTIN22llama_model_minimax_m25graphE
00000000002ae0c8 V _ZTIN22llama_model_nemotron_h5graphE
00000000002ae5d0 V _ZTIN22llama_model_openai_moe5graphE
00000000002af568 V _ZTIN22llama_model_qwen3vlmoe5graphE
00000000002af840 V _ZTIN22llama_model_rwkv6qwen25graphE
00000000002afd30 V _ZTIN22llama_model_starcoder25graphE
00000000002aaba8 V _ZTIN23llama_model_bailingmoe25graphE
00000000002acbf8 V _ZTIN23llama_model_hunyuan_moe5graphE
00000000002ad1a8 V _ZTIN23llama_model_kimi_linear5graphE
00000000002adf08 V _ZTIN23llama_model_modern_bert5graphE
00000000002ae870 V _ZTIN23llama_model_pangu_embed5graphE
00000000002abac0 V _ZTIN24llama_model_ernie4_5_moe5graphE
00000000002afa78 V _ZTIN24llama_model_smallthinker5graphILb0EEE
00000000002afa90 V _ZTIN24llama_model_smallthinker5graphILb1EEE
00000000002ac878 V _ZTIN26llama_model_granite_hybrid5graphE
00000000002ac050 V _ZTIN27llama_model_gemma_embedding5graphE
00000000002ac3d0 V _ZTIN28llama_model_gemma4_assistant5graphE
00000000002b00b0 V _ZTIN28llama_model_wavtokenizer_dec5graphE
00000000002a7980 V _ZTINSt6__ndk110__back_refIcEE
00000000002aa3c8 V _ZTINSt6__ndk110__back_refIwEE
00000000002a8360 V _ZTINSt6__ndk110__function6__baseIFP11ggml_tensorP12ggml_contextS3_S3_EEE
00000000002a86f8 V _ZTINSt6__ndk110__function6__baseIFbiEEE
00000000002a9ae0 V _ZTINSt6__ndk110__function6__baseIFiiEEE
00000000002a9450 V _ZTINSt6__ndk110__function6__baseIFijEEE
00000000002a7470 V _ZTINSt6__ndk110__function6__baseIFvRK12llama_ubatchP11ggml_tensorPKciEEE
00000000002a8348 V _ZTINSt6__ndk110__function6__funcIPFP11ggml_tensorP12ggml_contextS3_S3_ENS_9allocatorIS7_EES6_EE
00000000002a7b78 V _ZTINSt6__ndk111__alternateIcEE
00000000002aa5c0 V _ZTINSt6__ndk111__alternateIwEE
00000000002a7560 V _ZTINSt6__ndk111__end_stateIcEE
00000000002a9fa8 V _ZTINSt6__ndk111__end_stateIwEE
00000000002a7788 V _ZTINSt6__ndk111__lookaheadIcNS_12regex_traitsIcEEEE
00000000002aa1d0 V _ZTINSt6__ndk111__lookaheadIwNS_12regex_traitsIwEEEE
00000000002a7c08 V _ZTINSt6__ndk111__match_anyIcEE
00000000002aa650 V _ZTINSt6__ndk111__match_anyIwEE
00000000002b09b8 D _ZTINSt6__ndk111regex_errorE
00000000002a78a8 V _ZTINSt6__ndk112__match_charIcEE
00000000002aa2f0 V _ZTINSt6__ndk112__match_charIwEE
00000000002a7608 V _ZTINSt6__ndk113__empty_stateIcEE
00000000002aa050 V _ZTINSt6__ndk113__empty_stateIwEE
00000000002a7638 V _ZTINSt6__ndk115__has_one_stateIcEE
00000000002aa080 V _ZTINSt6__ndk115__has_one_stateIwEE
00000000002a7740 V _ZTINSt6__ndk115__word_boundaryIcNS_12regex_traitsIcEEEE
00000000002aa188 V _ZTINSt6__ndk115__word_boundaryIwNS_12regex_traitsIwEEEE
00000000002a78f0 V _ZTINSt6__ndk116__back_ref_icaseIcNS_12regex_traitsIcEEEE
00000000002aa338 V _ZTINSt6__ndk116__back_ref_icaseIwNS_12regex_traitsIwEEEE
00000000002a7620 V _ZTINSt6__ndk116__owns_one_stateIcEE
00000000002aa068 V _ZTINSt6__ndk116__owns_one_stateIwEE
00000000002a7ab8 V _ZTINSt6__ndk117__owns_two_statesIcEE
00000000002aa500 V _ZTINSt6__ndk117__owns_two_statesIwEE
00000000002a7b30 V _ZTINSt6__ndk117__repeat_one_loopIcEE
00000000002aa578 V _ZTINSt6__ndk117__repeat_one_loopIwEE
00000000002b0198 D _ZTINSt6__ndk117bad_function_callE
00000000002a7938 V _ZTINSt6__ndk118__back_ref_collateIcNS_12regex_traitsIcEEEE
00000000002aa380 V _ZTINSt6__ndk118__back_ref_collateIwNS_12regex_traitsIwEEEE
00000000002a7818 V _ZTINSt6__ndk118__match_char_icaseIcNS_12regex_traitsIcEEEE
00000000002aa260 V _ZTINSt6__ndk118__match_char_icaseIwNS_12regex_traitsIwEEEE
00000000002a79c8 V _ZTINSt6__ndk120__bracket_expressionIcNS_12regex_traitsIcEEEE
00000000002aa410 V _ZTINSt6__ndk120__bracket_expressionIwNS_12regex_traitsIwEEEE
00000000002a76b0 V _ZTINSt6__ndk120__l_anchor_multilineIcEE
00000000002aa0f8 V _ZTINSt6__ndk120__l_anchor_multilineIwEE
00000000002a7860 V _ZTINSt6__ndk120__match_char_collateIcNS_12regex_traitsIcEEEE
00000000002aa2a8 V _ZTINSt6__ndk120__match_char_collateIwNS_12regex_traitsIwEEEE
00000000002a76f8 V _ZTINSt6__ndk120__r_anchor_multilineIcEE
00000000002aa140 V _ZTINSt6__ndk120__r_anchor_multilineIwEE
00000000002a7140 V _ZTINSt6__ndk120__shared_ptr_emplaceIN12llama_ubatch6data_tENS_9allocatorIS2_EEEE
00000000002a8568 V _ZTINSt6__ndk120__shared_ptr_emplaceINS_6vectorI14llama_kv_cellsNS_9allocatorIS2_EEEENS3_IS5_EEEE
00000000002a73e8 V _ZTINSt6__ndk120__shared_ptr_pointerIP18llama_adapter_cvecNS_14default_deleteIS1_EENS_9allocatorIS1_EEEE
00000000002a75c0 V _ZTINSt6__ndk120__shared_ptr_pointerIPNS_13__empty_stateIcEENS_10shared_ptrIS2_E27__shared_ptr_default_deleteIS2_S2_EENS_9allocatorIS2_EEEE
00000000002aa008 V _ZTINSt6__ndk120__shared_ptr_pointerIPNS_13__empty_stateIwEENS_10shared_ptrIS2_E27__shared_ptr_default_deleteIS2_S2_EENS_9allocatorIS2_EEEE
00000000002a7bc0 V _ZTINSt6__ndk121__empty_non_own_stateIcEE
00000000002aa608 V _ZTINSt6__ndk121__empty_non_own_stateIwEE
00000000002a77d0 V _ZTINSt6__ndk123__match_any_but_newlineIcEE
00000000002aa218 V _ZTINSt6__ndk123__match_any_but_newlineIwEE
00000000002a7a58 V _ZTINSt6__ndk126__end_marked_subexpressionIcEE
00000000002aa4a0 V _ZTINSt6__ndk126__end_marked_subexpressionIwEE
00000000002a7a10 V _ZTINSt6__ndk128__begin_marked_subexpressionIcEE
00000000002aa458 V _ZTINSt6__ndk128__begin_marked_subexpressionIwEE
00000000002a7aa0 V _ZTINSt6__ndk16__loopIcEE
00000000002aa4e8 V _ZTINSt6__ndk16__loopIwEE
00000000002a7578 V _ZTINSt6__ndk16__nodeIcEE
00000000002a9fc0 V _ZTINSt6__ndk16__nodeIwEE
00000000002a8370 V _ZTIPFP11ggml_tensorP12ggml_contextS0_S0_E
00000000000ac539 R _ZTS11llama_model
00000000000ad704 V _ZTS13llm_tokenizer
00000000000ab2ef R _ZTS14llama_kv_cache
00000000000ab300 V _ZTS14llama_memory_i
00000000000bf489 R _ZTS14llama_model_t5
00000000000aa855 V _ZTS15llama_io_read_i
00000000000be909 R _ZTS15llama_model_mpt
00000000000beece R _ZTS15llama_model_plm
00000000000aa817 V _ZTS16llama_io_write_i
00000000000ac526 R _ZTS16llama_model_base
00000000000bd623 R _ZTS16llama_model_bert
00000000000bd854 R _ZTS16llama_model_dbrx
00000000000bd882 R _ZTS16llama_model_deci
00000000000bdee8 R _ZTS16llama_model_glm4
00000000000bdf16 R _ZTS16llama_model_gpt2
00000000000be030 R _ZTS16llama_model_grok
00000000000be1ae R _ZTS16llama_model_jais
00000000000be2e0 R _ZTS16llama_model_lfm2
00000000000bea2e R _ZTS16llama_model_olmo
00000000000bec2c R _ZTS16llama_model_phi2
00000000000bec5a R _ZTS16llama_model_phi3
00000000000beefa R _ZTS16llama_model_qwen
00000000000bf1af R _ZTS16llama_model_rnd1
00000000000ab1d8 V _ZTS16llm_graph_result
00000000000bd468 R _ZTS17llama_model_afmoe
00000000000bd4cc R _ZTS17llama_model_arcee
00000000000bd683 R _ZTS17llama_model_bloom
00000000000bda21 R _ZTS17llama_model_dots1
00000000000bda51 R _ZTS17llama_model_dream
00000000000bdd15 R _ZTS17llama_model_gemma
00000000000be126 R _ZTS17llama_model_hy_v3
00000000000be1dc R _ZTS17llama_model_jais2
00000000000be20c R _ZTS17llama_model_jamba
00000000000be383 R _ZTS17llama_model_llada
00000000000be3cd R _ZTS17llama_model_llama
00000000000be72a R _ZTS17llama_model_mamba
00000000000be7ca R _ZTS17llama_model_mimo2
00000000000bea5c R _ZTS17llama_model_olmo2
00000000000bead0 R _ZTS17llama_model_olmoe
00000000000beb88 R _ZTS17llama_model_orion
00000000000becc4 R _ZTS17llama_model_plamo
00000000000bef28 R _ZTS17llama_model_qwen2
00000000000befc2 R _ZTS17llama_model_qwen3
00000000000bf1f4 R _ZTS17llama_model_rwkv6
00000000000bf25e R _ZTS17llama_model_rwkv7
00000000000ab1eb V _ZTS17llm_graph_context
00000000000aaf87 V _ZTS17llm_graph_input_i
00000000000ad714 V _ZTS17llm_tokenizer_bpe
00000000000ad6f0 V _ZTS17llm_tokenizer_spm
00000000000ad73c V _ZTS17llm_tokenizer_ugm
00000000000ad728 V _ZTS17llm_tokenizer_wpm
00000000000aa867 V _ZTS18llama_io_read_file
00000000000aa840 V _ZTS18llama_io_read_host
00000000000ab6ba R _ZTS18llama_kv_cache_dsa
00000000000bd4fc R _ZTS18llama_model_arctic
00000000000bd52e R _ZTS18llama_model_arwkv7
00000000000bd651 R _ZTS18llama_model_bitnet
00000000000bd757 R _ZTS18llama_model_cogvlm
00000000000bd9c6 R _ZTS18llama_model_dflash
00000000000bda81 R _ZTS18llama_model_eagle3
00000000000bdbc0 R _ZTS18llama_model_exaone
00000000000bdc9f R _ZTS18llama_model_falcon
00000000000bdd45 R _ZTS18llama_model_gemma2
00000000000bdd77 R _ZTS18llama_model_gemma3
00000000000bde4c R _ZTS18llama_model_gemma4
00000000000be2ae R _ZTS18llama_model_laguna
00000000000be425 R _ZTS18llama_model_llama4
00000000000be75a R _ZTS18llama_model_mamba2
00000000000be76f R _ZTS18llama_model_mellum
00000000000becaf R _ZTS18llama_model_phimoe
00000000000becf4 R _ZTS18llama_model_plamo2
00000000000bee73 R _ZTS18llama_model_plamo3
00000000000beff2 R _ZTS18llama_model_qwen35
00000000000bf17d R _ZTS18llama_model_refact
00000000000bf436 R _ZTS18llama_model_step35
00000000000bf4f0 R _ZTS18llama_model_talkie
00000000000bf568 R _ZTS18llama_model_xverse
00000000000ab06a R _ZTS18llm_graph_input_rs
00000000000ad750 V _ZTS18llm_tokenizer_rwkv
00000000000aa87c V _ZTS19llama_io_write_file
00000000000aa82a V _ZTS19llama_io_write_host
00000000000ab6ec R _ZTS19llama_kv_cache_dsv4
00000000000ab3bb R _ZTS19llama_kv_cache_iswa
00000000000aba5d R _ZTS19llama_memory_hybrid
00000000000bd498 R _ZTS19llama_model_apertus
00000000000bd6eb R _ZTS19llama_model_chatglm
00000000000bd789 R _ZTS19llama_model_cohere2
00000000000bdbf2 R _ZTS19llama_model_exaone4
00000000000bddd2 R _ZTS19llama_model_gemma3n
00000000000bde9c R _ZTS19llama_model_glm_dsa
00000000000bdf6c R _ZTS19llama_model_gptneox
00000000000bdffc R _ZTS19llama_model_granite
00000000000be335 R _ZTS19llama_model_lfm2moe
00000000000be7fa R _ZTS19llama_model_minicpm
00000000000beb3a R _ZTS19llama_model_openelm
00000000000bef8e R _ZTS19llama_model_qwen2vl
00000000000bf10f R _ZTS19llama_model_qwen3vl
00000000000bf331 R _ZTS19llama_model_smollm3
00000000000ab054 R _ZTS19llm_graph_input_cls
00000000000aafb4 R _ZTS19llm_graph_input_pos
00000000000aaa2f V _ZTS20llama_io_read_device
00000000000aa800 V _ZTS20llama_io_write_dummy
00000000000bd577 R _ZTS20llama_model_baichuan
00000000000bd8b0 R _ZTS20llama_model_deepseek
00000000000bdb1a R _ZTS20llama_model_ernie4_5
00000000000bdb50 R _ZTS20llama_model_eurobert
00000000000bdeb2 R _ZTS20llama_model_glm4_moe
00000000000be05e R _ZTS20llama_model_grovemoe
00000000000be810 R _ZTS20llama_model_minicpm3
00000000000be880 R _ZTS20llama_model_mistral3
00000000000be8b6 R _ZTS20llama_model_mistral4
00000000000be98c R _ZTS20llama_model_nemotron
00000000000be9c2 R _ZTS20llama_model_neo_bert
00000000000bef58 R _ZTS20llama_model_qwen2moe
00000000000bf0a1 R _ZTS20llama_model_qwen3moe
00000000000bf28e R _ZTS20llama_model_seed_oss
00000000000bf365 R _ZTS20llama_model_stablelm
00000000000bdc88 V _ZTS20llm_build_mamba_base
00000000000bf1dd V _ZTS20llm_build_rwkv6_base
00000000000bd560 V _ZTS20llm_build_rwkv7_base
00000000000ab12b R _ZTS20llm_graph_input_dsv4
00000000000aaf70 R _ZTS20llm_graph_input_embd
00000000000ab03d R _ZTS20llm_graph_input_mean
00000000000ad765 V _ZTS20llm_tokenizer_plamo2
00000000000aaa17 V _ZTS21llama_io_write_device
00000000000bd6b3 R _ZTS21llama_model_chameleon
00000000000bd71f R _ZTS21llama_model_codeshell
00000000000bd81c R _ZTS21llama_model_command_r
00000000000bd8e6 R _ZTS21llama_model_deepseek2
00000000000bd973 R _ZTS21llama_model_deepseek4
00000000000bdc50 R _ZTS21llama_model_falcon_h1
00000000000be176 R _ZTS21llama_model_internlm2
00000000000be34b R _ZTS21llama_model_llada_moe
00000000000be480 R _ZTS21llama_model_maincoder
00000000000bebb8 R _ZTS21llama_model_paddleocr
00000000000bf045 R _ZTS21llama_model_qwen35moe
00000000000bf0d7 R _ZTS21llama_model_qwen3next
00000000000bf39b R _ZTS21llama_model_starcoder
00000000000bf4d8 R _ZTS21llama_model_t5encoder
00000000000ab32b R _ZTS22llama_kv_cache_context
00000000000ab344 V _ZTS22llama_memory_context_i
00000000000abf33 R _ZTS22llama_memory_recurrent
00000000000bd5ad R _ZTS22llama_model_bailingmoe
00000000000bd7bd R _ZTS22llama_model_cohere2moe
00000000000bd939 R _ZTS22llama_model_deepseek32
00000000000bdb86 R _ZTS22llama_model_exaone_moe
00000000000be0ec R _ZTS22llama_model_hunyuan_vl
00000000000be846 R _ZTS22llama_model_minimax_m2
00000000000be952 R _ZTS22llama_model_nemotron_h
00000000000bea15 R _ZTS22llama_model_nomic_bert
00000000000beb00 R _ZTS22llama_model_openai_moe
00000000000bf143 R _ZTS22llama_model_qwen3vlmoe
00000000000bf224 R _ZTS22llama_model_rwkv6qwen2
00000000000bf3fc R _ZTS22llama_model_starcoder2
00000000000ab0d6 R _ZTS22llm_graph_input_attn_k
00000000000aaf9b R _ZTS22llm_graph_input_embd_h
00000000000bd5e7 R _ZTS23llama_model_bailingmoe2
00000000000bdfe2 R _ZTS23llama_model_granite_moe
00000000000be0b0 R _ZTS23llama_model_hunyuan_moe
00000000000be272 R _ZTS23llama_model_kimi_linear
00000000000be3b3 R _ZTS23llama_model_llama_embed
00000000000be8cd R _ZTS23llama_model_modern_bert
00000000000bebf0 R _ZTS23llama_model_pangu_embed
00000000000ab0bc R _ZTS23llm_graph_input_attn_kv
00000000000ab311 R _ZTS23llm_graph_input_k_shift
00000000000ab023 R _ZTS23llm_graph_input_out_ids
00000000000abcd7 R _ZTS24llama_memory_hybrid_iswa
00000000000bd91e R _ZTS24llama_model_deepseek2ocr
00000000000bdadc R _ZTS24llama_model_ernie4_5_moe
00000000000be23c R _ZTS24llama_model_jina_bert_v2
00000000000be257 R _ZTS24llama_model_jina_bert_v3
00000000000bf2c4 R _ZTS24llama_model_smallthinker
00000000000bd9ab V _ZTS24llm_build_delta_net_base
00000000000ab1bd R _ZTS24llm_graph_input_sampling
00000000000be094 R _ZTS25llama_model_hunyuan_dense
00000000000aafca R _ZTS25llm_graph_input_attn_temp
00000000000ad79e V _ZTS25llm_tokenizer_bpe_session
00000000000ab6cf R _ZTS26llama_kv_cache_dsa_context
00000000000bdfa0 R _ZTS26llama_model_granite_hybrid
00000000000be935 R _ZTS26llama_model_nemotron_h_moe
00000000000be9f8 R _ZTS26llama_model_nomic_bert_moe
00000000000ab142 R _ZTS26llm_graph_input_attn_cross
00000000000ab0ef R _ZTS26llm_graph_input_attn_k_dsa
00000000000ab07f R _ZTS26llm_graph_input_cross_embd
00000000000ab15f R _ZTS26llm_graph_input_mem_hybrid
00000000000aafe6 R _ZTS26llm_graph_input_pos_bucket
00000000000ab724 R _ZTS27llama_kv_cache_dsv4_context
00000000000ab3d1 R _ZTS27llama_kv_cache_iswa_context
00000000000aba73 R _ZTS27llama_memory_hybrid_context
00000000000bdcd1 R _ZTS27llama_model_gemma_embedding
00000000000bde7e V _ZTS27llm_graph_input_logits_bias
00000000000bde06 R _ZTS28llama_model_gemma4_assistant
00000000000bf522 R _ZTS28llama_model_wavtokenizer_dec
00000000000ab10c R _ZTS28llm_graph_input_attn_kv_iswa
00000000000ab17c R _ZTS28llm_graph_input_mem_hybrid_k
00000000000ab09c R _ZTS29llm_graph_input_attn_no_cache
00000000000ab003 R _ZTS29llm_graph_input_pos_bucket_kv
00000000000abf4c R _ZTS30llama_memory_recurrent_context
00000000000ab702 R _ZTS31llama_kv_cache_dsv4_raw_context
00000000000ab19b R _ZTS31llm_graph_input_mem_hybrid_iswa
00000000000ad77c V _ZTS31llm_tokenizer_hybriddna_session
00000000000abcf2 R _ZTS32llama_memory_hybrid_iswa_context
00000000000ad7ba V _ZTS32llm_tokenizer_whitespace_session
00000000000ab2c9 V _ZTSFP11ggml_tensorP12ggml_contextS0_S0_E
00000000000bf49a V _ZTSN14llama_model_t55graphILb0EEE
00000000000bf4b9 V _ZTSN14llama_model_t55graphILb1EEE
00000000000be91b V _ZTSN15llama_model_mpt5graphE
00000000000beee0 V _ZTSN15llama_model_plm5graphE
00000000000bd636 V _ZTSN16llama_model_bert5graphE
00000000000bd867 V _ZTSN16llama_model_dbrx5graphE
00000000000bd895 V _ZTSN16llama_model_deci5graphE
00000000000bdefb V _ZTSN16llama_model_glm45graphE
00000000000bdf29 V _ZTSN16llama_model_gpt25graphE
00000000000be043 V _ZTSN16llama_model_grok5graphE
00000000000be1c1 V _ZTSN16llama_model_jais5graphE
00000000000be314 V _ZTSN16llama_model_lfm25graphILb0EEE
00000000000be2f3 V _ZTSN16llama_model_lfm25graphILb1EEE
00000000000bea41 V _ZTSN16llama_model_olmo5graphE
00000000000bec3f V _ZTSN16llama_model_phi25graphE
00000000000bec6d V _ZTSN16llama_model_phi35graphILb0EEE
00000000000bec8e V _ZTSN16llama_model_phi35graphILb1EEE
00000000000bef0d V _ZTSN16llama_model_qwen5graphE
00000000000bf1c2 V _ZTSN16llama_model_rnd15graphE
00000000000bd47c V _ZTSN17llama_model_afmoe5graphE
00000000000bd4e0 V _ZTSN17llama_model_arcee5graphE
00000000000bd697 V _ZTSN17llama_model_bloom5graphE
00000000000bda35 V _ZTSN17llama_model_dots15graphE
00000000000bda65 V _ZTSN17llama_model_dream5graphE
00000000000bdd29 V _ZTSN17llama_model_gemma5graphE
00000000000be13a V _ZTSN17llama_model_hy_v35graphE
00000000000be156 V _ZTSN17llama_model_hy_v39graph_mtpE
00000000000be1f0 V _ZTSN17llama_model_jais25graphE
00000000000be220 V _ZTSN17llama_model_jamba5graphE
00000000000be397 V _ZTSN17llama_model_llada5graphE
00000000000be3e1 V _ZTSN17llama_model_llama5graphILb0EEE
00000000000be403 V _ZTSN17llama_model_llama5graphILb1EEE
00000000000be73e V _ZTSN17llama_model_mamba5graphE
00000000000be7de V _ZTSN17llama_model_mimo25graphE
00000000000bea70 V _ZTSN17llama_model_olmo25graphILb0EEE
00000000000bea92 V _ZTSN17llama_model_olmo25graphILb1EEE
00000000000beae4 V _ZTSN17llama_model_olmoe5graphE
00000000000beb9c V _ZTSN17llama_model_orion5graphE
00000000000becd8 V _ZTSN17llama_model_plamo5graphE
00000000000bef3c V _ZTSN17llama_model_qwen25graphE
00000000000befd6 V _ZTSN17llama_model_qwen35graphE
00000000000bf208 V _ZTSN17llama_model_rwkv65graphE
00000000000bf272 V _ZTSN17llama_model_rwkv75graphE
00000000000bd511 V _ZTSN18llama_model_arctic5graphE
00000000000bd543 V _ZTSN18llama_model_arwkv75graphE
00000000000bd666 V _ZTSN18llama_model_bitnet5graphE
00000000000bd76c V _ZTSN18llama_model_cogvlm5graphE
00000000000bd9fe V _ZTSN18llama_model_dflash5graphILb0EEE
00000000000bd9db V _ZTSN18llama_model_dflash5graphILb1EEE
00000000000bdab9 V _ZTSN18llama_model_eagle35graphILb0EEE
00000000000bda96 V _ZTSN18llama_model_eagle35graphILb1EEE
00000000000bdbd5 V _ZTSN18llama_model_exaone5graphE
00000000000bdcb4 V _ZTSN18llama_model_falcon5graphE
00000000000bdd5a V _ZTSN18llama_model_gemma25graphE
00000000000bdd8c V _ZTSN18llama_model_gemma35graphILb0EEE
00000000000bddaf V _ZTSN18llama_model_gemma35graphILb1EEE
00000000000bde61 V _ZTSN18llama_model_gemma45graphE
00000000000be2c3 V _ZTSN18llama_model_laguna5graphE
00000000000be43a V _ZTSN18llama_model_llama45graphILb0EEE
00000000000be45d V _ZTSN18llama_model_llama45graphILb1EEE
00000000000be784 V _ZTSN18llama_model_mellum5graphILb0EEE
00000000000be7a7 V _ZTSN18llama_model_mellum5graphILb1EEE
00000000000bed09 V _ZTSN18llama_model_plamo25graphE
00000000000bee88 V _ZTSN18llama_model_plamo35graphILb0EEE
00000000000beeab V _ZTSN18llama_model_plamo35graphILb1EEE
00000000000bf007 V _ZTSN18llama_model_qwen355graphE
00000000000bf024 V _ZTSN18llama_model_qwen359graph_mtpE
00000000000bf192 V _ZTSN18llama_model_refact5graphE
00000000000bf44b V _ZTSN18llama_model_step355graphE
00000000000bf468 V _ZTSN18llama_model_step359graph_mtpE
00000000000bf505 V _ZTSN18llama_model_talkie5graphE
00000000000bf57d V _ZTSN18llama_model_xverse5graphE
00000000000bd4ae V _ZTSN19llama_model_apertus5graphE
00000000000bd701 V _ZTSN19llama_model_chatglm5graphE
00000000000bd79f V _ZTSN19llama_model_cohere25graphE
00000000000bdc08 V _ZTSN19llama_model_exaone45graphILb0EEE
00000000000bdc2c V _ZTSN19llama_model_exaone45graphILb1EEE
00000000000bdde8 V _ZTSN19llama_model_gemma3n5graphE
00000000000bdf82 V _ZTSN19llama_model_gptneox5graphE
00000000000be012 V _ZTSN19llama_model_granite5graphE
00000000000beb50 V _ZTSN19llama_model_openelm5graphE
00000000000befa4 V _ZTSN19llama_model_qwen2vl5graphE
00000000000bf125 V _ZTSN19llama_model_qwen3vl5graphE
00000000000bf347 V _ZTSN19llama_model_smollm35graphE
00000000000bd58e V _ZTSN20llama_model_baichuan5graphE
00000000000bd8c7 V _ZTSN20llama_model_deepseek5graphE
00000000000bdb31 V _ZTSN20llama_model_ernie4_55graphE
00000000000bdb67 V _ZTSN20llama_model_eurobert5graphE
00000000000bdec9 V _ZTSN20llama_model_glm4_moe5graphE
00000000000be075 V _ZTSN20llama_model_grovemoe5graphE
00000000000be827 V _ZTSN20llama_model_minicpm35graphE
00000000000be897 V _ZTSN20llama_model_mistral35graphE
00000000000be9a3 V _ZTSN20llama_model_nemotron5graphE
00000000000be9d9 V _ZTSN20llama_model_neo_bert5graphE
00000000000bef6f V _ZTSN20llama_model_qwen2moe5graphE
00000000000bf0b8 V _ZTSN20llama_model_qwen3moe5graphE
00000000000bf2a5 V _ZTSN20llama_model_seed_oss5graphE
00000000000bf37c V _ZTSN20llama_model_stablelm5graphE
00000000000bd6cb V _ZTSN21llama_model_chameleon5graphE
00000000000bd737 V _ZTSN21llama_model_codeshell5graphE
00000000000bd834 V _ZTSN21llama_model_command_r5graphE
00000000000bd8fe V _ZTSN21llama_model_deepseek25graphE
00000000000bd98b V _ZTSN21llama_model_deepseek45graphE
00000000000bdc68 V _ZTSN21llama_model_falcon_h15graphE
00000000000be18e V _ZTSN21llama_model_internlm25graphE
00000000000be363 V _ZTSN21llama_model_llada_moe5graphE
00000000000be498 V _ZTSN21llama_model_maincoder5graphE
00000000000bebd0 V _ZTSN21llama_model_paddleocr5graphE
00000000000bf05d V _ZTSN21llama_model_qwen35moe5graphE
00000000000bf07d V _ZTSN21llama_model_qwen35moe9graph_mtpE
00000000000bf0ef V _ZTSN21llama_model_qwen3next5graphE
00000000000bf3b3 V _ZTSN21llama_model_starcoder5graphE
00000000000bd5c6 V _ZTSN22llama_model_bailingmoe5graphE
00000000000bd7d6 V _ZTSN22llama_model_cohere2moe5graphE
00000000000bd7f7 V _ZTSN22llama_model_cohere2moe9graph_mtpE
00000000000bd952 V _ZTSN22llama_model_deepseek325graphE
00000000000bdb9f V _ZTSN22llama_model_exaone_moe5graphE
00000000000be105 V _ZTSN22llama_model_hunyuan_vl5graphE
00000000000be85f V _ZTSN22llama_model_minimax_m25graphE
00000000000be96b V _ZTSN22llama_model_nemotron_h5graphE
00000000000beb19 V _ZTSN22llama_model_openai_moe5graphE
00000000000bf15c V _ZTSN22llama_model_qwen3vlmoe5graphE
00000000000bf23d V _ZTSN22llama_model_rwkv6qwen25graphE
00000000000bf415 V _ZTSN22llama_model_starcoder25graphE
00000000000bd601 V _ZTSN23llama_model_bailingmoe25graphE
00000000000be0ca V _ZTSN23llama_model_hunyuan_moe5graphE
00000000000be28c V _ZTSN23llama_model_kimi_linear5graphE
00000000000be8e7 V _ZTSN23llama_model_modern_bert5graphE
00000000000bec0a V _ZTSN23llama_model_pangu_embed5graphE
00000000000bdaf7 V _ZTSN24llama_model_ernie4_5_moe5graphE
00000000000bf2df V _ZTSN24llama_model_smallthinker5graphILb0EEE
00000000000bf308 V _ZTSN24llama_model_smallthinker5graphILb1EEE
00000000000bdfbd V _ZTSN26llama_model_granite_hybrid5graphE
00000000000bdcef V _ZTSN27llama_model_gemma_embedding5graphE
00000000000bde25 V _ZTSN28llama_model_gemma4_assistant5graphE
00000000000bf541 V _ZTSN28llama_model_wavtokenizer_dec5graphE
00000000000aae0b V _ZTSNSt6__ndk110__back_refIcEE
00000000000bd303 V _ZTSNSt6__ndk110__back_refIwEE
00000000000ab25c V _ZTSNSt6__ndk110__function6__baseIFP11ggml_tensorP12ggml_contextS3_S3_EEE
00000000000ab4b0 V _ZTSNSt6__ndk110__function6__baseIFbiEEE
00000000000ace5c V _ZTSNSt6__ndk110__function6__baseIFiiEEE
00000000000ac5a2 V _ZTSNSt6__ndk110__function6__baseIFijEEE
00000000000aa9a9 V _ZTSNSt6__ndk110__function6__baseIFvRK12llama_ubatchP11ggml_tensorPKciEEE
00000000000ab1ff V _ZTSNSt6__ndk110__function6__funcIPFP11ggml_tensorP12ggml_contextS3_S3_ENS_9allocatorIS7_EES6_EE
00000000000aab82 V _ZTSNSt6__ndk110shared_ptrINS_13__empty_stateIcEEE27__shared_ptr_default_deleteIS2_S2_EE
00000000000bd07a V _ZTSNSt6__ndk110shared_ptrINS_13__empty_stateIwEEE27__shared_ptr_default_deleteIS2_S2_EE
00000000000aaf12 V _ZTSNSt6__ndk111__alternateIcEE
00000000000bd40a V _ZTSNSt6__ndk111__alternateIwEE
00000000000aaac8 V _ZTSNSt6__ndk111__end_stateIcEE
00000000000bcfc0 V _ZTSNSt6__ndk111__end_stateIwEE
00000000000aacb5 V _ZTSNSt6__ndk111__lookaheadIcNS_12regex_traitsIcEEEE
00000000000bd1ad V _ZTSNSt6__ndk111__lookaheadIwNS_12regex_traitsIwEEEE
00000000000aaf54 V _ZTSNSt6__ndk111__match_anyIcEE
00000000000bd44c V _ZTSNSt6__ndk111__match_anyIwEE
00000000000bf742 R _ZTSNSt6__ndk111regex_errorE
00000000000aad80 V _ZTSNSt6__ndk112__match_charIcEE
00000000000bd278 V _ZTSNSt6__ndk112__match_charIwEE
00000000000aabd7 V _ZTSNSt6__ndk113__empty_stateIcEE
00000000000bd0cf V _ZTSNSt6__ndk113__empty_stateIwEE
00000000000aa8f7 V _ZTSNSt6__ndk114default_deleteI18llama_adapter_cvecEE
00000000000aac16 V _ZTSNSt6__ndk115__has_one_stateIcEE
00000000000bd10e V _ZTSNSt6__ndk115__has_one_stateIwEE
00000000000aac80 V _ZTSNSt6__ndk115__word_boundaryIcNS_12regex_traitsIcEEEE
00000000000bd178 V _ZTSNSt6__ndk115__word_boundaryIwNS_12regex_traitsIwEEEE
00000000000aad9d V _ZTSNSt6__ndk116__back_ref_icaseIcNS_12regex_traitsIcEEEE
00000000000bd295 V _ZTSNSt6__ndk116__back_ref_icaseIwNS_12regex_traitsIwEEEE
00000000000aabf5 V _ZTSNSt6__ndk116__owns_one_stateIcEE
00000000000bd0ed V _ZTSNSt6__ndk116__owns_one_stateIwEE
00000000000aaece V _ZTSNSt6__ndk117__owns_two_statesIcEE
00000000000bd3c6 V _ZTSNSt6__ndk117__owns_two_statesIwEE
00000000000aaef0 V _ZTSNSt6__ndk117__repeat_one_loopIcEE
00000000000bd3e8 V _ZTSNSt6__ndk117__repeat_one_loopIwEE
00000000000bf59d R _ZTSNSt6__ndk117bad_function_callE
00000000000aadd3 V _ZTSNSt6__ndk118__back_ref_collateIcNS_12regex_traitsIcEEEE
00000000000bd2cb V _ZTSNSt6__ndk118__back_ref_collateIwNS_12regex_traitsIwEEEE
00000000000aad0e V _ZTSNSt6__ndk118__match_char_icaseIcNS_12regex_traitsIcEEEE
00000000000bd206 V _ZTSNSt6__ndk118__match_char_icaseIwNS_12regex_traitsIwEEEE
00000000000aae26 V _ZTSNSt6__ndk120__bracket_expressionIcNS_12regex_traitsIcEEEE
00000000000bd31e V _ZTSNSt6__ndk120__bracket_expressionIwNS_12regex_traitsIwEEEE
00000000000aac36 V _ZTSNSt6__ndk120__l_anchor_multilineIcEE
00000000000bd12e V _ZTSNSt6__ndk120__l_anchor_multilineIwEE
00000000000aad46 V _ZTSNSt6__ndk120__match_char_collateIcNS_12regex_traitsIcEEEE
00000000000bd23e V _ZTSNSt6__ndk120__match_char_collateIwNS_12regex_traitsIwEEEE
00000000000aac5b V _ZTSNSt6__ndk120__r_anchor_multilineIcEE
00000000000bd153 V _ZTSNSt6__ndk120__r_anchor_multilineIwEE
00000000000aa618 V _ZTSNSt6__ndk120__shared_ptr_emplaceIN12llama_ubatch6data_tENS_9allocatorIS2_EEEE
00000000000ab35d V _ZTSNSt6__ndk120__shared_ptr_emplaceINS_6vectorI14llama_kv_cellsNS_9allocatorIS2_EEEENS3_IS5_EEEE
00000000000aa892 V _ZTSNSt6__ndk120__shared_ptr_pointerIP18llama_adapter_cvecNS_14default_deleteIS1_EENS_9allocatorIS1_EEEE
00000000000aaafa V _ZTSNSt6__ndk120__shared_ptr_pointerIPNS_13__empty_stateIcEENS_10shared_ptrIS2_E27__shared_ptr_default_deleteIS2_S2_EENS_9allocatorIS2_EEEE
00000000000bcff2 V _ZTSNSt6__ndk120__shared_ptr_pointerIPNS_13__empty_stateIwEENS_10shared_ptrIS2_E27__shared_ptr_default_deleteIS2_S2_EENS_9allocatorIS2_EEEE
00000000000aaf2e V _ZTSNSt6__ndk121__empty_non_own_stateIcEE
00000000000bd426 V _ZTSNSt6__ndk121__empty_non_own_stateIwEE
00000000000aace6 V _ZTSNSt6__ndk123__match_any_but_newlineIcEE
00000000000bd1de V _ZTSNSt6__ndk123__match_any_but_newlineIwEE
00000000000aae8d V _ZTSNSt6__ndk126__end_marked_subexpressionIcEE
00000000000bd385 V _ZTSNSt6__ndk126__end_marked_subexpressionIwEE
00000000000aae60 V _ZTSNSt6__ndk128__begin_marked_subexpressionIcEE
00000000000bd358 V _ZTSNSt6__ndk128__begin_marked_subexpressionIwEE
00000000000aaeb8 V _ZTSNSt6__ndk16__loopIcEE
00000000000bd3b0 V _ZTSNSt6__ndk16__loopIwEE
00000000000aaae4 V _ZTSNSt6__ndk16__nodeIcEE
00000000000bcfdc V _ZTSNSt6__ndk16__nodeIwEE
00000000000ab2a2 V _ZTSPFP11ggml_tensorP12ggml_contextS0_S0_E
00000000002a9308 D _ZTV11llama_model
00000000002a83c0 D _ZTV14llama_kv_cache
00000000002afe68 D _ZTV14llama_model_t5
00000000002adf40 D _ZTV15llama_model_mpt
00000000002aed50 D _ZTV15llama_model_plm
00000000002a9360 D _ZTV16llama_model_base
00000000002aabe0 D _ZTV16llama_model_bert
00000000002ab2a8 D _ZTV16llama_model_dbrx
00000000002ab350 D _ZTV16llama_model_deci
00000000002ac610 D _ZTV16llama_model_glm4
00000000002ac6b8 D _ZTV16llama_model_gpt2
00000000002ac9c8 D _ZTV16llama_model_grok
00000000002ace60 D _ZTV16llama_model_jais
00000000002ad2a8 D _ZTV16llama_model_lfm2
00000000002ae330 D _ZTV16llama_model_olmo
00000000002ae8a8 D _ZTV16llama_model_phi2
00000000002ae970 D _ZTV16llama_model_phi3
00000000002aedf8 D _ZTV16llama_model_qwen
00000000002af648 D _ZTV16llama_model_rnd1
00000000002a7c20 V _ZTV16llm_graph_result
00000000002aa688 D _ZTV17llama_model_afmoe
00000000002aa7d8 D _ZTV17llama_model_arcee
00000000002aad30 D _ZTV17llama_model_bloom
00000000002ab820 D _ZTV17llama_model_dots1
00000000002ab8c8 D _ZTV17llama_model_dream
00000000002ac088 D _ZTV17llama_model_gemma
00000000002accf8 D _ZTV17llama_model_hy_v3
00000000002acf08 D _ZTV17llama_model_jais2
00000000002acfb0 D _ZTV17llama_model_jamba
00000000002ad480 D _ZTV17llama_model_llada
00000000002ad5b8 D _ZTV17llama_model_llama
00000000002ad920 D _ZTV17llama_model_mamba
00000000002adb18 D _ZTV17llama_model_mimo2
00000000002ae3f8 D _ZTV17llama_model_olmo2
00000000002ae4b8 D _ZTV17llama_model_olmoe
00000000002ae6b0 D _ZTV17llama_model_orion
00000000002aeaa0 D _ZTV17llama_model_plamo
00000000002aeea0 D _ZTV17llama_model_qwen2
00000000002af098 D _ZTV17llama_model_qwen3
00000000002af728 D _ZTV17llama_model_rwkv6
00000000002af898 D _ZTV17llama_model_rwkv7
00000000002a7c40 V _ZTV17llm_graph_context
00000000002a82c0 V _ZTV17llm_graph_input_i
00000000002a9d68 V _ZTV17llm_tokenizer_bpe
00000000002a9d20 V _ZTV17llm_tokenizer_spm
00000000002a9dd8 V _ZTV17llm_tokenizer_ugm
00000000002a9da0 V _ZTV17llm_tokenizer_wpm
00000000002a7310 V _ZTV18llama_io_read_file
00000000002a72b0 V _ZTV18llama_io_read_host
00000000002a8798 D _ZTV18llama_kv_cache_dsa
00000000002aa880 D _ZTV18llama_model_arctic
00000000002aa928 D _ZTV18llama_model_arwkv7
00000000002aac88 D _ZTV18llama_model_bitnet
00000000002aafd0 D _ZTV18llama_model_cogvlm
00000000002ab760 D _ZTV18llama_model_dflash
00000000002ab990 D _ZTV18llama_model_eagle3
00000000002abcf0 D _ZTV18llama_model_exaone
00000000002abf38 D _ZTV18llama_model_falcon
00000000002ac130 D _ZTV18llama_model_gemma2
00000000002ac1f8 D _ZTV18llama_model_gemma3
00000000002ac408 D _ZTV18llama_model_gemma4
00000000002ad1e0 D _ZTV18llama_model_laguna
00000000002ad698 D _ZTV18llama_model_llama4
00000000002ad9a8 D _ZTV18llama_model_mamba2
00000000002ada58 D _ZTV18llama_model_mellum
00000000002aea10 D _ZTV18llama_model_phimoe
00000000002aeb48 D _ZTV18llama_model_plamo2
00000000002aec90 D _ZTV18llama_model_plamo3
00000000002af160 D _ZTV18llama_model_qwen35
00000000002af5a0 D _ZTV18llama_model_refact
00000000002afd88 D _ZTV18llama_model_step35
00000000002aff98 D _ZTV18llama_model_talkie
00000000002b00e8 D _ZTV18llama_model_xverse
00000000002a7ef8 D _ZTV18llm_graph_input_rs
00000000002a9e10 V _ZTV18llm_tokenizer_rwkv
00000000002a7360 V _ZTV19llama_io_write_file
00000000002a7260 V _ZTV19llama_io_write_host
00000000002a88a0 D _ZTV19llama_kv_cache_dsv4
00000000002a8580 D _ZTV19llama_kv_cache_iswa
00000000002a8b80 D _ZTV19llama_memory_hybrid
00000000002aa730 D _ZTV19llama_model_apertus
00000000002aae80 D _ZTV19llama_model_chatglm
00000000002ab078 D _ZTV19llama_model_cohere2
00000000002abdb8 D _ZTV19llama_model_exaone4
00000000002ac2b8 D _ZTV19llama_model_gemma3n
00000000002ac4d8 D _ZTV19llama_model_glm_dsa
00000000002ac760 D _ZTV19llama_model_gptneox
00000000002ac920 D _ZTV19llama_model_granite
00000000002ad348 D _ZTV19llama_model_lfm2moe
00000000002adba0 D _ZTV19llama_model_minicpm
00000000002ae608 D _ZTV19llama_model_openelm
00000000002aeff0 D _ZTV19llama_model_qwen2vl
00000000002af450 D _ZTV19llama_model_qwen3vl
00000000002afac8 D _ZTV19llama_model_smollm3
00000000002a7eb0 D _ZTV19llm_graph_input_cls
00000000002a7d00 D _ZTV19llm_graph_input_pos
00000000002a74e0 V _ZTV20llama_io_read_device
00000000002a7200 V _ZTV20llama_io_write_dummy
00000000002aa9e8 D _ZTV20llama_model_baichuan
00000000002ab3f8 D _ZTV20llama_model_deepseek
00000000002abaf8 D _ZTV20llama_model_ernie4_5
00000000002abba0 D _ZTV20llama_model_eurobert
00000000002ac568 D _ZTV20llama_model_glm4_moe
00000000002aca70 D _ZTV20llama_model_grovemoe
00000000002adc30 D _ZTV20llama_model_minicpm3
00000000002add80 D _ZTV20llama_model_mistral3
00000000002ade08 D _ZTV20llama_model_mistral4
00000000002ae100 D _ZTV20llama_model_nemotron
00000000002ae1a8 D _ZTV20llama_model_neo_bert
00000000002aef48 D _ZTV20llama_model_qwen2moe
00000000002af300 D _ZTV20llama_model_qwen3moe
00000000002af940 D _ZTV20llama_model_seed_oss
00000000002afb70 D _ZTV20llama_model_stablelm
00000000002ad7e0 V _ZTV20llm_build_mamba_base
00000000002af6d0 V _ZTV20llm_build_rwkv6_base
00000000002af858 V _ZTV20llm_build_rwkv7_base
00000000002a80f0 D _ZTV20llm_graph_input_dsv4
00000000002a7c60 D _ZTV20llm_graph_input_embd
00000000002a7e68 D _ZTV20llm_graph_input_mean
00000000002a9e48 V _ZTV20llm_tokenizer_plamo2
00000000002a7490 V _ZTV21llama_io_write_device
00000000002aadd8 D _ZTV21llama_model_chameleon
00000000002aaf28 D _ZTV21llama_model_codeshell
00000000002ab200 D _ZTV21llama_model_command_r
00000000002ab4a0 D _ZTV21llama_model_deepseek2
00000000002ab660 D _ZTV21llama_model_deepseek4
00000000002abe78 D _ZTV21llama_model_falcon_h1
00000000002acdb8 D _ZTV21llama_model_internlm2
00000000002ad3d8 D _ZTV21llama_model_llada_moe
00000000002ad758 D _ZTV21llama_model_maincoder
00000000002ae758 D _ZTV21llama_model_paddleocr
00000000002af240 D _ZTV21llama_model_qwen35moe
00000000002af3a8 D _ZTV21llama_model_qwen3next
00000000002afc18 D _ZTV21llama_model_starcoder
00000000002aff08 D _ZTV21llama_model_t5encoder
00000000002a8458 D _ZTV22llama_kv_cache_context
00000000002a8f90 D _ZTV22llama_memory_recurrent
00000000002aaa90 D _ZTV22llama_model_bailingmoe
00000000002ab140 D _ZTV22llama_model_cohere2moe
00000000002ab5b8 D _ZTV22llama_model_deepseek32
00000000002abc48 D _ZTV22llama_model_exaone_moe
00000000002acc30 D _ZTV22llama_model_hunyuan_vl
00000000002adcd8 D _ZTV22llama_model_minimax_m2
00000000002ae058 D _ZTV22llama_model_nemotron_h
00000000002ae2a0 D _ZTV22llama_model_nomic_bert
00000000002ae560 D _ZTV22llama_model_openai_moe
00000000002af4f8 D _ZTV22llama_model_qwen3vlmoe
00000000002af7d0 D _ZTV22llama_model_rwkv6qwen2
00000000002afcc0 D _ZTV22llama_model_starcoder2
00000000002a8018 D _ZTV22llm_graph_input_attn_k
00000000002a7cb8 D _ZTV22llm_graph_input_embd_h
00000000002aab38 D _ZTV23llama_model_bailingmoe2
00000000002ac890 D _ZTV23llama_model_granite_moe
00000000002acb88 D _ZTV23llama_model_hunyuan_moe
00000000002ad138 D _ZTV23llama_model_kimi_linear
00000000002ad508 D _ZTV23llama_model_llama_embed
00000000002ade98 D _ZTV23llama_model_modern_bert
00000000002ae800 D _ZTV23llama_model_pangu_embed
00000000002a7fd0 D _ZTV23llm_graph_input_attn_kv
00000000002a84c0 D _ZTV23llm_graph_input_k_shift
00000000002a7e20 D _ZTV23llm_graph_input_out_ids
00000000002a8d88 D _ZTV24llama_memory_hybrid_iswa
00000000002ab528 D _ZTV24llama_model_deepseek2ocr
00000000002aba50 D _ZTV24llama_model_ernie4_5_moe
00000000002ad038 D _ZTV24llama_model_jina_bert_v2
00000000002ad0a8 D _ZTV24llama_model_jina_bert_v3
00000000002afa08 D _ZTV24llama_model_smallthinker
00000000002ab6e8 V _ZTV24llm_build_delta_net_base
00000000002a8258 D _ZTV24llm_graph_input_sampling
00000000002acaf8 D _ZTV25llama_model_hunyuan_dense
00000000002a7d48 D _ZTV25llm_graph_input_attn_temp
00000000002a9ed0 V _ZTV25llm_tokenizer_bpe_session
00000000002a8830 D _ZTV26llama_kv_cache_dsa_context
00000000002ac808 D _ZTV26llama_model_granite_hybrid
00000000002adfc8 D _ZTV26llama_model_nemotron_h_moe
00000000002ae230 D _ZTV26llama_model_nomic_bert_moe
00000000002a8138 D _ZTV26llm_graph_input_attn_cross
00000000002a8060 D _ZTV26llm_graph_input_attn_k_dsa
00000000002a7f40 D _ZTV26llm_graph_input_cross_embd
00000000002a8180 D _ZTV26llm_graph_input_mem_hybrid
00000000002a7d90 D _ZTV26llm_graph_input_pos_bucket
00000000002a8978 D _ZTV27llama_kv_cache_dsv4_context
00000000002a8618 D _ZTV27llama_kv_cache_iswa_context
00000000002a8c18 D _ZTV27llama_memory_hybrid_context
00000000002abfe0 D _ZTV27llama_model_gemma_embedding
00000000002ac490 V _ZTV27llm_graph_input_logits_bias
00000000002ac360 D _ZTV28llama_model_gemma4_assistant
00000000002b0040 D _ZTV28llama_model_wavtokenizer_dec
00000000002a80a8 D _ZTV28llm_graph_input_attn_kv_iswa
00000000002a81c8 D _ZTV28llm_graph_input_mem_hybrid_k
00000000002a7f88 D _ZTV29llm_graph_input_attn_no_cache
00000000002a7dd8 D _ZTV29llm_graph_input_pos_bucket_kv
00000000002a9028 D _ZTV30llama_memory_recurrent_context
00000000002a8938 D _ZTV31llama_kv_cache_dsv4_raw_context
00000000002a8210 D _ZTV31llm_graph_input_mem_hybrid_iswa
00000000002a9e80 V _ZTV31llm_tokenizer_hybriddna_session
00000000002a8e20 D _ZTV32llama_memory_hybrid_iswa_context
00000000002a9ef8 V _ZTV32llm_tokenizer_whitespace_session
00000000002afe28 V _ZTVN14llama_model_t55graphILb0EEE
00000000002afe48 V _ZTVN14llama_model_t55graphILb1EEE
00000000002adf20 V _ZTVN15llama_model_mpt5graphE
00000000002aed30 V _ZTVN15llama_model_plm5graphE
00000000002aabc0 V _ZTVN16llama_model_bert5graphE
00000000002ab288 V _ZTVN16llama_model_dbrx5graphE
00000000002ab330 V _ZTVN16llama_model_deci5graphE
00000000002ac5f0 V _ZTVN16llama_model_glm45graphE
00000000002ac698 V _ZTVN16llama_model_gpt25graphE
00000000002ac9a8 V _ZTVN16llama_model_grok5graphE
00000000002ace40 V _ZTVN16llama_model_jais5graphE
00000000002ad288 V _ZTVN16llama_model_lfm25graphILb0EEE
00000000002ad268 V _ZTVN16llama_model_lfm25graphILb1EEE
00000000002ae310 V _ZTVN16llama_model_olmo5graphE
00000000002ae888 V _ZTVN16llama_model_phi25graphE
00000000002ae930 V _ZTVN16llama_model_phi35graphILb0EEE
00000000002ae950 V _ZTVN16llama_model_phi35graphILb1EEE
00000000002aedd8 V _ZTVN16llama_model_qwen5graphE
00000000002af628 V _ZTVN16llama_model_rnd15graphE
00000000002aa668 V _ZTVN17llama_model_afmoe5graphE
00000000002aa7b8 V _ZTVN17llama_model_arcee5graphE
00000000002aad10 V _ZTVN17llama_model_bloom5graphE
00000000002ab800 V _ZTVN17llama_model_dots15graphE
00000000002ab8a8 V _ZTVN17llama_model_dream5graphE
00000000002ac068 V _ZTVN17llama_model_gemma5graphE
00000000002accb8 V _ZTVN17llama_model_hy_v35graphE
00000000002accd8 V _ZTVN17llama_model_hy_v39graph_mtpE
00000000002acee8 V _ZTVN17llama_model_jais25graphE
00000000002acf90 V _ZTVN17llama_model_jamba5graphE
00000000002ad460 V _ZTVN17llama_model_llada5graphE
00000000002ad578 V _ZTVN17llama_model_llama5graphILb0EEE
00000000002ad598 V _ZTVN17llama_model_llama5graphILb1EEE
00000000002ad900 V _ZTVN17llama_model_mamba5graphE
00000000002adaf8 V _ZTVN17llama_model_mimo25graphE
00000000002ae3b8 V _ZTVN17llama_model_olmo25graphILb0EEE
00000000002ae3d8 V _ZTVN17llama_model_olmo25graphILb1EEE
00000000002ae498 V _ZTVN17llama_model_olmoe5graphE
00000000002ae690 V _ZTVN17llama_model_orion5graphE
00000000002aea80 V _ZTVN17llama_model_plamo5graphE
00000000002aee80 V _ZTVN17llama_model_qwen25graphE
00000000002af078 V _ZTVN17llama_model_qwen35graphE
00000000002af708 V _ZTVN17llama_model_rwkv65graphE
00000000002af878 V _ZTVN17llama_model_rwkv75graphE
00000000002aa860 V _ZTVN18llama_model_arctic5graphE
00000000002aa908 V _ZTVN18llama_model_arwkv75graphE
00000000002aac68 V _ZTVN18llama_model_bitnet5graphE
00000000002aafb0 V _ZTVN18llama_model_cogvlm5graphE
00000000002ab740 V _ZTVN18llama_model_dflash5graphILb0EEE
00000000002ab720 V _ZTVN18llama_model_dflash5graphILb1EEE
00000000002ab970 V _ZTVN18llama_model_eagle35graphILb0EEE
00000000002ab950 V _ZTVN18llama_model_eagle35graphILb1EEE
00000000002abcd0 V _ZTVN18llama_model_exaone5graphE
00000000002abf18 V _ZTVN18llama_model_falcon5graphE
00000000002ac110 V _ZTVN18llama_model_gemma25graphE
00000000002ac1b8 V _ZTVN18llama_model_gemma35graphILb0EEE
00000000002ac1d8 V _ZTVN18llama_model_gemma35graphILb1EEE
00000000002ac3e8 V _ZTVN18llama_model_gemma45graphE
00000000002ad1c0 V _ZTVN18llama_model_laguna5graphE
00000000002ad658 V _ZTVN18llama_model_llama45graphILb0EEE
00000000002ad678 V _ZTVN18llama_model_llama45graphILb1EEE
00000000002ada18 V _ZTVN18llama_model_mellum5graphILb0EEE
00000000002ada38 V _ZTVN18llama_model_mellum5graphILb1EEE
00000000002aeb28 V _ZTVN18llama_model_plamo25graphE
00000000002aec50 V _ZTVN18llama_model_plamo35graphILb0EEE
00000000002aec70 V _ZTVN18llama_model_plamo35graphILb1EEE
00000000002af120 V _ZTVN18llama_model_qwen355graphE
00000000002af140 V _ZTVN18llama_model_qwen359graph_mtpE
00000000002af580 V _ZTVN18llama_model_refact5graphE
00000000002afd48 V _ZTVN18llama_model_step355graphE
00000000002afd68 V _ZTVN18llama_model_step359graph_mtpE
00000000002aff78 V _ZTVN18llama_model_talkie5graphE
00000000002b00c8 V _ZTVN18llama_model_xverse5graphE
00000000002aa710 V _ZTVN19llama_model_apertus5graphE
00000000002aae60 V _ZTVN19llama_model_chatglm5graphE
00000000002ab058 V _ZTVN19llama_model_cohere25graphE
00000000002abd78 V _ZTVN19llama_model_exaone45graphILb0EEE
00000000002abd98 V _ZTVN19llama_model_exaone45graphILb1EEE
00000000002ac298 V _ZTVN19llama_model_gemma3n5graphE
00000000002ac740 V _ZTVN19llama_model_gptneox5graphE
00000000002ac900 V _ZTVN19llama_model_granite5graphE
00000000002ae5e8 V _ZTVN19llama_model_openelm5graphE
00000000002aefd0 V _ZTVN19llama_model_qwen2vl5graphE
00000000002af430 V _ZTVN19llama_model_qwen3vl5graphE
00000000002afaa8 V _ZTVN19llama_model_smollm35graphE
00000000002aa9c8 V _ZTVN20llama_model_baichuan5graphE
00000000002ab3d8 V _ZTVN20llama_model_deepseek5graphE
00000000002abad8 V _ZTVN20llama_model_ernie4_55graphE
00000000002abb80 V _ZTVN20llama_model_eurobert5graphE
00000000002ac548 V _ZTVN20llama_model_glm4_moe5graphE
00000000002aca50 V _ZTVN20llama_model_grovemoe5graphE
00000000002adc10 V _ZTVN20llama_model_minicpm35graphE
00000000002add60 V _ZTVN20llama_model_mistral35graphE
00000000002ae0e0 V _ZTVN20llama_model_nemotron5graphE
00000000002ae188 V _ZTVN20llama_model_neo_bert5graphE
00000000002aef28 V _ZTVN20llama_model_qwen2moe5graphE
00000000002af2e0 V _ZTVN20llama_model_qwen3moe5graphE
00000000002af920 V _ZTVN20llama_model_seed_oss5graphE
00000000002afb50 V _ZTVN20llama_model_stablelm5graphE
00000000002aadb8 V _ZTVN21llama_model_chameleon5graphE
00000000002aaf08 V _ZTVN21llama_model_codeshell5graphE
00000000002ab1e0 V _ZTVN21llama_model_command_r5graphE
00000000002ab480 V _ZTVN21llama_model_deepseek25graphE
00000000002ab640 V _ZTVN21llama_model_deepseek45graphE
00000000002abe58 V _ZTVN21llama_model_falcon_h15graphE
00000000002acd98 V _ZTVN21llama_model_internlm25graphE
00000000002ad3b8 V _ZTVN21llama_model_llada_moe5graphE
00000000002ad738 V _ZTVN21llama_model_maincoder5graphE
00000000002ae738 V _ZTVN21llama_model_paddleocr5graphE
00000000002af200 V _ZTVN21llama_model_qwen35moe5graphE
00000000002af220 V _ZTVN21llama_model_qwen35moe9graph_mtpE
00000000002af388 V _ZTVN21llama_model_qwen3next5graphE
00000000002afbf8 V _ZTVN21llama_model_starcoder5graphE
00000000002aaa70 V _ZTVN22llama_model_bailingmoe5graphE
00000000002ab100 V _ZTVN22llama_model_cohere2moe5graphE
00000000002ab120 V _ZTVN22llama_model_cohere2moe9graph_mtpE
00000000002ab598 V _ZTVN22llama_model_deepseek325graphE
00000000002abc28 V _ZTVN22llama_model_exaone_moe5graphE
00000000002acc10 V _ZTVN22llama_model_hunyuan_vl5graphE
00000000002adcb8 V _ZTVN22llama_model_minimax_m25graphE
00000000002ae038 V _ZTVN22llama_model_nemotron_h5graphE
00000000002ae540 V _ZTVN22llama_model_openai_moe5graphE
00000000002af4d8 V _ZTVN22llama_model_qwen3vlmoe5graphE
00000000002af7b0 V _ZTVN22llama_model_rwkv6qwen25graphE
00000000002afca0 V _ZTVN22llama_model_starcoder25graphE
00000000002aab18 V _ZTVN23llama_model_bailingmoe25graphE
00000000002acb68 V _ZTVN23llama_model_hunyuan_moe5graphE
00000000002ad118 V _ZTVN23llama_model_kimi_linear5graphE
00000000002ade78 V _ZTVN23llama_model_modern_bert5graphE
00000000002ae7e0 V _ZTVN23llama_model_pangu_embed5graphE
00000000002aba30 V _ZTVN24llama_model_ernie4_5_moe5graphE
00000000002af9c8 V _ZTVN24llama_model_smallthinker5graphILb0EEE
00000000002af9e8 V _ZTVN24llama_model_smallthinker5graphILb1EEE
00000000002ac7e8 V _ZTVN26llama_model_granite_hybrid5graphE
00000000002abfc0 V _ZTVN27llama_model_gemma_embedding5graphE
00000000002ac340 V _ZTVN28llama_model_gemma4_assistant5graphE
00000000002b0020 V _ZTVN28llama_model_wavtokenizer_dec5graphE
00000000002a7950 V _ZTVNSt6__ndk110__back_refIcEE
00000000002aa398 V _ZTVNSt6__ndk110__back_refIwEE
00000000002a82f0 V _ZTVNSt6__ndk110__function6__funcIPFP11ggml_tensorP12ggml_contextS3_S3_ENS_9allocatorIS7_EES6_EE
00000000002a7b48 V _ZTVNSt6__ndk111__alternateIcEE
00000000002aa590 V _ZTVNSt6__ndk111__alternateIwEE
00000000002a7530 V _ZTVNSt6__ndk111__end_stateIcEE
00000000002a9f78 V _ZTVNSt6__ndk111__end_stateIwEE
00000000002a7758 V _ZTVNSt6__ndk111__lookaheadIcNS_12regex_traitsIcEEEE
00000000002aa1a0 V _ZTVNSt6__ndk111__lookaheadIwNS_12regex_traitsIwEEEE
00000000002a7bd8 V _ZTVNSt6__ndk111__match_anyIcEE
00000000002aa620 V _ZTVNSt6__ndk111__match_anyIwEE
00000000002b01b0 D _ZTVNSt6__ndk111regex_errorE
00000000002a7878 V _ZTVNSt6__ndk112__match_charIcEE
00000000002aa2c0 V _ZTVNSt6__ndk112__match_charIwEE
00000000002a75d8 V _ZTVNSt6__ndk113__empty_stateIcEE
00000000002aa020 V _ZTVNSt6__ndk113__empty_stateIwEE
00000000002a7710 V _ZTVNSt6__ndk115__word_boundaryIcNS_12regex_traitsIcEEEE
00000000002aa158 V _ZTVNSt6__ndk115__word_boundaryIwNS_12regex_traitsIwEEEE
00000000002a78c0 V _ZTVNSt6__ndk116__back_ref_icaseIcNS_12regex_traitsIcEEEE
00000000002aa308 V _ZTVNSt6__ndk116__back_ref_icaseIwNS_12regex_traitsIwEEEE
00000000002a7650 V _ZTVNSt6__ndk116__owns_one_stateIcEE
00000000002aa098 V _ZTVNSt6__ndk116__owns_one_stateIwEE
00000000002a7ad0 V _ZTVNSt6__ndk117__owns_two_statesIcEE
00000000002aa518 V _ZTVNSt6__ndk117__owns_two_statesIwEE
00000000002a7b00 V _ZTVNSt6__ndk117__repeat_one_loopIcEE
00000000002aa548 V _ZTVNSt6__ndk117__repeat_one_loopIwEE
00000000002b0170 D _ZTVNSt6__ndk117bad_function_callE
00000000002a7908 V _ZTVNSt6__ndk118__back_ref_collateIcNS_12regex_traitsIcEEEE
00000000002aa350 V _ZTVNSt6__ndk118__back_ref_collateIwNS_12regex_traitsIwEEEE
00000000002a77e8 V _ZTVNSt6__ndk118__match_char_icaseIcNS_12regex_traitsIcEEEE
00000000002aa230 V _ZTVNSt6__ndk118__match_char_icaseIwNS_12regex_traitsIwEEEE
00000000002a7998 V _ZTVNSt6__ndk120__bracket_expressionIcNS_12regex_traitsIcEEEE
00000000002aa3e0 V _ZTVNSt6__ndk120__bracket_expressionIwNS_12regex_traitsIwEEEE
00000000002a7680 V _ZTVNSt6__ndk120__l_anchor_multilineIcEE
00000000002aa0c8 V _ZTVNSt6__ndk120__l_anchor_multilineIwEE
00000000002a7830 V _ZTVNSt6__ndk120__match_char_collateIcNS_12regex_traitsIcEEEE
00000000002aa278 V _ZTVNSt6__ndk120__match_char_collateIwNS_12regex_traitsIwEEEE
00000000002a76c8 V _ZTVNSt6__ndk120__r_anchor_multilineIcEE
00000000002aa110 V _ZTVNSt6__ndk120__r_anchor_multilineIwEE
00000000002a7108 V _ZTVNSt6__ndk120__shared_ptr_emplaceIN12llama_ubatch6data_tENS_9allocatorIS2_EEEE
00000000002a8530 V _ZTVNSt6__ndk120__shared_ptr_emplaceINS_6vectorI14llama_kv_cellsNS_9allocatorIS2_EEEENS3_IS5_EEEE
00000000002a73b0 V _ZTVNSt6__ndk120__shared_ptr_pointerIP18llama_adapter_cvecNS_14default_deleteIS1_EENS_9allocatorIS1_EEEE
00000000002a7588 V _ZTVNSt6__ndk120__shared_ptr_pointerIPNS_13__empty_stateIcEENS_10shared_ptrIS2_E27__shared_ptr_default_deleteIS2_S2_EENS_9allocatorIS2_EEEE
00000000002a9fd0 V _ZTVNSt6__ndk120__shared_ptr_pointerIPNS_13__empty_stateIwEENS_10shared_ptrIS2_E27__shared_ptr_default_deleteIS2_S2_EENS_9allocatorIS2_EEEE
00000000002a7b90 V _ZTVNSt6__ndk121__empty_non_own_stateIcEE
00000000002aa5d8 V _ZTVNSt6__ndk121__empty_non_own_stateIwEE
00000000002a77a0 V _ZTVNSt6__ndk123__match_any_but_newlineIcEE
00000000002aa1e8 V _ZTVNSt6__ndk123__match_any_but_newlineIwEE
00000000002a7a28 V _ZTVNSt6__ndk126__end_marked_subexpressionIcEE
00000000002aa470 V _ZTVNSt6__ndk126__end_marked_subexpressionIwEE
00000000002a79e0 V _ZTVNSt6__ndk128__begin_marked_subexpressionIcEE
00000000002aa428 V _ZTVNSt6__ndk128__begin_marked_subexpressionIwEE
00000000002a7a70 V _ZTVNSt6__ndk16__loopIcEE
00000000002aa4b8 V _ZTVNSt6__ndk16__loopIwEE
0000000000252854 W _ZZN16llama_model_lfm25graphILb0EEC1ERK11llama_modelRK16llm_graph_paramsENKUlP11ggml_tensorP18llm_graph_input_rsiE_clES9_SB_i
0000000000252ee8 W _ZZN16llama_model_lfm25graphILb0EEC1ERK11llama_modelRK16llm_graph_paramsENKUlP11ggml_tensorS9_P23llm_graph_input_attn_kviE_clES9_S9_SB_i
0000000000251ab0 W _ZZN16llama_model_lfm25graphILb1EEC1ERK11llama_modelRK16llm_graph_paramsENKUlP11ggml_tensorP18llm_graph_input_rsiE_clES9_SB_i
0000000000252144 W _ZZN16llama_model_lfm25graphILb1EEC1ERK11llama_modelRK16llm_graph_paramsENKUlP11ggml_tensorS9_P28llm_graph_input_attn_kv_iswaiE_clES9_S9_SB_i
00000000001e75d8 W _ZZN20llm_tokenizer_plamo25buildERK11llama_vocabENKUlRKNSt6__ndk112basic_stringIcNS3_11char_traitsIcEENS3_9allocatorIcEEEESB_E_clESB_SB_
00000000002b9780 V _ZZN25llm_tokenizer_bpe_session8tokenizeERKNSt6__ndk112basic_stringIcNS0_11char_traitsIcEENS0_9allocatorIcEEEERNS0_6vectorIiNS4_IiEEEEE3hex
00000000001ec794 W _ZZN31llm_tokenizer_hybriddna_session14emit_dna_kmersERKNSt6__ndk112basic_stringIcNS0_11char_traitsIcEENS0_9allocatorIcEEEEmiRNS0_6vectorIiNS4_IiEEEEENKUlS8_E_clES8_
00000000002ba4c8 V _ZZN31llm_tokenizer_hybriddna_session8tokenizeERKNSt6__ndk112basic_stringIcNS0_11char_traitsIcEENS0_9allocatorIcEEEERNS0_6vectorIiNS4_IiEEEEE8open_tag
00000000002ba4e8 V _ZZN31llm_tokenizer_hybriddna_session8tokenizeERKNSt6__ndk112basic_stringIcNS0_11char_traitsIcEENS0_9allocatorIcEEEERNS0_6vectorIiNS4_IiEEEEE9close_tag
00000000000bf59c V __llvm_fs_discriminator__
00000000000fe668 T llama_adapter_get_alora_invocation_tokens
00000000000fe654 T llama_adapter_get_alora_n_invocation_tokens
00000000000fe5a8 T llama_adapter_lora_free
00000000000fbd54 T llama_adapter_lora_init
00000000000fe4d8 T llama_adapter_meta_count
00000000000fe4e0 T llama_adapter_meta_key_by_index
00000000000fe2a4 T llama_adapter_meta_val_str
00000000000fe544 T llama_adapter_meta_val_str_by_index
00000000001ddf44 T llama_add_bos_token
00000000001ddf50 T llama_add_eos_token
000000000011d474 T llama_attach_threadpool
00000000000f8354 T llama_backend_free
00000000000f827c T llama_backend_init
0000000000107410 T llama_batch_free
0000000000107324 T llama_batch_get_one
0000000000107340 T llama_batch_init
00000000000fa2f4 T llama_chat_apply_template
000000000010ffa8 T llama_chat_builtin_templates
000000000011cf78 T llama_context_default_params
000000000011dd58 T llama_copy_state_data
000000000011e2cc T llama_decode
000000000011d4c8 T llama_detach_threadpool
00000000001ddfb0 T llama_detokenize
000000000011e288 T llama_encode
00000000000f8150 T llama_flash_attn_type_name
000000000011d404 T llama_free
00000000001ae6a8 T llama_free_model
0000000000187278 T llama_ftype_name
000000000011d6c4 T llama_get_embeddings
000000000011d6f0 T llama_get_embeddings_ith
000000000011d71c T llama_get_embeddings_seq
000000000011d650 T llama_get_logits
000000000011d67c T llama_get_logits_ith
00000000001134d4 T llama_get_memory
000000000011d464 T llama_get_model
000000000011da24 T llama_get_sampled_candidates_count_ith
000000000011d9f8 T llama_get_sampled_candidates_ith
000000000011da54 T llama_get_sampled_logits_count_ith
000000000011d9cc T llama_get_sampled_logits_ith
000000000011da84 T llama_get_sampled_probs_count_ith
000000000011d9a0 T llama_get_sampled_probs_ith
000000000011d974 T llama_get_sampled_token_ith
000000000011dd50 T llama_get_state_size
000000000011cfac T llama_init_from_model
00000000000f99a0 T llama_load_model_from_file
000000000011de30 T llama_load_session_file
000000000014c740 T llama_log_get
000000000014c744 T llama_log_set
00000000000f8198 T llama_max_devices
000000000012197c T llama_max_parallel_sequences
00000000000f81a0 T llama_max_tensor_buft_overrides
000000000011dd3c T llama_memory_can_shift
000000000011dc8c T llama_memory_clear
000000000011dce4 T llama_memory_seq_add
000000000011dcbc T llama_memory_seq_cp
000000000011dcf8 T llama_memory_seq_div
000000000011dcd0 T llama_memory_seq_keep
000000000011dd24 T llama_memory_seq_pos_max
000000000011dd0c T llama_memory_seq_pos_min
000000000011dca4 T llama_memory_seq_rm
00000000001aec0c T llama_model_chat_template
00000000001ae73c T llama_model_cls_label
00000000001aed8c T llama_model_decoder_start_token
00000000001ae670 T llama_model_default_params
00000000001aeaf4 T llama_model_desc
00000000001ae6bc T llama_model_free
00000000001aebf4 T llama_model_ftype
00000000001ae69c T llama_model_get_vocab
00000000001aed7c T llama_model_has_decoder
00000000001aed58 T llama_model_has_encoder
00000000000f835c T llama_model_init_from_user
00000000001aeda8 T llama_model_is_diffusion
00000000001aeda0 T llama_model_is_hybrid
00000000001aed98 T llama_model_is_recurrent
00000000000f9a00 T llama_model_load_from_file
00000000000fa020 T llama_model_load_from_file_ptr
00000000000f9c7c T llama_model_load_from_splits
00000000001ae9f4 T llama_model_meta_count
00000000001aea24 T llama_model_meta_key_by_index
00000000001aea00 T llama_model_meta_key_str
00000000001ae7b4 T llama_model_meta_val_str
00000000001aea8c T llama_model_meta_val_str_by_index
00000000001ae734 T llama_model_n_cls_out
00000000001ae6d0 T llama_model_n_ctx_train
00000000001ae6d8 T llama_model_n_embd
00000000001ae6e0 T llama_model_n_embd_inp
00000000001ae6e8 T llama_model_n_embd_out
00000000001ae700 T llama_model_n_head
00000000001ae70c T llama_model_n_head_kv
00000000001ae6f0 T llama_model_n_layer
00000000001ae6f8 T llama_model_n_layer_nextn
00000000001aed4c T llama_model_n_params
00000000001ae718 T llama_model_n_swa
00000000001b6d18 T llama_model_quantize
00000000001b6ce8 T llama_model_quantize_default_params
00000000001ae7ac T llama_model_rope_freq_scale_train
00000000001a5e70 T llama_model_rope_type
00000000000fa18c T llama_model_save_to_file
00000000001aec00 T llama_model_size
000000000011d444 T llama_n_batch
000000000011d434 T llama_n_ctx
000000000011d43c T llama_n_ctx_seq
00000000001ae788 T llama_n_ctx_train
00000000001ae790 T llama_n_embd
00000000001ae7a0 T llama_n_head
00000000001ae798 T llama_n_layer
000000000011d45c T llama_n_rs_seq
000000000011d454 T llama_n_seq_max
000000000011d554 T llama_n_threads
000000000011d55c T llama_n_threads_batch
000000000011d44c T llama_n_ubatch
00000000001dda84 T llama_n_vocab
000000000011d394 T llama_new_context_with_model
00000000000f82e0 T llama_numa_init
000000000011e57c T llama_opt_epoch
000000000011e524 T llama_opt_init
000000000011e51c T llama_opt_param_filter_all
000000000011e314 T llama_perf_context
000000000011e374 T llama_perf_context_print
000000000011e4e4 T llama_perf_context_reset
00000000001c4340 T llama_perf_sampler
00000000001c43a8 T llama_perf_sampler_print
00000000001c4420 T llama_perf_sampler_reset
000000000011d46c T llama_pooling_type
00000000000fa9fc T llama_print_system_info
00000000001c1430 T llama_sampler_accept
00000000001c1448 T llama_sampler_apply
00000000001c1b8c T llama_sampler_chain_add
00000000000f8190 T llama_sampler_chain_default_params
00000000001c1c78 T llama_sampler_chain_get
00000000001c153c T llama_sampler_chain_init
00000000001c1d50 T llama_sampler_chain_n
00000000001c1cc8 T llama_sampler_chain_remove
00000000001c14a0 T llama_sampler_clone
00000000001c1500 T llama_sampler_free
00000000001c4268 T llama_sampler_get_seed
00000000001c13e8 T llama_sampler_init
00000000001c3f24 T llama_sampler_init_adaptive_p
00000000001c1ef8 T llama_sampler_init_dist
00000000001c2fa0 T llama_sampler_init_dry
00000000001c26d0 T llama_sampler_init_grammar
00000000001c2d98 T llama_sampler_init_grammar_lazy
00000000001c2dcc T llama_sampler_init_grammar_lazy_patterns
00000000001c1d64 T llama_sampler_init_greedy
00000000001c4124 T llama_sampler_init_infill
00000000001c4028 T llama_sampler_init_logit_bias
00000000001c2208 T llama_sampler_init_min_p
00000000001c256c T llama_sampler_init_mirostat
00000000001c262c T llama_sampler_init_mirostat_v2
00000000001c2e08 T llama_sampler_init_penalties
00000000001c2338 T llama_sampler_init_temp
00000000001c23d4 T llama_sampler_init_temp_ext
00000000001c20bc T llama_sampler_init_top_k
00000000001c2f2c T llama_sampler_init_top_n_sigma
00000000001c2160 T llama_sampler_init_top_p
00000000001c22b0 T llama_sampler_init_typical
00000000001c248c T llama_sampler_init_xtc
00000000001c1414 T llama_sampler_name
00000000001c1488 T llama_sampler_reset
00000000001c1594 T llama_sampler_sample
000000000011defc T llama_save_session_file
0000000000112f40 T llama_set_abort_callback
000000000011dbf4 T llama_set_adapter_cvec
000000000011dba8 T llama_set_adapters_lora
000000000011d5a4 T llama_set_causal_attn
000000000011d564 T llama_set_embeddings
000000000011d504 T llama_set_n_threads
000000000011d970 T llama_set_sampler
000000000011ddc4 T llama_set_state_data
000000000011d600 T llama_set_warmup
00000000000fa630 T llama_split_path
00000000000fa720 T llama_split_prefix
000000000011dd88 T llama_state_get_data
000000000011dd54 T llama_state_get_size
000000000011de34 T llama_state_load_file
000000000011df00 T llama_state_save_file
000000000011dfc0 T llama_state_seq_get_data
000000000011e008 T llama_state_seq_get_data_ext
000000000011dfb4 T llama_state_seq_get_size
000000000011dfbc T llama_state_seq_get_size_ext
000000000011e1bc T llama_state_seq_load_file
000000000011e0f8 T llama_state_seq_save_file
000000000011e05c T llama_state_seq_set_data
000000000011e0a4 T llama_state_seq_set_data_ext
000000000011ddf4 T llama_state_set_data
00000000000f81c8 T llama_supports_gpu_offload
00000000000f81b8 T llama_supports_mlock
00000000000f81a8 T llama_supports_mmap
00000000000f824c T llama_supports_rpc
000000000011d64c T llama_synchronize
00000000000f8358 T llama_time_us
00000000001ddef0 T llama_token_bos
00000000001ddf14 T llama_token_cls
00000000001ddefc T llama_token_eos
00000000001ddf08 T llama_token_eot
00000000001ddf74 T llama_token_fim_mid
00000000001ddf80 T llama_token_fim_pad
00000000001ddf5c T llama_token_fim_pre
00000000001ddf8c T llama_token_fim_rep
00000000001ddf98 T llama_token_fim_sep
00000000001ddf68 T llama_token_fim_suf
00000000001dddf4 T llama_token_get_attr
00000000001ddd98 T llama_token_get_score
00000000001ddd30 T llama_token_get_text
00000000001ddea4 T llama_token_is_control
00000000001dde50 T llama_token_is_eog
00000000001ddf2c T llama_token_nl
00000000001ddf38 T llama_token_pad
00000000001ddf20 T llama_token_sep
00000000001ddfa8 T llama_token_to_piece
00000000001ddfa4 T llama_tokenize
00000000001ddc64 T llama_vocab_bos
00000000001ddc88 T llama_vocab_cls
00000000001ddc70 T llama_vocab_eos
00000000001ddc7c T llama_vocab_eot
00000000001ddcf4 T llama_vocab_fim_mid
00000000001ddd00 T llama_vocab_fim_pad
00000000001ddcdc T llama_vocab_fim_pre
00000000001ddd0c T llama_vocab_fim_rep
00000000001ddd18 T llama_vocab_fim_sep
00000000001ddce8 T llama_vocab_fim_suf
00000000001ddcb8 T llama_vocab_get_add_bos
00000000001ddcc4 T llama_vocab_get_add_eos
00000000001ddcd0 T llama_vocab_get_add_sep
00000000001ddb68 T llama_vocab_get_attr
00000000001ddb0c T llama_vocab_get_score
00000000001ddaa4 T llama_vocab_get_text
00000000001ddc18 T llama_vocab_is_control
00000000001ddbc4 T llama_vocab_is_eog
00000000001ddd24 T llama_vocab_mask
00000000001dda70 T llama_vocab_n_tokens
00000000001ddca0 T llama_vocab_nl
00000000001ddcac T llama_vocab_pad
00000000001ddc94 T llama_vocab_sep
00000000001dda98 T llama_vocab_type
00000000002a9f48 D unicode_map_lowercase
00000000002a9f58 D unicode_map_uppercase
00000000002a9f38 D unicode_ranges_flags
00000000002a9f68 D unicode_ranges_nfd
00000000002ba508 B unicode_set_whitespace
